 PDC Linker 7.0.
  Module 'Exe\Victoria.exe' Map. Sun May 10 15:35:51 2009

Frame 001000   Size 0CD020.  Name=<   .text>, 	Chars=60000020h. [CER]
Frame 0CF000   Size 000170.  Name=< .gcroot>, 	Chars=C0000040h. [IRW]
Frame 0D0000   Size 0003C0.  Name=<  PRODBG>, 	Chars=40000040h. [IR]
Frame 0D1000   Size 08D8F0.  Name=<  .rdata>, 	Chars=40000040h. [IR]
Frame 15F000   Size 0015A0.  Name=<  VIPini>, 	Chars=40000040h. [IR]
Frame 161000   Size 0001B0.  Name=<  VIPsym>, 	Chars=40000040h. [IR]
Frame 162000   Size 001EF0.  Name=<  VIPtpl>, 	Chars=40000040h. [IR]
Frame 164000   Size 0002D0.  Name=<   .data>, 	Chars=C0000040h. [IRW]

	--- S e g m e n t s : ---

Frame 001000   Size 0CD020.  Name=<   .text>, 	Chars=60000020h. [CER]
001000:000000 0CD020   .text::CODE::<no group> F=4
   001000   Module 'Obj\Toolbars.obj'
   001050   Module 'Obj\TaskWindow.obj'
   0040E0   Module 'Obj\user_logic.obj'
   011EB0   Module 'Obj\log.obj'
   013890   Module 'Obj\vp_rand.obj'
   0139A0   Module 'Obj\vp_genetic.obj'
   0157E0   Module 'Obj\genDraw.obj'
   018F50   Module 'Obj\genetic.obj'
   019970   Module 'Obj\fuzzy.obj'
   01FE30   Module 'Obj\core_logic.obj'
   022240   Module 'Obj\main.obj'
   0222A0   Module 'Obj\interface.obj'
   037F30   Module 'Obj\time_api.obj'
   039070   Module 'Obj\systemInformation_api.obj'
   03A820   Module 'Obj\string8_api.obj'
   03AB40   Module 'Obj\runTime_api.obj'
   03CDF0   Module 'Obj\registry_api.obj'
   03E1E0   Module 'Obj\memory_api.obj'
   03E210   Module 'Obj\locale_api.obj'
   03E2A0   Module 'Obj\gui_api.obj'
   03E320   Module 'Obj\fileSystem_api.obj'
   03FE10   Module 'Obj\exe_api.obj'
   040160   Module 'Obj\console_api.obj'
   040200   Module 'Obj\vpitoolbar.obj'
   04C5C0   Module 'Obj\vpiEditor.obj'
   04DD10   Module 'Obj\vpiDomains.obj'
   04DD30   Module 'Obj\vpi.obj'
   051C20   Module 'Obj\time.obj'
   059AC0   Module 'Obj\templateExpander.obj'
   059CA0   Module 'Obj\string8.obj'
   059FE0   Module 'Obj\string.obj'
   05FB20   Module 'Obj\stream.obj'
   060C10   Module 'Obj\outputStreamSupport.obj'
   061170   Module 'Obj\inputStreamSupport.obj'
   0614A0   Module 'Obj\std.obj'
   0619C0   Module 'Obj\registry.obj'
   062650   Module 'Obj\regExp.obj'
   062CB0   Module 'Obj\programControl.obj'
   062DD0   Module 'Obj\profile.obj'
   064550   Module 'Obj\namedValue.obj'
   0652C0   Module 'Obj\memory.obj'
   066240   Module 'Obj\math.obj'
   067700   Module 'Obj\list.obj'
   069530   Module 'Obj\guisupport.obj'
   06A6E0   Module 'Obj\gui.obj'
   089D70   Module 'Obj\messageControl.obj'
   08E920   Module 'Obj\controlSupport.obj'
   09AD70   Module 'Obj\controls.obj'
   0B6F90   Module 'Obj\fileSystem.obj'
   0C14A0   Module 'Obj\exceptionDump.obj'
   0C2B20   Module 'Obj\exception.obj'
   0C6470   Module 'Obj\environment.obj'
   0C6A30   Module 'Obj\core.obj'
   0C7880   Module 'Obj\console.obj'
   0C96A0   Module 'Obj\boolean.obj'
   0C97E0   Module 'Obj\binary.obj'
   0CD5F0   Module 'Obj\exe.obj'
   0CDCE0   Module '.\Release\VIPMain.obj'
   0CDD50   Module '.\Release\VIPDll.obj'
   0CDEB0   Module '.\vp_rand___Win32_Release\rand.obj'

Frame 0CF000   Size 000170.  Name=< .gcroot>, 	Chars=C0000040h. [IRW]
0CF000:000000 000168   .gcroot::.gcroot::.gcroot F=4
   0CF000   Module 'Obj\user_logic.obj'
   0CF008   Module 'Obj\log.obj'
   0CF014   Module 'Obj\genetic.obj'
   0CF030   Module 'Obj\fuzzy.obj'
   0CF034   Module 'Obj\core_logic.obj'
   0CF054   Module 'Obj\runTime_api.obj'
   0CF058   Module 'Obj\vpitoolbar.obj'
   0CF0CC   Module 'Obj\vpiEditor.obj'
   0CF0D4   Module 'Obj\vpi.obj'
   0CF0F0   Module 'Obj\stream.obj'
   0CF0F4   Module 'Obj\profile.obj'
   0CF124   Module 'Obj\gui.obj'
   0CF12C   Module 'Obj\controls.obj'
   0CF15C   Module 'Obj\console.obj'

Frame 0D0000   Size 0003C0.  Name=<  PRODBG>, 	Chars=40000040h. [IR]
0D0000:000000 0003C0   PRODBG::PRODBG::PRODBG F=4
   0D0000   Module 'Obj\Toolbars.obj'
   0D0010   Module 'Obj\TaskWindow.obj'
   0D0020   Module 'Obj\user_logic.obj'
   0D0030   Module 'Obj\log.obj'
   0D0040   Module 'Obj\vp_rand.obj'
   0D0050   Module 'Obj\vp_genetic.obj'
   0D0060   Module 'Obj\genDraw.obj'
   0D0070   Module 'Obj\genetic.obj'
   0D0080   Module 'Obj\fuzzy.obj'
   0D0090   Module 'Obj\core_logic.obj'
   0D00A0   Module 'Obj\main.obj'
   0D00B0   Module 'Obj\interface.obj'
   0D00C0   Module 'Obj\windowsAPI.obj'
   0D00D0   Module 'Obj\time_api.obj'
   0D00E0   Module 'Obj\systemInformation_api.obj'
   0D00F0   Module 'Obj\string8_api.obj'
   0D0100   Module 'Obj\string_api.obj'
   0D0110   Module 'Obj\runTime_api.obj'
   0D0120   Module 'Obj\registry_api.obj'
   0D0130   Module 'Obj\memory_api.obj'
   0D0140   Module 'Obj\locale_api.obj'
   0D0150   Module 'Obj\gui_api.obj'
   0D0160   Module 'Obj\fileSystem_api.obj'
   0D0170   Module 'Obj\exe_api.obj'
   0D0180   Module 'Obj\environment_api.obj'
   0D0190   Module 'Obj\console_api.obj'
   0D01A0   Module 'Obj\vpitoolbar.obj'
   0D01B0   Module 'Obj\vpiEditor.obj'
   0D01C0   Module 'Obj\vpiDomains.obj'
   0D01D0   Module 'Obj\vpi.obj'
   0D01E0   Module 'Obj\time.obj'
   0D01F0   Module 'Obj\templateExpander.obj'
   0D0200   Module 'Obj\string8.obj'
   0D0210   Module 'Obj\string.obj'
   0D0220   Module 'Obj\stream.obj'
   0D0230   Module 'Obj\outputStreamSupport.obj'
   0D0240   Module 'Obj\inputStreamSupport.obj'
   0D0250   Module 'Obj\std.obj'
   0D0260   Module 'Obj\registry.obj'
   0D0270   Module 'Obj\regExp.obj'
   0D0280   Module 'Obj\programControl.obj'
   0D0290   Module 'Obj\profile.obj'
   0D02A0   Module 'Obj\namedValue.obj'
   0D02B0   Module 'Obj\memory.obj'
   0D02C0   Module 'Obj\math.obj'
   0D02D0   Module 'Obj\list.obj'
   0D02E0   Module 'Obj\guisupport.obj'
   0D02F0   Module 'Obj\gui.obj'
   0D0300   Module 'Obj\messageControl.obj'
   0D0310   Module 'Obj\controlSupport.obj'
   0D0320   Module 'Obj\controls.obj'
   0D0330   Module 'Obj\fileSystem.obj'
   0D0340   Module 'Obj\exceptionDump.obj'
   0D0350   Module 'Obj\exception.obj'
   0D0360   Module 'Obj\environment.obj'
   0D0370   Module 'Obj\core.obj'
   0D0380   Module 'Obj\console.obj'
   0D0390   Module 'Obj\boolean.obj'
   0D03A0   Module 'Obj\binary.obj'
   0D03B0   Module 'Obj\exe.obj'

Frame 0D1000   Size 08D8F0.  Name=<  .rdata>, 	Chars=40000040h. [IR]
0D1000:000000 0006FA   VIPSymb::VIPSymb::.rdata F=4
   0D1000   Module 'Obj\user_logic.obj'
   0D154E   Module 'Obj\log.obj'
   0D15D0   Module 'Obj\fuzzy.obj'
   0D1654   Module 'Obj\core_logic.obj'
   0D1674   Module 'Obj\interface.obj'
   0D16E0   Module 'Obj\profile.obj'
0D1000:000700 0052C0   VIPInter::VIPInter::.rdata F=4
   0D1700   Module 'Obj\Toolbars.obj'
   0D1EC0   Module 'Obj\TaskWindow.obj'
   0D5E80   Module 'Obj\user_logic.obj'
   0D5F60   Module 'Obj\log.obj'
   0D6480   Module 'Obj\main.obj'
   0D64F0   Module 'Obj\systemInformation_api.obj'
   0D65D0   Module 'Obj\string_api.obj'
   0D6930   Module 'Obj\templateExpander.obj'
0D1000:0059C0 0247E8   .rdata::.rdata::.rdata F=4
   0D69C0   Module 'Obj\Toolbars.obj'
   0D6A80   Module 'Obj\TaskWindow.obj'
   0D6D20   Module 'Obj\user_logic.obj'
   0DA1C0   Module 'Obj\log.obj'
   0DB620   Module 'Obj\vp_rand.obj'
   0DB6A0   Module 'Obj\vp_genetic.obj'
   0DB8E0   Module 'Obj\genDraw.obj'
   0DBC60   Module 'Obj\genetic.obj'
   0DC200   Module 'Obj\fuzzy.obj'
   0DE050   Module 'Obj\core_logic.obj'
   0DFFD0   Module 'Obj\main.obj'
   0E0020   Module 'Obj\interface.obj'
   0E1CA0   Module 'Obj\windowsAPI.obj'
   0E1D30   Module 'Obj\time_api.obj'
   0E21A0   Module 'Obj\systemInformation_api.obj'
   0E2360   Module 'Obj\string8_api.obj'
   0E2530   Module 'Obj\string_api.obj'
   0E25D0   Module 'Obj\runTime_api.obj'
   0E2FC0   Module 'Obj\registry_api.obj'
   0E3360   Module 'Obj\memory_api.obj'
   0E3430   Module 'Obj\locale_api.obj'
   0E3600   Module 'Obj\gui_api.obj'
   0E3800   Module 'Obj\fileSystem_api.obj'
   0E3CC0   Module 'Obj\exe_api.obj'
   0E3E30   Module 'Obj\environment_api.obj'
   0E3EE0   Module 'Obj\console_api.obj'
   0E4040   Module 'Obj\vpitoolbar.obj'
   0E4370   Module 'Obj\vpiEditor.obj'
   0E5090   Module 'Obj\vpiDomains.obj'
   0E51B0   Module 'Obj\vpi.obj'
   0E91B0   Module 'Obj\time.obj'
   0EA080   Module 'Obj\templateExpander.obj'
   0EA1C0   Module 'Obj\string8.obj'
   0EA2E0   Module 'Obj\string.obj'
   0EAD30   Module 'Obj\stream.obj'
   0EB600   Module 'Obj\outputStreamSupport.obj'
   0EB810   Module 'Obj\inputStreamSupport.obj'
   0EBA30   Module 'Obj\std.obj'
   0EBB00   Module 'Obj\registry.obj'
   0EBFC0   Module 'Obj\regExp.obj'
   0EC1C0   Module 'Obj\programControl.obj'
   0EC320   Module 'Obj\profile.obj'
   0ECA90   Module 'Obj\namedValue.obj'
   0ECD60   Module 'Obj\memory.obj'
   0ECDE0   Module 'Obj\math.obj'
   0ED330   Module 'Obj\list.obj'
   0ED580   Module 'Obj\guisupport.obj'
   0EDAE0   Module 'Obj\gui.obj'
   0F1BB0   Module 'Obj\messageControl.obj'
   0F1FC0   Module 'Obj\controlSupport.obj'
   0F28B0   Module 'Obj\controls.obj'
   0F5090   Module 'Obj\fileSystem.obj'
   0F62C0   Module 'Obj\exceptionDump.obj'
   0F68A0   Module 'Obj\exception.obj'
   0F9BC0   Module 'Obj\environment.obj'
   0F9EA0   Module 'Obj\core.obj'
   0FA1F0   Module 'Obj\console.obj'
   0FA7D0   Module 'Obj\boolean.obj'
   0FA8C0   Module 'Obj\binary.obj'
   0FAFB0   Module 'Obj\exe.obj'
   0FB1A0   Module '.\vp_rand___Win32_Release\rand.obj'
0D1000:02A1B0 063740   VIPClass::VIPClass::.rdata F=4
   0FB1B0   Module 'Obj\Toolbars.obj'
   0FB230   Module 'Obj\TaskWindow.obj'
   0FEEA0   Module 'Obj\user_logic.obj'
   0FF5A0   Module 'Obj\log.obj'
   0FF960   Module 'Obj\vp_rand.obj'
   0FF9C0   Module 'Obj\vp_genetic.obj'
   0FFF20   Module 'Obj\genDraw.obj'
   102460   Module 'Obj\genetic.obj'
   1027C0   Module 'Obj\fuzzy.obj'
   103480   Module 'Obj\core_logic.obj'
   1039F0   Module 'Obj\main.obj'
   103DF0   Module 'Obj\interface.obj'
   1176D0   Module 'Obj\windowsAPI.obj'
   117740   Module 'Obj\time_api.obj'
   117A60   Module 'Obj\systemInformation_api.obj'
   1183D0   Module 'Obj\string8_api.obj'
   118500   Module 'Obj\string_api.obj'
   118590   Module 'Obj\runTime_api.obj'
   118790   Module 'Obj\registry_api.obj'
   1189C0   Module 'Obj\memory_api.obj'
   118BF0   Module 'Obj\locale_api.obj'
   118D10   Module 'Obj\gui_api.obj'
   1196E0   Module 'Obj\fileSystem_api.obj'
   119D90   Module 'Obj\exe_api.obj'
   119F20   Module 'Obj\environment_api.obj'
   119FD0   Module 'Obj\console_api.obj'
   11A1B0   Module 'Obj\vpitoolbar.obj'
   11AA90   Module 'Obj\vpiEditor.obj'
   11B450   Module 'Obj\vpiDomains.obj'
   11C6F0   Module 'Obj\vpi.obj'
   11CA70   Module 'Obj\time.obj'
   11D6B0   Module 'Obj\templateExpander.obj'
   11D740   Module 'Obj\string8.obj'
   11D830   Module 'Obj\string.obj'
   11E5D0   Module 'Obj\stream.obj'
   11E8B0   Module 'Obj\outputStreamSupport.obj'
   11EB00   Module 'Obj\inputStreamSupport.obj'
   11ECD0   Module 'Obj\std.obj'
   11ED20   Module 'Obj\registry.obj'
   11EF00   Module 'Obj\regExp.obj'
   11F0A0   Module 'Obj\programControl.obj'
   11F220   Module 'Obj\profile.obj'
   11F780   Module 'Obj\namedValue.obj'
   11F7F0   Module 'Obj\memory.obj'
   11FC50   Module 'Obj\math.obj'
   11FDB0   Module 'Obj\list.obj'
   11FE00   Module 'Obj\guisupport.obj'
   120210   Module 'Obj\gui.obj'
   12FE00   Module 'Obj\messageControl.obj'
   134CD0   Module 'Obj\controlSupport.obj'
   140BE0   Module 'Obj\controls.obj'
   15AA00   Module 'Obj\fileSystem.obj'
   15BEF0   Module 'Obj\exceptionDump.obj'
   15BF90   Module 'Obj\exception.obj'
   15C760   Module 'Obj\environment.obj'
   15C7E0   Module 'Obj\core.obj'
   15D1A0   Module 'Obj\console.obj'
   15DCD0   Module 'Obj\boolean.obj'
   15DD30   Module 'Obj\binary.obj'
   15E7D0   Module 'Obj\exe.obj'

Frame 15F000   Size 0015A0.  Name=<  VIPini>, 	Chars=40000040h. [IR]
15F000:000000 000004   VIPini$A::VIPini$A::VIPini F=4
   15F000   Module 'Obj\main.obj'
15F000:000004 0003E0   VIPini$C::VIPini$C::VIPini F=4
   15F004   Module 'Obj\Toolbars.obj'
   15F02C   Module 'Obj\TaskWindow.obj'
   15F140   Module 'Obj\user_logic.obj'
   15F150   Module 'Obj\log.obj'
   15F16C   Module 'Obj\vp_rand.obj'
   15F170   Module 'Obj\vp_genetic.obj'
   15F178   Module 'Obj\genDraw.obj'
   15F17C   Module 'Obj\genetic.obj'
   15F184   Module 'Obj\fuzzy.obj'
   15F19C   Module 'Obj\core_logic.obj'
   15F1A4   Module 'Obj\main.obj'
   15F1B4   Module 'Obj\interface.obj'
   15F1D0   Module 'Obj\windowsAPI.obj'
   15F1D4   Module 'Obj\time_api.obj'
   15F1DC   Module 'Obj\systemInformation_api.obj'
   15F1E8   Module 'Obj\string8_api.obj'
   15F1F0   Module 'Obj\string_api.obj'
   15F204   Module 'Obj\runTime_api.obj'
   15F208   Module 'Obj\registry_api.obj'
   15F210   Module 'Obj\memory_api.obj'
   15F214   Module 'Obj\locale_api.obj'
   15F21C   Module 'Obj\gui_api.obj'
   15F224   Module 'Obj\fileSystem_api.obj'
   15F22C   Module 'Obj\exe_api.obj'
   15F234   Module 'Obj\environment_api.obj'
   15F238   Module 'Obj\console_api.obj'
   15F240   Module 'Obj\vpitoolbar.obj'
   15F244   Module 'Obj\vpiEditor.obj'
   15F24C   Module 'Obj\vpiDomains.obj'
   15F254   Module 'Obj\vpi.obj'
   15F260   Module 'Obj\time.obj'
   15F278   Module 'Obj\templateExpander.obj'
   15F280   Module 'Obj\string8.obj'
   15F284   Module 'Obj\string.obj'
   15F298   Module 'Obj\stream.obj'
   15F2A4   Module 'Obj\outputStreamSupport.obj'
   15F2A8   Module 'Obj\inputStreamSupport.obj'
   15F2AC   Module 'Obj\std.obj'
   15F2B0   Module 'Obj\registry.obj'
   15F2B8   Module 'Obj\regExp.obj'
   15F2C0   Module 'Obj\programControl.obj'
   15F2C4   Module 'Obj\profile.obj'
   15F2D0   Module 'Obj\namedValue.obj'
   15F2D4   Module 'Obj\memory.obj'
   15F2DC   Module 'Obj\math.obj'
   15F2E4   Module 'Obj\list.obj'
   15F2E8   Module 'Obj\guisupport.obj'
   15F2F0   Module 'Obj\gui.obj'
   15F318   Module 'Obj\messageControl.obj'
   15F320   Module 'Obj\controlSupport.obj'
   15F334   Module 'Obj\controls.obj'
   15F380   Module 'Obj\fileSystem.obj'
   15F3A0   Module 'Obj\exceptionDump.obj'
   15F3A4   Module 'Obj\exception.obj'
   15F3B8   Module 'Obj\environment.obj'
   15F3BC   Module 'Obj\core.obj'
   15F3C0   Module 'Obj\console.obj'
   15F3CC   Module 'Obj\boolean.obj'
   15F3D0   Module 'Obj\binary.obj'
   15F3E0   Module 'Obj\exe.obj'
15F000:0003E4 000008   VIPini$E::VIPini$E::VIPini F=4
   15F3E4   Module 'Obj\main.obj'

Frame 161000   Size 0001B0.  Name=<  VIPsym>, 	Chars=40000040h. [IR]
161000:000000 000004   VIPsym$A::VIPsym$A::VIPsym F=4
   161000   Module 'Obj\main.obj'
161000:000004 00019C   VIPsym$C::VIPsym$C::VIPsym F=4
   161004   Module 'Obj\Toolbars.obj'
   161004   Module 'Obj\TaskWindow.obj'
   161004   Module 'Obj\user_logic.obj'
   161108   Module 'Obj\log.obj'
   16112C   Module 'Obj\vp_rand.obj'
   16112C   Module 'Obj\vp_genetic.obj'
   16112C   Module 'Obj\genDraw.obj'
   16112C   Module 'Obj\genetic.obj'
   16113C   Module 'Obj\fuzzy.obj'
   16114C   Module 'Obj\core_logic.obj'
   161170   Module 'Obj\main.obj'
   161170   Module 'Obj\interface.obj'
   16119C   Module 'Obj\windowsAPI.obj'
   16119C   Module 'Obj\time_api.obj'
   16119C   Module 'Obj\systemInformation_api.obj'
   16119C   Module 'Obj\string8_api.obj'
   16119C   Module 'Obj\string_api.obj'
   16119C   Module 'Obj\runTime_api.obj'
   16119C   Module 'Obj\registry_api.obj'
   16119C   Module 'Obj\memory_api.obj'
   16119C   Module 'Obj\locale_api.obj'
   16119C   Module 'Obj\gui_api.obj'
   16119C   Module 'Obj\fileSystem_api.obj'
   16119C   Module 'Obj\exe_api.obj'
   16119C   Module 'Obj\environment_api.obj'
   16119C   Module 'Obj\console_api.obj'
   16119C   Module 'Obj\vpitoolbar.obj'
   16119C   Module 'Obj\vpiEditor.obj'
   16119C   Module 'Obj\vpiDomains.obj'
   16119C   Module 'Obj\vpi.obj'
   16119C   Module 'Obj\time.obj'
   16119C   Module 'Obj\templateExpander.obj'
   16119C   Module 'Obj\string8.obj'
   16119C   Module 'Obj\string.obj'
   16119C   Module 'Obj\stream.obj'
   16119C   Module 'Obj\outputStreamSupport.obj'
   16119C   Module 'Obj\inputStreamSupport.obj'
   16119C   Module 'Obj\std.obj'
   16119C   Module 'Obj\registry.obj'
   16119C   Module 'Obj\regExp.obj'
   16119C   Module 'Obj\programControl.obj'
   16119C   Module 'Obj\profile.obj'
   1611A0   Module 'Obj\namedValue.obj'
   1611A0   Module 'Obj\memory.obj'
   1611A0   Module 'Obj\math.obj'
   1611A0   Module 'Obj\list.obj'
   1611A0   Module 'Obj\guisupport.obj'
   1611A0   Module 'Obj\gui.obj'
   1611A0   Module 'Obj\messageControl.obj'
   1611A0   Module 'Obj\controlSupport.obj'
   1611A0   Module 'Obj\controls.obj'
   1611A0   Module 'Obj\fileSystem.obj'
   1611A0   Module 'Obj\exceptionDump.obj'
   1611A0   Module 'Obj\exception.obj'
   1611A0   Module 'Obj\environment.obj'
   1611A0   Module 'Obj\core.obj'
   1611A0   Module 'Obj\console.obj'
   1611A0   Module 'Obj\boolean.obj'
   1611A0   Module 'Obj\binary.obj'
   1611A0   Module 'Obj\exe.obj'
161000:0001A0 000008   VIPsym$E::VIPsym$E::VIPsym F=4
   1611A0   Module 'Obj\main.obj'

Frame 162000   Size 001EF0.  Name=<  VIPtpl>, 	Chars=40000040h. [IR]
162000:000000 000004   VIPtpl$A::VIPtpl$A::VIPtpl F=4
   162000   Module 'Obj\main.obj'
162000:000004 001EDC   VIPtpl$C::VIPtpl$C::VIPtpl F=4
   162004   Module 'Obj\Toolbars.obj'
   162030   Module 'Obj\TaskWindow.obj'
   1621DC   Module 'Obj\user_logic.obj'
   162364   Module 'Obj\log.obj'
   1623C4   Module 'Obj\vp_rand.obj'
   16240C   Module 'Obj\vp_genetic.obj'
   16255C   Module 'Obj\genDraw.obj'
   1626C8   Module 'Obj\genetic.obj'
   16283C   Module 'Obj\fuzzy.obj'
   1628AC   Module 'Obj\core_logic.obj'
   162A48   Module 'Obj\main.obj'
   162C24   Module 'Obj\interface.obj'
   162DE8   Module 'Obj\windowsAPI.obj'
   162DEC   Module 'Obj\time_api.obj'
   162E1C   Module 'Obj\systemInformation_api.obj'
   162E58   Module 'Obj\string8_api.obj'
   162E80   Module 'Obj\string_api.obj'
   162EB0   Module 'Obj\runTime_api.obj'
   162EE4   Module 'Obj\registry_api.obj'
   162F20   Module 'Obj\memory_api.obj'
   162F30   Module 'Obj\locale_api.obj'
   162F34   Module 'Obj\gui_api.obj'
   162FAC   Module 'Obj\fileSystem_api.obj'
   163014   Module 'Obj\exe_api.obj'
   163048   Module 'Obj\environment_api.obj'
   16306C   Module 'Obj\console_api.obj'
   163098   Module 'Obj\vpitoolbar.obj'
   1630E8   Module 'Obj\vpiEditor.obj'
   163148   Module 'Obj\vpiDomains.obj'
   1631C4   Module 'Obj\vpi.obj'
   163200   Module 'Obj\time.obj'
   163278   Module 'Obj\templateExpander.obj'
   1632A8   Module 'Obj\string8.obj'
   1632B4   Module 'Obj\string.obj'
   163314   Module 'Obj\stream.obj'
   163344   Module 'Obj\outputStreamSupport.obj'
   163384   Module 'Obj\inputStreamSupport.obj'
   1633B8   Module 'Obj\std.obj'
   1633BC   Module 'Obj\registry.obj'
   1633F0   Module 'Obj\regExp.obj'
   163424   Module 'Obj\programControl.obj'
   163458   Module 'Obj\profile.obj'
   1634B4   Module 'Obj\namedValue.obj'
   1634E0   Module 'Obj\memory.obj'
   163514   Module 'Obj\math.obj'
   163548   Module 'Obj\list.obj'
   163570   Module 'Obj\guisupport.obj'
   1636A0   Module 'Obj\gui.obj'
   1637F0   Module 'Obj\messageControl.obj'
   16393C   Module 'Obj\controlSupport.obj'
   163A80   Module 'Obj\controls.obj'
   163C1C   Module 'Obj\fileSystem.obj'
   163CAC   Module 'Obj\exceptionDump.obj'
   163CF8   Module 'Obj\exception.obj'
   163D44   Module 'Obj\environment.obj'
   163D74   Module 'Obj\core.obj'
   163E18   Module 'Obj\console.obj'
   163E64   Module 'Obj\boolean.obj'
   163E68   Module 'Obj\binary.obj'
   163EB0   Module 'Obj\exe.obj'
162000:001EE0 000008   VIPtpl$E::VIPtpl$E::VIPtpl F=4
   163EE0   Module 'Obj\main.obj'

Frame 164000   Size 0002D0.  Name=<   .data>, 	Chars=C0000040h. [IRW]
164000:000000 0002B0   .data::DATA::DGROUP F=4
   164000   Module 'Obj\TaskWindow.obj'
   164010   Module 'Obj\user_logic.obj'
   164028   Module 'Obj\log.obj'
   164030   Module 'Obj\vp_genetic.obj'
   164040   Module 'Obj\genDraw.obj'
   164048   Module 'Obj\genetic.obj'
   16404C   Module 'Obj\fuzzy.obj'
   164074   Module 'Obj\core_logic.obj'
   16408C   Module 'Obj\interface.obj'
   1640C4   Module 'Obj\runTime_api.obj'
   1640D8   Module 'Obj\memory_api.obj'
   1640DC   Module 'Obj\fileSystem_api.obj'
   1640E4   Module 'Obj\vpiEditor.obj'
   1640EC   Module 'Obj\vpi.obj'
   1640F4   Module 'Obj\time.obj'
   16411C   Module 'Obj\string.obj'
   16412C   Module 'Obj\stream.obj'
   164134   Module 'Obj\outputStreamSupport.obj'
   16413C   Module 'Obj\inputStreamSupport.obj'
   164144   Module 'Obj\regExp.obj'
   16414C   Module 'Obj\profile.obj'
   164154   Module 'Obj\guisupport.obj'
   16415C   Module 'Obj\gui.obj'
   1641A4   Module 'Obj\messageControl.obj'
   1641B4   Module 'Obj\controlSupport.obj'
   1641E0   Module 'Obj\controls.obj'
   164270   Module 'Obj\fileSystem.obj'
   164288   Module 'Obj\exception.obj'
   164290   Module 'Obj\console.obj'
   1642A0   Module 'Obj\binary.obj'
164000:0002B0 00001C   .bss::BSS::DGROUP F=4
   1642B0   Module '.\Release\VIPDll.obj'
   1642BC   Module '.\vp_rand___Win32_Release\rand.obj'

	     ------- Names by value Map ---------
Frame 001000   Size 0CD020.  Name=<   .text>, 	Chars=60000020h. [CER]
001000:000000 0CD020   .text::CODE::<no group> F=4
--- From 'Obj\Toolbars.obj'
01:00001000 ?classInfo@statusLine_class@@SAXPAPB_W0@Z  (Idle)
01:0000101C ?create@statusLine_class@@SAXPBUwindowHandle@vpiDomains@@@Z  (Idle)
--- From 'Obj\TaskWindow.obj'
01:00001050 ?classInfo@taskWindow_class@@SAXPAPB_W0@Z  (Idle)
01:0000106C ?new@taskWindow_class@@SAXQAVtaskWindow@@@@Z 
01:00001088 ?_getMessageStream@taskWindow_class@@SAXQAVtaskWindow@@@PAPAVoutputStream@@@@Z 
01:00001164 ?_individViewWindow@taskWindow_class@@SAXQAVtaskWindow@@@PAPAVfmViewIndividual@@@@Z 
01:00001230 ?onShow@taskWindow_class@@SAXQAVtaskWindow@@@QAVwindow@@@H@Z 
01:000012C0 ?onDestroy@taskWindow_class@@SAXQAVtaskWindow@@@QAVwindow@@@@Z 
01:000012C8 ?onSizeChanged@taskWindow_class@@SAXQAVtaskWindow@@@QAVwindow@@@@Z 
01:000012F8 ?onTestFormsBasicForm@taskWindow_class@@SAXQAVtaskWindow@@@QAVwindow@@@I@Z 
01:00001318 ?onTestFormsMainForm@taskWindow_class@@SAXQAVtaskWindow@@@QAVwindow@@@I@Z 
01:00001338 ?on–азноеќкно—ообщений@taskWindow_class@@SAXQAVtaskWindow@@@QAVwindow@@@I@Z 
01:000013C0 ?on–азноеќкноќсоби@taskWindow_class@@SAXQAVtaskWindow@@@QAVwindow@@@I@Z 
01:00001448 ?generatedInitialize@taskWindow_class@@SAXQAVtaskWindow@@@@Z 
01:00001688 ?generatedOnShow@taskWindow_class@@SAXQAVtaskWindow@@@QAVwindow@@@H@Z 
--- From 'Obj\main.obj'
01:00001690 ?_new@taskWindow_class@@SAXPAPAVtaskWindow@@@@Z 
--- From 'Obj\TaskWindow.obj'
01:000016B8 ?_object_facts_initializer@taskWindow_class@@SGXQAVtaskWindow@@@@Z 
01:000016DC ?classInfo@aboutDialog_class@@SAXPAPB_W0@Z  (Idle)
01:000016F8 ?_display@aboutDialog_class@@SAXQAVwindow@@@PAPAVaboutDialog@@@@Z  (Idle)
01:00001720 ?new@aboutDialog_class@@SAXQAVaboutDialog@@@QAVwindow@@@@Z 
01:00001740 ?generatedInitialize@aboutDialog_class@@SAXQAVaboutDialog@@@@Z 
01:00001AFC ?_new@aboutDialog_class@@SAXQAVwindow@@@PAPAVaboutDialog@@@@Z 
01:00002820 ?_initObject@taskWindow@@QAGXQAV1@H@Z 
01:00002864 ?@create_object@taskWindow_class@@SGQAVtaskWindow@@@XZ 
01:00002880 ?_InternalFinalizer@taskWindow@@QAGXQAV1@@Z 
01:00004078 ?_initObject@aboutDialog@@QAGXQAV1@H@Z 
01:000040B4 ?@create_object@aboutDialog_class@@SGQAVaboutDialog@@@XZ 
01:000040D0 ?_InternalFinalizer@aboutDialog@@QAGXQAV1@@Z 
--- From 'Obj\user_logic.obj'
01:000040E0 ?classInfo@cell_class@@SAXPAPB_W0@Z 
01:000040FC ?new@cell_class@@SAXQAVcell@@@@Z 
01:00004104 ?_fitness@cell_class@@SAXQAVgeneticCell@@@PAPAN@Z 
01:00004134 ?_getIndividual@cell_class@@SAXQAVcell@@@PAPAVindividual@@@@Z 
01:00004164 ?computeFitness@cell_class@@SAXQAVgeneticCell@@@@Z 
01:000042E8 ?isIncorrectPos@cell_class@@SAXQAVcell@@@IPB_W@Z 
01:00004398 ?buildCross@cell_class@@SAXQAVcell@@@IIIPAIPAI@Z 
01:0000446C ?_invertCodingAt@cell_class@@SAXQAVcell@@@IIPAI@Z 
01:00004564 ?setCoding@cell_class@@SAXQAVcell@@@I@Z 
01:00004590 ?_getCoding@cell_class@@SAXQAVcell@@@PAI@Z 
01:000045C0 ?mutate@cell_class@@SAXQAVgeneticCell@@@@Z 
01:00004630 ?_copy@cell_class@@SAXQAVgeneticCell@@@PAPAV2@@@Z 
01:00004690 ?crossoverWith@cell_class@@SAXQAVgeneticCell@@@0PAPAV2@@2@Z 
01:0000477C ?equals@cell_class@@SAXQAVgeneticCell@@@0@Z 
01:000047D8 ?draw@cell_class@@SAXQAVgeneticCell@@@QAVwindowGDI@@@PAUrct_struct@vpiDomains_class@@@Z 
01:00004890 ?_toString@cell_class@@SAXQAVgeneticCell@@@PAPB_W@Z 
01:00004B24 ?random@cell_class@@SAXQAVgeneticCell@@@@Z 
01:00004B64 ?_partUnsignedToUList@cell_class@@SAXIPAU?$__list_struct@Uunsigned@@@@IIPAPAU?$__list_struct@U2@@@@Z 
01:00004C08 ?getValue@cell_class@@SAXQAVcell@@@PAPAU?$__list_struct@Uunsigned@@@@@Z 
--- From 'Obj\genetic.obj'
01:00004C70 ?_new@cell_class@@SAXPAPAVcell@@@@Z 
--- From 'Obj\user_logic.obj'
01:00004C98 ?_object_facts_initializer@cell_class@@SGXQAVcell@@@@Z 
01:00004CC4 ?classInfo@individual_class@@SAXPAPB_W0@Z 
01:00004CE0 ?new@individual_class@@SAXQAVindividual@@@@Z 
01:00004CE8 ?init@individual_class@@SAXQAVindividual@@@PAU?$__list_struct@Uunsigned@@@@@Z 
01:00005078 ?setInitialAttributes@individual_class@@SAXQAVindividual@@@IIIIIIII@Z 
01:0000540C ?setInclinations@individual_class@@SAXQAVindividual@@@IIIIIIII@Z 
01:000055A8 ?createPresetParams@individual_class@@SAXQAVindividual@@@@Z 
01:00005DFC ?createParam@individual_class@@SAXQAVindividual@@@PB_WPANPANPAN@Z 
01:00005E70 ?getParameterData@individual_class@@SAXQAVindividual@@@PB_WPAPAN22@Z 
01:00005FBC ?getParameterData_nd@individual_class@@SAXQAVindividual@@@PAPB_WPAPAN22@Z 
01:00006060 $getFuzzifiedParams$individual$predicate$(i,o)$c$_m4 
01:000064B8 $getTermsForParam$individual$predicate$(i,i,o)$c$_m28 
01:000066C0 ?_getInclinationsWeight@individual_class@@SAXQAVindividual@@@PB_WPAPAN@Z 
01:00006E60 $inclValueListToWeight$individual$predicate$(i,o)$c$_m30 
01:00006EEC $getCrispArithmeticAverage$individual$predicate$(i,i,i,o)$c$_m31 
01:00007004 $getTermSetBoundaries$individual$predicate$(i,o)$c$_m32 
01:00007330 $getBoundaryList$individual$predicate$(i,i,i,i,o)$c$_m33 
01:000073C4 ?_getBoundary@individual_class@@SAXHPANHPAPAN@Z 
01:0000745C $getTermList$individual$predicate$(i,i,i,i,o)$c$_m35 
01:00008000 $paidIfWasAble$individual$predicate$(i,i,i,o)$c$_m37 
01:0000803C $isAble$individual$predicate$(i,i)$c$_m38 
01:000080E8 ?setParam@individual_class@@SAXQAVindividual@@@PB_WPAN@Z 
01:00008264 $changeSelf$individual$predicate$(i,i)$c$_m40 
01:0000843C $doAction$individual$predicate$(i,i,o)$c$_m3 
01:0000D56C ?_getActionsToPrioritize@individual_class@@SAXQAVindividual@@@PAPAU?$__list_struct@Usymbol@@@@@Z 
01:0000D7B4 ?_selectJobsBasic@individual_class@@SAXQAVindividual@@@PAPAU?$__list_struct@Usymbol@@@@@Z 
01:0000D7C8 ?_selectOtherActivity@individual_class@@SAXQAVindividual@@@PAPAU?$__list_struct@Usymbol@@@@@Z 
01:0000D7DC ?_selectJobsAfter2Years@individual_class@@SAXQAVindividual@@@PAPAU?$__list_struct@Usymbol@@@@@Z 
01:0000D828 ?_selectJobsAfter4Years@individual_class@@SAXQAVindividual@@@PAPAU?$__list_struct@Usymbol@@@@@Z 
01:0000D874 ?_selectJobsAfter6Years@individual_class@@SAXQAVindividual@@@PAPAU?$__list_struct@Usymbol@@@@@Z 
01:0000D8C0 ?_getSelfDescription@individual_class@@SAXQAVindividual@@@PAPB_W@Z 
01:0000DD18 ?_getClassDescription@individual_class@@SAXQAVindividual@@@PAPB_W@Z 
--- From 'Obj\core_logic.obj'
01:0000DF8C ?_new@individual_class@@SAXPAPAVindividual@@@@Z 
--- From 'Obj\user_logic.obj'
01:0000DFB4 ?_object_facts_initializer@individual_class@@SGXQAVindividual@@@@Z 
01:0000F668 ?classInfo@reality_class@@SAXPAPB_W0@Z 
01:0000F684 ?_getVar@reality_class@@SAXQAVreality@@@PB_WPAPAVfvar@@@@Z 
01:0000F788 ?init@reality_class@@SAXQAVreality@@@@Z 
01:000104A4 $initActionList$reality$predicate$(i,i,o)$c$_m9 
01:0001056C $getRules$reality$predicate$(i,o)$c$_m3 
01:0001059C $getActions$reality$predicate$(i,o)$c$_m4 
01:000105CC ?_divineFuzzification@reality_class@@SAXQAVreality@@@PB_WPANPANPANPAPAVfvar@@@@Z 
01:00010EB0 ?fuzzyParamsFromIndivid@reality_class@@SAXQAVreality@@@QAVindividual@@@@Z 
01:00010FC0 ?_createRule@reality_class@@SAXQAVreality@@@PAU?$__list_struct@Usymbol@@@@PB_W22PAPAVfuzzyRule@@@@Z 
01:00011038 ?_convertIDListToFClauseList@reality_class@@SAXQAVreality@@@PAU?$__list_struct@Usymbol@@@@PB_WPAPAU?$__list_struct@Ufclause@fuzzySupport@@@@@Z 
01:000110BC $createMixedProp$reality$predicate$(i,i,i,i,o)$c$_m13 
01:00011458 $createDirectProp$reality$predicate$(i,i,i,o)$c$_m14 
01:0001157C $createInverseProp$reality$predicate$(i,i,i,o)$c$_m15 
01:000116A0 $createCommonDirectFactor$reality$predicate$(i,i,i,o)$c$_m16 
01:00011940 $createCommonInverseFactor$reality$predicate$(i,i,i,o)$c$_m17 
01:00011BE0 ?_getRealityDescription@reality_class@@SAXQAVreality@@@PAPB_W@Z 
01:00011C78 $getAllRulesDescription$reality$predicate$(i,i,i,o)$c$_m18 
01:00011CE8 $getAllActionsDescription$reality$predicate$(i,i,i,o)$c$_m19 
01:00011D54 ?new@reality_class@@SAXQAVreality@@@@Z 
--- From 'Obj\core_logic.obj'
01:00011D5C ?_new@reality_class@@SAXPAPAVreality@@@@Z 
--- From 'Obj\user_logic.obj'
01:00011D84 ?_object_facts_initializer@reality_class@@SGXQAVreality@@@@Z 
01:00011DB0 ?_initObject@cell@@QAGXQAV1@H@Z 
01:00011DDC ?@create_object@cell_class@@SGQAVcell@@@XZ 
01:00011DF8 ?_InternalFinalizer@cell@@QAGXQAV1@@Z 
01:00011E0C ?_initObject@individual@@QAGXQAV1@H@Z 
01:00011E30 ?@create_object@individual_class@@SGQAVindividual@@@XZ 
01:00011E4C ?_InternalFinalizer@individual@@QAGXQAV1@@Z 
01:00011E60 ?_initObject@reality@@QAGXQAV1@H@Z 
01:00011E84 ?@create_object@reality_class@@SGQAVreality@@@XZ 
01:00011EA0 ?_InternalFinalizer@reality@@QAGXQAV1@@Z 
--- From 'Obj\log.obj'
01:00011EB0 ?classInfo@errorHandler_class@@SAXPAPB_W0@Z  (Idle)
--- From 'Obj\core_logic.obj'
01:00011ECC ?raise@errorHandler_class@@SAXXPB_W@Z 
01:00011F4C ?continue@errorHandler_class@@SAXXPBUtraceId@exception@@PB_W@Z 
--- From 'Obj\log.obj'
01:00011FD4 ?handle@errorHandler_class@@SAXPBUtraceId@exception@@PAPB_W@Z  (Idle)
01:00012200 ?_getExtraInfo@errorHandler_class@@SAXPAU?$__list_struct@UnamedValue@@@@PAPB_W@Z 
01:00012288 ?_class_facts_initializer@errorHandler_class@@SGXXZ 
01:000122A0 ?classInfo@logger_class@@SAXPAPB_W0@Z 
01:000122BC ?_getLogger@logger_class@@SAXPB_WPAPAVlogger@@@@Z  (Idle)
01:00012358 ?getLogger_nd@logger_class@@SAXPB_WPAPAVlogger@@@@Z  (Idle)
01:000123AC ?saveLogger@logger_class@@SAXPB_WQAVlogger@@@@Z 
01:000123E8 ?deleteLogger@logger_class@@SAXPB_W@Z  (Idle)
01:00012480 ?_createAndSaveLogger@logger_class@@SAXPB_WPAUlogtype_struct@1@H0PAPAVlogger@@@@Z  (Idle)
01:000124F4 ?createDumpFile@logger_class@@SAXQAVlogger@@@PB_WPAUlogtype_struct@1@@Z 
01:000125C0 ?new@logger_class@@SAXQAVlogger@@@PAUlogtype_struct@1@HPB_W@Z 
01:000126E0 ?finalize@logger_class@@SGXQAVlogger@@@@Z 
01:000126FC ?closeLog@logger_class@@SAXQAVlogger@@@@Z 
01:0001288C ?isClosed@logger_class@@SAXQAVlogger@@@@Z 
01:000128C4 ?record@logger_class@@SAXQAVlogger@@@PB_W11@Z 
01:000129BC ?dumpToBuffer_Forced@logger_class@@SAXQAVlogger@@@@Z 
01:000129C8 ?_type@logger_class@@SAXQAVlogger@@@PAPAUlogtype_struct@1@@Z 
01:000129F8 ?_dump_filename@logger_class@@SAXQAVlogger@@@PAPB_W@Z 
--- From 'Obj\core_logic.obj'
01:00012A28 ?_getFilenameExtensionFor@logger_class@@SAXPAUlogtype_struct@1@PAPB_W@Z 
--- From 'Obj\log.obj'
01:00012A60 ?dumpBuffer@logger_class@@SAXQAVlogger@@@@Z 
01:00012C84 ?_constructLogHeader@logger_class@@SAXPAUlogtype_struct@1@PAPB_W@Z 
01:00012F20 ?_constructLogFooter@logger_class@@SAXPAUlogtype_struct@1@PAPB_W@Z 
01:00013024 ?_getMessageTypeName@logger_class@@SAXPB_WPAPB_W@Z 
01:00013098 ?_getMessageSubjectName@logger_class@@SAXPB_WPAPB_W@Z 
01:0001312C ?_format_ByMsgType@logger_class@@SAXPB_W0PAPB_W@Z 
01:000131AC ?_convertRecordToString@logger_class@@SAXPAUlogtype_struct@1@HPB_W22PAPB_W@Z 
--- From 'Obj\core_logic.obj'
01:0001372C ?_new@logger_class@@SAXPAUlogtype_struct@1@HPB_WPAPAVlogger@@@@Z 
--- From 'Obj\log.obj'
01:0001375C ?getLogger_nd@logger_class@@SAXPAPB_WPAPAVlogger@@@@Z  (Idle)
01:000137B0 ?_object_facts_initializer@logger_class@@SGXQAVlogger@@@@Z 
01:000137FC ?_initObject@logger@@QAGXQAV1@H@Z 
01:00013820 ?@create_object@logger_class@@SGQAVlogger@@@XZ 
01:0001383C ?_InternalFinalizer@logger@@QAGXQAV1@@Z 
--- From 'Obj\vp_rand.obj'
01:00013890 ?classInfo@rnd_class@@SAXPAPB_W0@Z  (Idle)
--- From 'Obj\vp_genetic.obj'
01:000138AC ?seed@rnd_class@@SAXXZ 
01:0001395C ?_rnd@rnd_class@@SAXIPAI@Z 
01:00013974 ?_rnd@rnd_class@@SAXPAPAN@Z 
01:000139A0 ?classInfo@geneticPopulation_class@@SAXPAPB_W0@Z  (Idle)
01:000139BC ?new@geneticPopulation_class@@SAXQAVgeneticPopulation@@@I@Z 
01:00013A04 ?setMutationRate@geneticPopulation_class@@SAXQAVgeneticPopulation@@@PAN@Z 
01:00013A20 ?resetPopulation@geneticPopulation_class@@SAXQAVgeneticPopulation@@@@Z 
01:00013A84 ?addCell@geneticPopulation_class@@SAXQAVgeneticPopulation@@@QAVgeneticCell@@@H@Z 
01:00013DA8 ?_computeMeanFitness@geneticPopulation_class@@SAXQAVgeneticPopulation@@@PAPAN@Z 
01:00013F34 ?_getMeanFitness@geneticPopulation_class@@SAXQAVgeneticPopulation@@@PAPAN@Z 
01:00013F40 ?getStats@geneticPopulation_class@@SAXQAVgeneticPopulation@@@PAPAN11@Z 
01:0001405C $listSum$geneticPopulation$predicate$(i,i,o)$c$_m12 
01:000140E4 ?_findbestCell@geneticPopulation_class@@SAXQAVgeneticPopulation@@@PAPAVgeneticCell@@@PAPAN@Z 
01:00014234 ?_reproduction@geneticPopulation_class@@SAXQAVgeneticPopulation@@@PAPAV2@@@Z 
01:00014604 ?_cellAtRandom@geneticPopulation_class@@SAXQAVgeneticPopulation@@@PAPAVgeneticCell@@@@Z 
01:000146E4 ?_mutation@geneticPopulation_class@@SAXQAVgeneticPopulation@@@PAPAV2@@@Z 
01:00014758 ?mutateCellWithProba@geneticPopulation_class@@SAXQAVgeneticPopulation@@@QAVgeneticCell@@@@Z 
01:0001480C ?extract@geneticPopulation_class@@SAXQAVgeneticPopulation@@@QAVgeneticCell@@@@Z 
01:00014A3C ?isFull@geneticPopulation_class@@SAXQAVgeneticPopulation@@@@Z 
01:00014A9C ?_crossover@geneticPopulation_class@@SAXQAVgeneticPopulation@@@PAPAV2@@@Z 
01:00014B24 ?performsCrossover@geneticPopulation_class@@SAXQAVgeneticPopulation@@@@Z 
01:00014C40 ?_getBestFitness@geneticPopulation_class@@SAXQAVgeneticPopulation@@@PAPAN@Z 
01:00014D10 ?_toString@geneticPopulation_class@@SAXQAVgeneticPopulation@@@PAPB_W@Z 
01:00014E14 ?_lsToString@geneticPopulation_class@@SAXQAVgeneticPopulation@@@PAU?$__list_struct@Ud_soluce@@@@PAPB_W@Z 
01:00014F08 ?_new@geneticPopulation_class@@SAXIPAPAVgeneticPopulation@@@@Z 
01:00014F34 ?_object_facts_initializer@geneticPopulation_class@@SGXQAVgeneticPopulation@@@@Z 
01:00014F78 ?classInfo@geneticAlgorithm_class@@SAXPAPB_W0@Z  (Idle)
01:00014F94 ?new@geneticAlgorithm_class@@SAXQAVgeneticAlgorithm@@@@Z 
01:00014FD8 ?setPopulationSize@geneticAlgorithm_class@@SAXQAVgeneticAlgorithm@@@I@Z 
01:0001506C ?setMutationRate@geneticAlgorithm_class@@SAXQAVgeneticAlgorithm@@@PAN@Z 
01:000150A0 ?setDrawMonitor@geneticAlgorithm_class@@SAXQAVgeneticAlgorithm@@@QAVgenDraw@@@@Z 
01:000150BC ?_getSize@geneticAlgorithm_class@@SAXQAVgeneticAlgorithm@@@PAI@Z 
01:000150EC ?_getTheBestCell@geneticAlgorithm_class@@SAXQAVgeneticAlgorithm@@@PAPAVgeneticCell@@@@Z 
01:0001512C ?resetPopulation@geneticAlgorithm_class@@SAXQAVgeneticAlgorithm@@@@Z 
01:00015178 ?addCell@geneticAlgorithm_class@@SAXQAVgeneticAlgorithm@@@QAVgeneticCell@@@H@Z 
01:000151AC ?drawFitness@geneticAlgorithm_class@@SAXQAVgeneticAlgorithm@@@@Z 
01:000152A8 ?nextGeneration@geneticAlgorithm_class@@SAXQAVgeneticAlgorithm@@@@Z 
01:00015384 ?nextNGenerations@geneticAlgorithm_class@@SAXQAVgeneticAlgorithm@@@H@Z 
01:000153D8 ?nextGenerations@geneticAlgorithm_class@@SAXQAVgeneticAlgorithm@@@X@Z 
01:00015468 ?buildGeneration@geneticAlgorithm_class@@SAXQAVgeneticAlgorithm@@@X@Z 
01:00015550 ?resetGeneration@geneticAlgorithm_class@@SAXQAVgeneticAlgorithm@@@@Z 
01:00015578 ?_getGeneration@geneticAlgorithm_class@@SAXQAVgeneticAlgorithm@@@PAI@Z 
01:000155A8 ?_getPopulation@geneticAlgorithm_class@@SAXQAVgeneticAlgorithm@@@PAPAVgeneticPopulation@@@@Z 
01:000155D8 ?_toString@geneticAlgorithm_class@@SAXQAVgeneticAlgorithm@@@PAPB_W@Z 
--- From 'Obj\genetic.obj'
01:000156CC ?_new@geneticAlgorithm_class@@SAXPAPAVgeneticAlgorithm@@@@Z 
--- From 'Obj\vp_genetic.obj'
01:000156F4 ?_object_facts_initializer@geneticAlgorithm_class@@SGXQAVgeneticAlgorithm@@@@Z 
01:00015730 ?_initObject@geneticPopulation@@QAGXQAV1@H@Z 
01:0001575C ?@create_object@geneticPopulation_class@@SGQAVgeneticPopulation@@@XZ 
01:00015778 ?_InternalFinalizer@geneticPopulation@@QAGXQAV1@@Z 
01:0001578C ?_initObject@geneticAlgorithm@@QAGXQAV1@H@Z 
01:000157B8 ?@create_object@geneticAlgorithm_class@@SGQAVgeneticAlgorithm@@@XZ 
01:000157D4 ?_InternalFinalizer@geneticAlgorithm@@QAGXQAV1@@Z 
--- From 'Obj\genDraw.obj'
01:000157E0 ?classInfo@genDraw_class@@SAXPAPB_W0@Z  (Idle)
01:000157FC ?bestFitness@genDraw_class@@SAXQAVgenDraw@@@QAVgeneticCell@@@PANPANPANI@Z 
01:00015A24 ?updateGraph@genDraw_class@@SAXQAVgenDraw@@@@Z 
01:00015A5C ?new@genDraw_class@@SAXQAVgenDraw@@@QAVcontainerWindow@@@@Z 
01:00015A7C ?new@genDraw_class@@SAXQAVgenDraw@@@@Z 
01:00015A98 ?reset@genDraw_class@@SAXQAVgenDraw@@@@Z 
01:00015AF4 ?findMinMax@genDraw_class@@SAXQAVgenDraw@@@PAIPAPAN2@Z 
01:00015D64 ?cvt@genDraw_class@@SAXQAVgenDraw@@@PANIPAHPAH@Z 
01:00015FE8 ?onPaint@genDraw_class@@SAXQAVgenDraw@@@QAVdrawWindow@@@PAUrct_struct@vpiDomains_class@@QAVwindowGDI@@@@Z 
01:00017574 ?onSize@genDraw_class@@SAXQAVgenDraw@@@QAVwindow@@@@Z 
01:00017580 ?onShow@genDraw_class@@SAXQAVgenDraw@@@QAVwindow@@@H@Z 
01:00017588 ?_onEraseBackground@genDraw_class@@SAXQAVgenDraw@@@QAVdrawWindow@@@QAVwindowGDI@@@PAPAUeraseBackgroundResponse_struct@drawWindow_class@@@Z 
01:0001759C ?generatedInitialize@genDraw_class@@SAXQAVgenDraw@@@@Z 
01:000176A8 ?_new@genDraw_class@@SAXPAPAVgenDraw@@@@Z  (Idle)
--- From 'Obj\interface.obj'
01:000176D0 ?_new@genDraw_class@@SAXQAVcontainerWindow@@@PAPAVgenDraw@@@@Z 
--- From 'Obj\genDraw.obj'
01:000176FC ?_object_facts_initializer@genDraw_class@@SGXQAVgenDraw@@@@Z 
01:00018ED0 ?_initObject@genDraw@@QAGXQAV1@H@Z 
01:00018F18 ?@create_object@genDraw_class@@SGQAVgenDraw@@@XZ 
01:00018F34 ?_InternalFinalizer@genDraw@@QAGXQAV1@@Z 
--- From 'Obj\genetic.obj'
01:00018F50 ?classInfo@geneticProcess_class@@SAXPAPB_W0@Z  (Idle)
01:00018F6C ?_getLogFilename@geneticProcess_class@@SAXPAPB_W@Z  (Idle)
01:00018F80 ?setLogFilename@geneticProcess_class@@SAXPB_W@Z  (Idle)
01:00018F90 ?_getLogType@geneticProcess_class@@SAXPAPAUlogtype_struct@logger_class@@@Z  (Idle)
01:00018FA4 ?setLogType@geneticProcess_class@@SAXPAUlogtype_struct@logger_class@@@Z  (Idle)
--- From 'Obj\interface.obj'
01:00018FB4 ?_run@geneticProcess_class@@SAXQAVgenDraw@@@PAPAVcell@@@@Z 
--- From 'Obj\genetic.obj'
01:000193DC ?_genNewRandomCell@geneticProcess_class@@SAXPAPAVgeneticCell@@@@Z 
01:0001941C ?genControl@geneticProcess_class@@SAXQAVgeneticAlgorithm@@@@Z 
01:00019774 ?_class_facts_initializer@geneticProcess_class@@SGXXZ 
01:000197A0 ?classInfo@geneticSettings_class@@SAXPAPB_W0@Z  (Idle)
--- From 'Obj\interface.obj'
01:000197BC ?setMutationRate@geneticSettings_class@@SAXPAN@Z 
--- From 'Obj\genetic.obj'
01:000197D8 ?_getMutationRate@geneticSettings_class@@SAXPAPAN@Z 
--- From 'Obj\interface.obj'
01:00019804 ?setPopulationSize@geneticSettings_class@@SAXI@Z 
--- From 'Obj\genetic.obj'
01:0001982C ?_getPopulationSize@geneticSettings_class@@SAXPAI@Z 
--- From 'Obj\interface.obj'
01:0001985C ?setGenerationsNumber@geneticSettings_class@@SAXI@Z 
--- From 'Obj\genetic.obj'
01:00019884 ?_getGenerationsNumber@geneticSettings_class@@SAXPAI@Z 
--- From 'Obj\interface.obj'
01:000198B4 ?setCriticalMeanFitness@geneticSettings_class@@SAXPAN@Z 
--- From 'Obj\genetic.obj'
01:000198D0 ?_getCriticalMeanFitness@geneticSettings_class@@SAXPAPAN@Z 
--- From 'Obj\interface.obj'
01:000198FC ?setCriticalFitness@geneticSettings_class@@SAXPAN@Z 
--- From 'Obj\genetic.obj'
01:00019918 ?_getCriticalFitness@geneticSettings_class@@SAXPAPAN@Z 
01:00019944 ?_class_facts_initializer@geneticSettings_class@@SGXXZ 
--- From 'Obj\fuzzy.obj'
01:00019970 ?classInfo@fuzzyInference_class@@SAXPAPB_W0@Z 
01:0001998C ?new@fuzzyInference_class@@SAXQAVfuzzyInference@@@@Z 
01:00019A0C ?new@fuzzyInference_class@@SAXQAVfuzzyInference@@@I@Z 
01:00019A8C ?addRule@fuzzyInference_class@@SAXQAVfuzzyInference@@@QAVfuzzyRule@@@@Z 
01:00019AF4 $addRuleList$fuzzyInference$predicate$(i,i)$c$_m2 
01:00019B3C ?addInVar@fuzzyInference_class@@SAXQAVfuzzyInference@@@QAVfvar@@@@Z 
01:00019C20 $addInVarList$fuzzyInference$predicate$(i,i)$c$_m4 
01:00019C68 ?addOutVar@fuzzyInference_class@@SAXQAVfuzzyInference@@@QAVfvar@@@@Z 
01:00019D4C $addOutVarList$fuzzyInference$predicate$(i,i)$c$_m6 
01:00019D94 ?_getInVar_nd@fuzzyInference_class@@SAXQAVfuzzyInference@@@PAPAVfvar@@@@Z 
01:00019DE0 ?_getOutVar_nd@fuzzyInference_class@@SAXQAVfuzzyInference@@@PAPAVfvar@@@@Z 
01:00019E2C ?_getRule_nd@fuzzyInference_class@@SAXQAVfuzzyInference@@@PAPAVfuzzyRule@@@@Z 
01:00019E78 ?tryGetInVar@fuzzyInference_class@@SAXQAVfuzzyInference@@@PB_WPAPAVfvar@@@@Z 
01:00019EF0 ?tryGetOutVar@fuzzyInference_class@@SAXQAVfuzzyInference@@@PB_WPAPAVfvar@@@@Z 
01:00019F68 ?_getInVar@fuzzyInference_class@@SAXQAVfuzzyInference@@@PB_WPAPAVfvar@@@@Z 
01:0001A030 ?_getOutVar@fuzzyInference_class@@SAXQAVfuzzyInference@@@PB_WPAPAVfvar@@@@Z 
01:0001A0F8 ?clearInVar@fuzzyInference_class@@SAXQAVfuzzyInference@@@PB_W@Z 
01:0001A250 ?removeAllOutVars@fuzzyInference_class@@SAXQAVfuzzyInference@@@@Z 
01:0001A2FC ?setInVarValue@fuzzyInference_class@@SAXQAVfuzzyInference@@@PB_WPAN@Z 
01:0001A3A0 ?aggregate@fuzzyInference_class@@SAXQAVfuzzyInference@@@QAVfuzzyRule@@@@Z 
01:0001A4E0 ?getVarAndValueToAggregate@fuzzyInference_class@@SAXQAVfuzzyInference@@@PB_W1PAPAVfvar@@@PAPAVfset@@@@Z 
01:0001A5E0 ?_findMinTempValue@fuzzyInference_class@@SAXQAVfuzzyInference@@@PAPAN@Z 
01:0001A700 ?aggregateAll@fuzzyInference_class@@SAXQAVfuzzyInference@@@@Z 
01:0001A768 ?evaluateAll@fuzzyInference_class@@SAXQAVfuzzyInference@@@@Z 
01:0001A80C ?defuzzy@fuzzyInference_class@@SAXQAVfuzzyInference@@@QAVfvar@@@@Z 
01:0001A978 ?defuzzyAll@fuzzyInference_class@@SAXQAVfuzzyInference@@@@Z 
01:0001A9E0 ?defuzzy_byIDList@fuzzyInference_class@@SAXQAVfuzzyInference@@@PAU?$__list_struct@Usymbol@@@@@Z 
01:0001AA3C ?evaluate_byIDList@fuzzyInference_class@@SAXQAVfuzzyInference@@@PAU?$__list_struct@Usymbol@@@@@Z 
01:0001AAB0 ?evaluate@fuzzyInference_class@@SAXQAVfuzzyInference@@@PB_WPAPAVfset@@@@Z 
01:0001AD40 ?inference@fuzzyInference_class@@SAXQAVfuzzyInference@@@QAVfvar@@@QAVfset@@@PANPAPAV4@@@Z 
01:0001AE54 ?addPointsToFSet@fuzzyInference_class@@SAXQAVfuzzyInference@@@PANPANQAVfset@@@PANIQAVfset_ByArray@@@@Z 
--- From 'Obj\core_logic.obj'
01:0001AF4C ?_new@fuzzyInference_class@@SAXPAPAVfuzzyInference@@@@Z 
01:0001AF74 ?_new@fuzzyInference_class@@SAXIPAPAVfuzzyInference@@@@Z 
--- From 'Obj\fuzzy.obj'
01:0001AFA0 ?_object_facts_initializer@fuzzyInference_class@@SGXQAVfuzzyInference@@@@Z 
01:0001AFE4 ?_rules_count@fuzzyInference_class@@SAXQAVfuzzyInference@@@PAH@Z 
01:0001B014 ?_in_vars_count@fuzzyInference_class@@SAXQAVfuzzyInference@@@PAH@Z 
01:0001B044 ?_out_vars_count@fuzzyInference_class@@SAXQAVfuzzyInference@@@PAH@Z 
01:0001B074 ?resolution@fuzzyInference_class@@SAXQAVfuzzyInference@@@I@Z 
01:0001B0A0 ?_resolution@fuzzyInference_class@@SAXQAVfuzzyInference@@@PAI@Z 
01:0001B0D0 ?classInfo@fuzzyRule_class@@SAXPAPB_W0@Z  (Idle)
01:0001B0EC ?new@fuzzyRule_class@@SAXQAVfuzzyRule@@@@Z 
01:0001B15C ?_certainty@fuzzyRule_class@@SAXQAVfuzzyRule@@@PAPAN@Z 
01:0001B18C ?certainty@fuzzyRule_class@@SAXQAVfuzzyRule@@@PAN@Z 
01:0001B1A8 ?addToLHS@fuzzyRule_class@@SAXQAVfuzzyRule@@@PAUfclause_struct@fuzzySupport_class@@@Z 
01:0001B210 ?addListToLHS@fuzzyRule_class@@SAXQAVfuzzyRule@@@PAU?$__list_struct@Ufclause@@@@@Z 
01:0001B258 ?addToRHS@fuzzyRule_class@@SAXQAVfuzzyRule@@@PAUfclause_struct@fuzzySupport_class@@@Z 
01:0001B2C0 ?addListToRHS@fuzzyRule_class@@SAXQAVfuzzyRule@@@PAU?$__list_struct@Ufclause@@@@@Z 
01:0001B308 ?_getLHSCount@fuzzyRule_class@@SAXQAVfuzzyRule@@@PAH@Z 
01:0001B338 ?_getRHSCount@fuzzyRule_class@@SAXQAVfuzzyRule@@@PAH@Z 
01:0001B368 ?_getLHSClause_nd@fuzzyRule_class@@SAXQAVfuzzyRule@@@PAPAUfclause_struct@fuzzySupport_class@@@Z 
01:0001B3B4 ?_getRHSClause_nd@fuzzyRule_class@@SAXQAVfuzzyRule@@@PAPAUfclause_struct@fuzzySupport_class@@@Z 
01:0001B400 ?_new@fuzzyRule_class@@SAXPAPAVfuzzyRule@@@@Z 
01:0001B428 ?_object_facts_initializer@fuzzyRule_class@@SGXQAVfuzzyRule@@@@Z 
01:0001B45C ?firing_strength@fuzzyRule_class@@SAXQAVfuzzyRule@@@PAN@Z 
01:0001B478 ?_firing_strength@fuzzyRule_class@@SAXQAVfuzzyRule@@@PAPAN@Z 
01:0001B4A8 ?classInfo@fset_ByArray_class@@SAXPAPB_W0@Z 
01:0001B4C4 ?new@fset_ByArray_class@@SAXQAVfset_ByArray@@@PB_W@Z 
01:0001B4E0 ?setPoint@fset_ByArray_class@@SAXQAVfset_ByArray@@@PANPAN@Z 
01:0001B5CC ?getPoint@fset_ByArray_class@@SAXQAVfset_ByArray@@@PANPAPAN@Z 
01:0001B62C ?removePoint@fset_ByArray_class@@SAXQAVfset_ByArray@@@PANPAPAN@Z 
01:0001B6E0 $getSortedPointList$fset_ByArray$predicate$(i,o)$c$_m8 
01:0001B810 ?_compareTuples@fset_ByArray_class@@SAXQAVfset_ByArray@@@PAXPAXPAPAUcompareResult_struct@_builtIn_class@@@Z 
01:0001B88C ?_get_membership@fset_ByArray_class@@SAXQAVfset@@@PANPAPAN@Z 
01:0001B994 $getSurroundPoints$fset_ByArray$predicate$(i,i,i,o)$c$_m9 
01:0001BBCC ?_interpolate@fset_ByArray_class@@SAXQAVfset_ByArray@@@PANPAXPAXPAPAN@Z 
01:0001BE14 ?_center_of_gravity@fset_ByArray_class@@SAXQAVfset@@@PANPANPAPAN@Z 
01:0001BE80 $calcSums$fset_ByArray$predicate$(i,i,o,o)$c$_m11 
01:0001C348 ?_new@fset_ByArray_class@@SAXPB_WPAPAVfset_ByArray@@@@Z 
01:0001C374 ?getPoint@fset_ByArray_class@@SAXQAVfset_ByArray@@@PAPAN1@Z 
01:0001C3C8 ?getPoint@fset_ByArray_class@@SAXQAVfset_ByArray@@@PAPANPAN@Z 
01:0001C424 ?getPoint@fset_ByArray_class@@SAXQAVfset_ByArray@@@PANPAN@Z 
01:0001C48C ?removePoint@fset_ByArray_class@@SAXQAVfset_ByArray@@@PAPANPAN@Z 
01:0001C53C ?removePoint@fset_ByArray_class@@SAXQAVfset_ByArray@@@PANPAN@Z 
01:0001C5FC ?_object_facts_initializer@fset_ByArray_class@@SGXQAVfset_ByArray@@@@Z 
01:0001C620 ?id@fset_ByArray_class@@SAXQAVfset@@@PB_W@Z 
01:0001C63C ?_id@fset_ByArray_class@@SAXQAVfset@@@PAPB_W@Z 
01:0001C66C ?classInfo@fuzzySupport_class@@SAXPAPB_W0@Z 
01:0001C688 ?_createSimpleRule@fuzzySupport_class@@SAXPB_W000PAPAVfuzzyRule@@@@Z  (Idle)
01:0001C704 ?continueWithMessage@fuzzySupport_class@@SAXPBUtraceId@exception@@PB_W@Z 
01:0001C790 ?continueWithMessage@fuzzySupport_class@@SAXXPBUtraceId@exception@@PB_W@Z 
01:0001C818 ?raiseWithMessage@fuzzySupport_class@@SAXPB_W@Z 
01:0001C89C ?raiseWithMessage@fuzzySupport_class@@SAXXPB_W@Z 
01:0001C91C ?debugRules@fuzzySupport_class@@SAXQAVfuzzyInference@@@@Z  (Idle)
01:0001C990 ?_toString_frule@fuzzySupport_class@@SAXQAVfuzzyRule@@@PAPB_W@Z 
01:0001CAF0 ?debugFVar@fuzzySupport_class@@SAXQAVfvar@@@@Z  (Idle)
01:0001CB30 ?_toString_fvar@fuzzySupport_class@@SAXQAV2@@PAPB_W@Z 
01:0001CE34 ?debugFSet@fuzzySupport_class@@SAXQAVfset@@@@Z  (Idle)
01:0001CE74 ?_toString_fset@fuzzySupport_class@@SAXQAV2@@PAPB_W@Z 
--- From 'Obj\core_logic.obj'
01:0001DA50 ?_toString_fclauseList@fuzzySupport_class@@SAXPAU?$__list_struct@Ufclause@fuzzySupport@@@@PAPB_W@Z 
--- From 'Obj\fuzzy.obj'
01:0001DAE0 ?_toString_fclause@fuzzySupport_class@@SAXPAUfclause_struct@1@PAPB_W@Z 
01:0001DB30 $sigmoidMF$fuzzySupport$predicate$(i,i,o)$_c16 
01:0001DC38 $triangleMF$fuzzySupport$predicate$(i,i,o)$_c17 
01:0001E018 $triangleLMF$fuzzySupport$predicate$(i,i,o)$_c18 
01:0001E220 $triangleRMF$fuzzySupport$predicate$(i,i,o)$_c19 
01:0001E428 $trapezoidMF$fuzzySupport$predicate$(i,i,o)$_c20 
01:0001EA14 $gaussianMF$fuzzySupport$predicate$(i,i,o)$_c21 
01:0001EB64 $bellMF$fuzzySupport$predicate$(i,i,o)$_c22 
01:0001ECE0 ?_getMaxFSet@fuzzySupport_class@@SAXQAVfset@@@0PAPAV2@@@Z 
01:0001EDD0 ?_class_facts_initializer@fuzzySupport_class@@SGXXZ 
01:0001EDE8 ?classInfo@fset_LR_class@@SAXPAPB_W0@Z 
01:0001EE04 ?new@fset_LR_class@@SAXQAVfset_LR@@@PB_W@Z 
01:0001EE20 ?_membership_function@fset_LR_class@@SAXQAVfset_LR@@@PAPAUmf_stored_struct@fuzzySupport_class@@@Z 
01:0001EE50 ?membership_function@fset_LR_class@@SAXQAVfset_LR@@@PAUmf_stored_struct@fuzzySupport_class@@@Z 
01:0001EE6C ?_center_of_gravity@fset_LR_class@@SAXQAVfset@@@PANPANPAPAN@Z 
01:0001F478 ?_get_membership@fset_LR_class@@SAXQAVfset@@@PANPAPAN@Z 
01:0001F578 ?_new@fset_LR_class@@SAXPB_WPAPAVfset_LR@@@@Z 
01:0001F5A4 ?_object_facts_initializer@fset_LR_class@@SGXQAVfset_LR@@@@Z 
01:0001F5C8 ?id@fset_LR_class@@SAXQAVfset@@@PB_W@Z 
01:0001F5E4 ?_id@fset_LR_class@@SAXQAVfset@@@PAPB_W@Z 
01:0001F614 ?classInfo@fvar_class@@SAXPAPB_W0@Z 
01:0001F630 ?new@fvar_class@@SAXQAVfvar@@@PB_WPANPAN@Z 
01:0001F668 ?_fvalue@fvar_class@@SAXQAVfvar@@@PAPAVfset@@@@Z 
01:0001F6F0 ?fvalue@fvar_class@@SAXQAVfvar@@@QAVfset@@@@Z 
01:0001F70C ?_xvalue@fvar_class@@SAXQAVfvar@@@PAPAN@Z 
01:0001F73C ?xvalue@fvar_class@@SAXQAVfvar@@@PAN@Z 
01:0001F758 ?_xmax@fvar_class@@SAXQAVfvar@@@PAPAN@Z 
01:0001F788 ?xmax@fvar_class@@SAXQAVfvar@@@PAN@Z 
01:0001F7A4 ?_xmin@fvar_class@@SAXQAVfvar@@@PAPAN@Z 
01:0001F7D4 ?xmin@fvar_class@@SAXQAVfvar@@@PAN@Z 
01:0001F7F0 ?addTerm@fvar_class@@SAXQAVfvar@@@PB_WQAVfset@@@@Z 
01:0001F910 $addTermList$fvar$predicate$(i,i)$c$_m12 
01:0001F964 ?_tryGetTerm@fvar_class@@SAXQAVfvar@@@PB_WPAPAVfset@@@@Z 
01:0001F9C0 ?_getTerm@fvar_class@@SAXQAVfvar@@@PB_WPAPAVfset@@@@Z 
01:0001FA9C ?getTerm_nd@fvar_class@@SAXQAVfvar@@@PAPB_WPAPAVfset@@@@Z 
01:0001FAF0 ?_tryGetMembership@fvar_class@@SAXQAVfvar@@@PB_WPAPAN@Z 
01:0001FB74 ?_new@fvar_class@@SAXPB_WPANPANPAPAVfvar@@@@Z 
01:0001FBA4 ?getTerm_nd@fvar_class@@SAXQAVfvar@@@PB_WPAPAVfset@@@@Z 
01:0001FBF8 ?_object_facts_initializer@fvar_class@@SGXQAVfvar@@@@Z 
01:0001FC34 ?id@fvar_class@@SAXQAVfvar@@@PB_W@Z 
01:0001FC50 ?_id@fvar_class@@SAXQAVfvar@@@PAPB_W@Z 
01:0001FC88 ?_initObject@fuzzyInference@@QAGXQAV1@H@Z 
01:0001FCB4 ?@create_object@fuzzyInference_class@@SGQAVfuzzyInference@@@XZ 
01:0001FCD0 ?_InternalFinalizer@fuzzyInference@@QAGXQAV1@@Z 
01:0001FCE4 ?_initObject@fuzzyRule@@QAGXQAV1@H@Z 
01:0001FD08 ?@create_object@fuzzyRule_class@@SGQAVfuzzyRule@@@XZ 
01:0001FD24 ?_InternalFinalizer@fuzzyRule@@QAGXQAV1@@Z 
01:0001FD38 ?_initObject@fset_ByArray@@QAGXQAV1@H@Z 
01:0001FD5C ?@create_object@fset_ByArray_class@@SGQAVfset_ByArray@@@XZ 
01:0001FD78 ?_InternalFinalizer@fset_ByArray@@QAGXQAV1@@Z 
01:0001FD8C ?_initObject@fset_LR@@QAGXQAV1@H@Z 
01:0001FDAC ?@create_object@fset_LR_class@@SGQAVfset_LR@@@XZ 
01:0001FDC8 ?_InternalFinalizer@fset_LR@@QAGXQAV1@@Z 
01:0001FDDC ?_initObject@fvar@@QAGXQAV1@H@Z 
01:0001FE08 ?@create_object@fvar_class@@SGQAVfvar@@@XZ 
01:0001FE24 ?_InternalFinalizer@fvar@@QAGXQAV1@@Z 
--- From 'Obj\core_logic.obj'
01:0001FE30 ?classInfo@alifeSettings_class@@SAXPAPB_W0@Z  (Idle)
01:0001FE4C ?_getTargetEnding@alifeSettings_class@@SAXPAPAUending_struct@1@@Z 
--- From 'Obj\interface.obj'
01:0001FE78 ?setTargetEnding@alifeSettings_class@@SAXPAUending_struct@1@@Z 
--- From 'Obj\core_logic.obj'
01:0001FE94 ?_getLifeLength@alifeSettings_class@@SAXPAH@Z 
--- From 'Obj\interface.obj'
01:0001FEA8 ?setLifeLength@alifeSettings_class@@SAXH@Z 
--- From 'Obj\core_logic.obj'
01:0001FEB8 ?_getMainLogType@alifeSettings_class@@SAXPAPAUlogtype_struct@logger_class@@@Z 
--- From 'Obj\interface.obj'
01:0001FECC ?setMainLogType@alifeSettings_class@@SAXPAUlogtype_struct@logger_class@@@Z 
--- From 'Obj\core_logic.obj'
01:0001FEDC ?_getFuzzyMindResolution@alifeSettings_class@@SAXPAI@Z 
--- From 'Obj\interface.obj'
01:0001FEF0 ?setFuzzyMindResolution@alifeSettings_class@@SAXI@Z 
--- From 'Obj\core_logic.obj'
01:0001FF00 ?_getMainLogFilenamePrefix@alifeSettings_class@@SAXPAPB_W@Z 
01:0001FF14 ?setMainLogFilenamePrefix@alifeSettings_class@@SAXPB_W@Z  (Idle)
01:0001FF24 ?_getActionListLogFilenamePrefix@alifeSettings_class@@SAXPAPB_W@Z 
01:0001FF38 ?setActionListLogFilenamePrefix@alifeSettings_class@@SAXPB_W@Z  (Idle)
01:0001FF48 ?_getRealityStateLogFilename@alifeSettings_class@@SAXPAPB_W@Z 
01:0001FF5C ?setRealityStateLogFilename@alifeSettings_class@@SAXPB_W@Z  (Idle)
01:0001FF6C ?isDumpReality@alifeSettings_class@@SAXXZ 
01:0001FF88 ?setIfDumpReality@alifeSettings_class@@SAXPAUboolean_struct@_builtIn_class@@@Z  (Idle)
01:0001FF98 ?isDumpCurrentIndividual@alifeSettings_class@@SAXXZ 
01:0001FFB4 ?setIfDumpCurrentIndividual@alifeSettings_class@@SAXPAUboolean_struct@_builtIn_class@@@Z  (Idle)
01:0001FFC4 ?_getCurrentIndividualLogFilename@alifeSettings_class@@SAXPAPB_W@Z 
01:0001FFD8 ?setCurrentIndividualLogFilename@alifeSettings_class@@SAXPB_W@Z  (Idle)
01:0001FFE8 ?_class_facts_initializer@alifeSettings_class@@SGXXZ 
01:00020060 ?classInfo@alife_class@@SAXPAPB_W0@Z 
--- From 'Obj\interface.obj'
01:0002007C ?initReality@alife_class@@SAXXZ 
--- From 'Obj\core_logic.obj'
01:000200F8 ?dumpReality_checked@alife_class@@SAXQAVreality@@@@Z 
01:00020188 ?dumpReality@alife_class@@SAXQAVreality@@@PAUlogtype_struct@logger_class@@PB_W@Z 
01:00020208 $newFuzzyMind$alife$predicate$(i,i,i,o)$c$_m10 
01:000202B0 ?errorhalt@alife_class@@SAXPBUtraceID@exception@@QAVlogger@@@PB_W2@Z 
01:00020350 ?dumpIndividualObject_checked@alife_class@@SAXQAVindividual@@@PB_W@Z 
01:000203E8 ?dumpIndividualObject@alife_class@@SAXQAVindividual@@@PB_WPAUlogtype_struct@logger_class@@1@Z 
--- From 'Obj\interface.obj'
01:0002050C ?_simulateLife@alife_class@@SAXPAU?$__list_struct@Uunsigned@@@@PAPAVindividual@@@PAPAN@Z 
--- From 'Obj\core_logic.obj'
01:0002111C ?_repeatChoice@alife_class@@SAXQAVindividual@@@QAVfuzzyInference@@@HPAPAV2@@@Z 
01:000214C0 $changeMind$alife$predicate$(i,i,o)$c$_m15 
01:00021738 ?_getTopPriorityAction@alife_class@@SAXQAVfuzzyInference@@@PAU?$__list_struct@Usymbol@@@@PAPB_W@Z 
01:00021808 ?_getVarWithMaxXValue@alife_class@@SAXQAVfuzzyInference@@@PAU?$__list_struct@Usymbol@@@@PANPB_WPAPB_W@Z 
01:00021978 ?_evaluateResults@alife_class@@SAXQAVreality@@@PAPAN@Z 
01:00021AD0 ?_evaluateRequirements@alife_class@@SAXQAVreality@@@PAU?$__list_struct@Ufclause@fuzzySupport@@@@PANPANPAPAN@Z 
01:00022020 $toString_paramChangeList$alife$predicate$(i,o)$_c6 
01:00022098 ?_toString_paramChange@alife_class@@SAXPAXPAPB_W@Z 
01:000220E8 ?_toString_ending@alife_class@@SAXPAUending_struct@alifeSettings_class@@PAPB_W@Z 
01:00022160 ?_toString_individParams@alife_class@@SAXQAVindividual@@@PAPB_W@Z 
01:00022214 ?_class_facts_initializer@alife_class@@SGXXZ 
--- From 'Obj\main.obj'
01:00022240 ?classInfo@main_class@@SAXPAPB_W0@Z  (Idle)
01:0002225C ?run@main_class@@SAXXZ 
--- From '.\Release\VIPDll.obj'
01:00022284 _PROLOG_Goal 
--- From 'Obj\interface.obj'
01:000222A0 ?classInfo@fmViewIndividual_class@@SAXPAPB_W0@Z  (Idle)
01:000222BC ?_display@fmViewIndividual_class@@SAXQAVwindow@@@PAPAVfmViewIndividual@@@@Z 
01:000222E4 ?new@fmViewIndividual_class@@SAXQAVfmViewIndividual@@@QAVwindow@@@@Z 
01:00022304 ?onShow@fmViewIndividual_class@@SAXQAVfmViewIndividual@@@QAVwindow@@@H@Z 
01:000223C4 ?convertPhenotypeToPolygonalMeterData@fmViewIndividual_class@@SAXQAVfmViewIndividual@@@PAU?$__list_struct@Uunsigned@@@@PAPAU?$__list_struct@Ucorner_value@@@@@Z 
01:00022814 ?showIndivid@fmViewIndividual_class@@SAXQAVfmViewIndividual@@@PAU?$__list_struct@Uunsigned@@@@QAVindividual@@@@Z 
01:00022930 ?onVertScrollScroll@fmViewIndividual_class@@SAXQAVfmViewIndividual@@@QAVscrollControl@@@HH@Z 
01:00022950 ?_onBtnOpenActionListLogClick@fmViewIndividual_class@@SAXQAVfmViewIndividual@@@QAVbutton@@@PAPAUactionResponse_struct@button_class@@@Z 
01:00022964 ?generatedInitialize@fmViewIndividual_class@@SAXQAVfmViewIndividual@@@@Z 
01:00022DC8 ?generatedOnShow@fmViewIndividual_class@@SAXQAVfmViewIndividual@@@QAVwindow@@@H@Z 
01:00022DD0 ?_new@fmViewIndividual_class@@SAXQAVwindow@@@PAPAVfmViewIndividual@@@@Z 
01:00022DFC ?classInfo@paramMeter_class@@SAXPAPB_W0@Z  (Idle)
01:00022E18 ?new@paramMeter_class@@SAXQAVparamMeter@@@QAVcontainerWindow@@@@Z 
01:00022E38 ?new@paramMeter_class@@SAXQAVparamMeter@@@@Z 
01:00022E60 ?init@paramMeter_class@@SAXQAVparamMeter@@@@Z 
01:00022EA8 ?setValue@paramMeter_class@@SAXQAVparamMeter@@@PB_WPAUparamMeterValue_struct@1@@Z 
01:00023014 $setValueList$paramMeter$predicate$(i,i)$c$_m3 
01:00023084 ?getValue_nd@paramMeter_class@@SAXQAVparamMeter@@@PB_WPAPAN222@Z 
01:00023154 ?initScrollControl@paramMeter_class@@SAXQAVparamMeter@@@QAVscrollControl@@@@Z 
01:00023284 ?scrollByValuesCount@paramMeter_class@@SAXQAVparamMeter@@@H@Z 
01:000233C4 ?scrollByScrollEventParameters@paramMeter_class@@SAXQAVparamMeter@@@QAVscrollControl@@@HH@Z 
01:00023714 ?onPaint@paramMeter_class@@SAXQAVparamMeter@@@QAVdrawWindow@@@PAUrct_struct@vpiDomains_class@@QAVwindowGDI@@@@Z 
01:000239C4 ?_drawParamBar@paramMeter_class@@SAXQAVwindowGDI@@@PB_WPAUparamMeterValue_struct@1@HPAH@Z 
01:00024010 ?checkedFillBarRegion_unchanged@paramMeter_class@@SAXQAVwindowGDI@@@PAUpnt_struct@vpiDomains_class@@1H@Z 
01:00024174 ?checkedFillBarRegion_background@paramMeter_class@@SAXQAVwindowGDI@@@PAUpnt_struct@vpiDomains_class@@1H@Z 
01:000242D8 ?checkedFillBarRegion_change@paramMeter_class@@SAXQAVwindowGDI@@@PAUpnt_struct@vpiDomains_class@@1H@Z 
01:000245BC ?onSize@paramMeter_class@@SAXQAVparamMeter@@@QAVwindow@@@@Z 
01:000245E0 ?_onEraseBackground@paramMeter_class@@SAXQAVparamMeter@@@QAVdrawWindow@@@QAVwindowGDI@@@PAPAUeraseBackgroundResponse_struct@drawWindow_class@@@Z 
01:000245F4 ?generatedInitialize@paramMeter_class@@SAXQAVparamMeter@@@@Z 
01:000246D4 ?_new@paramMeter_class@@SAXPAPAVparamMeter@@@@Z  (Idle)
01:000246FC ?_new@paramMeter_class@@SAXQAVcontainerWindow@@@PAPAVparamMeter@@@@Z 
01:00024728 ?getValue_nd@paramMeter_class@@SAXQAVparamMeter@@@PAPB_WPAPAN222@Z 
01:000247F8 ?_object_facts_initializer@paramMeter_class@@SGXQAVparamMeter@@@@Z 
01:0002482C ?_values_count@paramMeter_class@@SAXQAVparamMeter@@@PAH@Z 
01:0002485C ?scrolled_to_value_nmb@paramMeter_class@@SAXQAVparamMeter@@@H@Z 
01:00024888 ?_scrolled_to_value_nmb@paramMeter_class@@SAXQAVparamMeter@@@PAH@Z 
01:000248B8 ?classInfo@polygonalMeter_class@@SAXPAPB_W0@Z  (Idle)
01:000248D4 ?new@polygonalMeter_class@@SAXQAVpolygonalMeter@@@QAVcontainerWindow@@@@Z 
01:000248F4 ?new@polygonalMeter_class@@SAXQAVpolygonalMeter@@@@Z 
01:0002492C ?_cornerCount@polygonalMeter_class@@SAXQAVpolygonalMeter@@@PAI@Z 
01:0002495C ?cornerCount@polygonalMeter_class@@SAXQAVpolygonalMeter@@@I@Z 
01:00024988 ?_steps@polygonalMeter_class@@SAXQAVpolygonalMeter@@@PAI@Z 
01:000249B8 ?steps@polygonalMeter_class@@SAXQAVpolygonalMeter@@@I@Z 
01:000249E4 ?_values@polygonalMeter_class@@SAXQAVpolygonalMeter@@@PAPAU?$__list_struct@Ucorner_value@@@@@Z 
01:00024A14 ?values@polygonalMeter_class@@SAXQAVpolygonalMeter@@@PAU?$__list_struct@Ucorner_value@@@@@Z 
01:00024A30 ?_minvalue@polygonalMeter_class@@SAXQAVpolygonalMeter@@@PAH@Z 
01:00024A60 ?minvalue@polygonalMeter_class@@SAXQAVpolygonalMeter@@@H@Z 
01:00024A8C ?_maxvalue@polygonalMeter_class@@SAXQAVpolygonalMeter@@@PAH@Z 
01:00024ABC ?maxvalue@polygonalMeter_class@@SAXQAVpolygonalMeter@@@H@Z 
01:00024AE8 ?init@polygonalMeter_class@@SAXQAVpolygonalMeter@@@IIPAU?$__list_struct@Ucorner_value@@@@HH@Z 
01:00024B7C ?_calcCorners@polygonalMeter_class@@SAXIIPAUpnt_struct@vpiDomains_class@@PANIPAU?$__list_struct@Upnt@@@@PAPAU?$__list_struct@U4@@@@Z 
01:00024D7C ?drawRadiuses@polygonalMeter_class@@SAXQAVwindowGDI@@@PAUpnt_struct@vpiDomains_class@@PAU?$__list_struct@Upnt@@@@@Z 
01:00024DCC ?drawPolygonalGrid@polygonalMeter_class@@SAXQAVwindowGDI@@@PAUpnt_struct@vpiDomains_class@@IIPAU?$__list_struct@Upnt@@@@@Z 
01:00024E70 ?_shrinkPolygon@polygonalMeter_class@@SAXPAUpnt_struct@vpiDomains_class@@PANPAU?$__list_struct@Upnt@@@@PAPAU?$__list_struct@U4@@@@Z 
01:0002501C ?_calcTextPos@polygonalMeter_class@@SAXIIPAXPAUpnt_struct@vpiDomains_class@@PAPAU23@@Z 
01:00025374 ?drawValueData@polygonalMeter_class@@SAXQAVwindowGDI@@@IIPAU?$__list_struct@Ucorner_value@@@@PAU?$__list_struct@Upnt@@@@@Z 
01:000254F8 ?drawValuePolygon@polygonalMeter_class@@SAXQAVwindowGDI@@@PAUpnt_struct@vpiDomains_class@@HHPAU?$__list_struct@Ucorner_value@@@@PAU?$__list_struct@Upnt@@@@@Z 
01:00025568 ?_calcValuePolygon@polygonalMeter_class@@SAXPAUpnt_struct@vpiDomains_class@@HHPAU?$__list_struct@Ucorner_value@@@@PAU?$__list_struct@Upnt@@@@4PAPAU?$__list_struct@U5@@@@Z 
01:000257C4 ?onPaint@polygonalMeter_class@@SAXQAVpolygonalMeter@@@QAVdrawWindow@@@PAUrct_struct@vpiDomains_class@@QAVwindowGDI@@@@Z 
01:00025D40 ?onSize@polygonalMeter_class@@SAXQAVpolygonalMeter@@@QAVwindow@@@@Z 
01:00025D54 ?_onEraseBackground@polygonalMeter_class@@SAXQAVpolygonalMeter@@@QAVdrawWindow@@@QAVwindowGDI@@@PAPAUeraseBackgroundResponse_struct@drawWindow_class@@@Z 
01:00025D68 ?generatedInitialize@polygonalMeter_class@@SAXQAVpolygonalMeter@@@@Z 
01:00025E44 ?_new@polygonalMeter_class@@SAXPAPAVpolygonalMeter@@@@Z  (Idle)
01:00025E6C ?_new@polygonalMeter_class@@SAXQAVcontainerWindow@@@PAPAVpolygonalMeter@@@@Z 
01:00025E98 ?_object_facts_initializer@polygonalMeter_class@@SGXQAVpolygonalMeter@@@@Z 
01:00025ED4 ?classInfo@dlgLogProperties_class@@SAXPAPB_W0@Z  (Idle)
01:00025EF0 ?_display@dlgLogProperties_class@@SAXQAVwindow@@@PAPAVdlgLogProperties@@@@Z  (Idle)
01:00025F18 ?new@dlgLogProperties_class@@SAXQAVdlgLogProperties@@@QAVwindow@@@@Z 
01:00025F38 ?generatedInitialize@dlgLogProperties_class@@SAXQAVdlgLogProperties@@@@Z 
01:0002624C ?_new@dlgLogProperties_class@@SAXQAVwindow@@@PAPAVdlgLogProperties@@@@Z 
01:00026278 ?classInfo@fmMain_class@@SAXPAPB_W0@Z 
01:00026294 ?_display@fmMain_class@@SAXQAVwindow@@@PAPAVfmMain@@@@Z 
01:000262BC ?new@fmMain_class@@SAXQAVfmMain@@@QAVwindow@@@@Z 
01:000262DC ?_extractFClause@fmMain_class@@SAXPB_WPAPAUfClause_struct@fuzzySupport_class@@@Z 
01:000263A4 ?_extractFClauseList@fmMain_class@@SAXPAU?$__list_struct@Ustring@@@@PAPAU?$__list_struct@UfClause@fuzzySupport@@@@@Z 
01:0002641C ?_extractEnding@fmMain_class@@SAXPB_W0PAPAUending_struct@alifeSettings_class@@@Z 
01:00026470 ?tryGetData@fmMain_class@@SAXQAVfmMain@@@@Z 
01:0002665C ?_onBtnProcessClick@fmMain_class@@SAXQAVfmMain@@@QAVbutton@@@PAPAUactionResponse_struct@button_class@@@Z 
01:0002672C ?generatedInitialize@fmMain_class@@SAXQAVfmMain@@@@Z 
01:00027114 ?generatedOnShow@fmMain_class@@SAXQAVfmMain@@@QAVwindow@@@H@Z 
01:0002711C ?_new@fmMain_class@@SAXQAVwindow@@@PAPAVfmMain@@@@Z 
01:00027148 ?classInfo@fmIDList_class@@SAXPAPB_W0@Z  (Idle)
01:00027164 ?_display@fmIDList_class@@SAXQAVwindow@@@PAPAVfmIDList@@@@Z 
01:0002718C ?new@fmIDList_class@@SAXQAVfmIDList@@@QAVwindow@@@@Z 
01:000271AC ?onShow@fmIDList_class@@SAXQAVfmIDList@@@QAVwindow@@@H@Z 
01:000272C0 ?generatedInitialize@fmIDList_class@@SAXQAVfmIDList@@@@Z 
01:0002763C ?generatedOnShow@fmIDList_class@@SAXQAVfmIDList@@@QAVwindow@@@H@Z 
01:00027644 ?_new@fmIDList_class@@SAXQAVwindow@@@PAPAVfmIDList@@@@Z 
01:00027670 ?classInfo@formBasic_class@@SAXPAPB_W0@Z 
01:0002768C ?_display@formBasic_class@@SAXQAVwindow@@@PAPAVformBasic@@@@Z 
01:000276B4 ?new@formBasic_class@@SAXQAVformBasic@@@QAVwindow@@@@Z 
01:000276D4 ?_extractFClause@formBasic_class@@SAXPB_WPAPAUfClause_struct@fuzzySupport_class@@@Z 
01:0002779C ?_extractFClauseList@formBasic_class@@SAXPAU?$__list_struct@Ustring@@@@PAPAU?$__list_struct@UfClause@fuzzySupport@@@@@Z 
01:00027814 ?_extractEnding@formBasic_class@@SAXPB_W0PAPAUending_struct@alifeSettings_class@@@Z 
01:00027868 ?_tryGetPhenotypeFromInput@formBasic_class@@SAXQAVformBasic@@@PAPAU?$__list_struct@Uunsigned@@@@@Z 
01:00027B18 ?trySetMainSettingsFromInput@formBasic_class@@SAXQAVformBasic@@@@Z 
01:00027C80 ?tryProcessPhenotype@formBasic_class@@SAXQAVformBasic@@@PAU?$__list_struct@Uunsigned@@@@PAPAVindividual@@@@Z 
01:00027DBC ?_getOutputStream@formBasic_class@@SAXPAPAVoutputStream@@@@Z 
01:00027E00 ?_onOkClick@formBasic_class@@SAXQAVformBasic@@@QAVbutton@@@PAPAUactionResponse_struct@button_class@@@Z 
01:00027EB4 ?onSize@formBasic_class@@SAXQAVformBasic@@@QAVwindow@@@@Z 
01:00027EBC ?_onBtnHelpWndClick@formBasic_class@@SAXQAVformBasic@@@QAVbutton@@@PAPAUactionResponse_struct@button_class@@@Z 
01:00027F00 ?checkInputValueByControl@formBasic_class@@SAXQAVformBasic@@@QAVeditControl@@@@Z 
01:00028180 ?isInclInputControl@formBasic_class@@SAXQAVformBasic@@@H@Z 
01:00028354 ?_constructResponceString_minmaxvalues@formBasic_class@@SAXPAXPAXPAPB_W@Z 
01:0002845C ?_checkValue@formBasic_class@@SAXPB_W0PAXPAXQAVoutputStream@@@PAPB_W@Z 
01:00028688 ?convertPhenotypeToPolygonalMeterData@formBasic_class@@SAXQAVformBasic@@@PAU?$__list_struct@Uunsigned@@@@PAPAU?$__list_struct@Ucorner_value@@@@@Z 
01:00028AD8 ?randomizeInclInputFields@formBasic_class@@SAXQAVformBasic@@@@Z 
01:00028C98 ?onShow@formBasic_class@@SAXQAVformBasic@@@QAVwindow@@@H@Z 
01:00028E70 ?onEditLoseFocus@formBasic_class@@SAXQAVformBasic@@@QAVwindow@@@@Z 
01:00028F4C ?generatedInitialize@formBasic_class@@SAXQAVformBasic@@@@Z 
01:0002A24C ?generatedOnShow@formBasic_class@@SAXQAVformBasic@@@QAVwindow@@@H@Z 
01:0002A254 ?_new@formBasic_class@@SAXQAVwindow@@@PAPAVformBasic@@@@Z 
01:0002C758 ?_initObject@fmViewIndividual@@QAGXQAV1@H@Z 
01:0002C794 ?@create_object@fmViewIndividual_class@@SGQAVfmViewIndividual@@@XZ 
01:0002C7B0 ?_InternalFinalizer@fmViewIndividual@@QAGXQAV1@@Z 
01:0002DEF8 ?_initObject@paramMeter@@QAGXQAV1@H@Z 
01:0002DF40 ?@create_object@paramMeter_class@@SGQAVparamMeter@@@XZ 
01:0002DF5C ?_InternalFinalizer@paramMeter@@QAGXQAV1@@Z 
01:0002F6A4 ?_initObject@polygonalMeter@@QAGXQAV1@H@Z 
01:0002F6EC ?@create_object@polygonalMeter_class@@SGQAVpolygonalMeter@@@XZ 
01:0002F708 ?_InternalFinalizer@polygonalMeter@@QAGXQAV1@@Z 
01:00030F00 ?_initObject@dlgLogProperties@@QAGXQAV1@H@Z 
01:00030F3C ?@create_object@dlgLogProperties_class@@SGQAVdlgLogProperties@@@XZ 
01:00030F58 ?_InternalFinalizer@dlgLogProperties@@QAGXQAV1@@Z 
01:00033440 ?_initObject@fmMain@@QAGXQAV1@H@Z 
01:0003347C ?@create_object@fmMain_class@@SGQAVfmMain@@@XZ 
01:00033498 ?_InternalFinalizer@fmMain@@QAGXQAV1@@Z 
01:00035980 ?_initObject@fmIDList@@QAGXQAV1@H@Z 
01:000359BC ?@create_object@fmIDList_class@@SGQAVfmIDList@@@XZ 
01:000359D8 ?_InternalFinalizer@fmIDList@@QAGXQAV1@@Z 
01:00037EC0 ?_initObject@formBasic@@QAGXQAV1@H@Z 
01:00037EFC ?@create_object@formBasic_class@@SGQAVformBasic@@@XZ 
01:00037F18 ?_InternalFinalizer@formBasic@@QAGXQAV1@@Z 
--- From 'Obj\time_api.obj'
01:00037F30 ?classInfo@time_api_class@@SAXPAPB_W0@Z 
--- From 'Obj\exception.obj'
01:00037F4C ?_getSystemTimeAsFileTime@time_api_class@@SAXPAPAUunsigned64_struct@core_class@@@Z 
01:00037F7C ?_fileTimeToSystemTime@time_api_class@@SAXPAUunsigned64_struct@core_class@@PAPAUsystemTime_struct@time_native_class@@@Z 
--- From 'Obj\time.obj'
01:00038060 ?_systemTimeToFileTime@time_api_class@@SAXPAUsystemTime_struct@time_native_class@@PAPAUunsigned64_struct@core_class@@@Z 
--- From 'Obj\exceptionDump.obj'
01:000384EC ?_fileTimeToLocalFileTime@time_api_class@@SAXPAUunsigned64_struct@core_class@@PAPAU23@@Z 
--- From 'Obj\time_api.obj'
01:000385D0 ?_localFileTimeToFileTime@time_api_class@@SAXPAUunsigned64_struct@core_class@@PAPAU23@@Z  (Idle)
--- From 'Obj\exception.obj'
01:000386B4 ?_getDateFormat@time_api_class@@SAXIIPAUsystemTime_struct@time_native_class@@PB_WPAPB_W@Z 
01:00038868 ?_getTimeFormat@time_api_class@@SAXIIPAUsystemTime_struct@time_native_class@@PB_WPAPB_W@Z 
--- From 'Obj\time.obj'
01:00038A1C ?_getLocaleInfo@time_api_class@@SAXIIPAPB_W@Z 
01:00038AA8 ?isLeapYear@time_api_class@@SAXI@Z 
--- From 'Obj\time_api.obj'
01:00038B18 ?cannotGetDateTimeFormat@time_api_class@@SAXPAXPAPB_W1@Z 
01:00038B40 ?cannotGetLocaleInfo@time_api_class@@SAXPAXPAPB_W1@Z 
01:00038B68 ?raise_CannotGetDateTimeFormat@time_api_class@@SGXXIIIIIIIIIIPB_WI@Z 
01:00038F5C ?raise_CannotGetLocaleInfo@time_api_class@@SGXXIII@Z 
--- From 'Obj\systemInformation_api.obj'
01:00039070 ?classInfo@systemInformation_api_class@@SAXPAPB_W0@Z 
01:0003908C ?isVersionWindows98@systemInformation_api_class@@SAXXZ  (Idle)
--- From 'Obj\environment.obj'
01:000390D8 ?getVersionEx@systemInformation_api_class@@SAXIPAIPAIPAIPAIPAPB_WPA_W66PAE@Z 
--- From 'Obj\string8_api.obj'
01:0003A820 ?classInfo@string8_api_class@@SAXPAPB_W0@Z 
--- From 'Obj\console.obj'
01:0003A83C ?toWideChar@string8_api_class@@SGXPAUcodePage_struct@core_class@@PADHPB_WH@Z 
01:0003A8CC ?_lenWideChar@string8_api_class@@SAXPAUcodePage_struct@core_class@@PADHPAH@Z 
01:0003A994 ?toMultiByte@string8_api_class@@SGXPAUcodePage_struct@core_class@@PB_WHPADH@Z 
01:0003AA2C ?_lenMultiByte@string8_api_class@@SAXPAUcodePage_struct@core_class@@PB_WHPAH@Z 
--- From 'Obj\string8_api.obj'
01:0003AAFC ?_toApiCodePage@string8_api_class@@SAXPAUcodePage_struct@core_class@@PAI@Z 
--- From 'Obj\runTime_api.obj'
01:0003AB40 ?classInfo@runtime_api_class@@SAXPAPB_W0@Z 
01:0003AB5C ?_determineOSV5@runtime_api_class@@SAXII_WPAPB_W@Z 
01:0003AE00 ?_determineOSV4@runtime_api_class@@SAXII_WPAPB_W@Z 
01:0003AEA8 ?_determineOSV6@runtime_api_class@@SAXII_WPAPB_W@Z 
01:0003AF08 ?_determineMajorVersion@runtime_api_class@@SAXIII_WPAPB_W@Z 
01:0003B018 ?_determineOSFamily@runtime_api_class@@SAXIPAPB_W@Z 
--- From 'Obj\environment.obj'
01:0003B1D8 ?getOSVersion@runtime_api_class@@SAXQAVoutputStream@@@@Z 
--- From 'Obj\runTime_api.obj'
01:0003CA84 ?_getSysInfo@runtime_api_class@@SAXPAPB_W@Z 
01:0003CB48 ?_getNativeSysInfo@runtime_api_class@@SAXPAPB_W@Z 
01:0003CC50 ?_getRegInfo@runtime_api_class@@SAXPAPB_W@Z 
01:0003CCF4 ?_getRegInfoK@runtime_api_class@@SAXPB_WPAPB_W@Z 
01:0003CD60 ?_printString@runtime_api_class@@SAXPAUvalue_struct@core_class@@PAPB_W@Z 
01:0003CDB8 ?_class_facts_initializer@runtime_api_class@@SGXXZ 
--- From 'Obj\registry.obj'
01:0003CDF0 ?_regOpenKeyEx@registry_api_class@@SAXIPB_WIPAI@Z 
01:0003CE30 ?_regTryOpenKeyEx@registry_api_class@@SAXIPB_WIPAI@Z 
01:0003CE5C ?regCloseKey@registry_api_class@@SAXI@Z 
01:0003CEE8 ?_regCreateKeyEx@registry_api_class@@SAXIPB_WIIPAUsecurityAttr_struct@registry_native_class@@PAIPAI@Z 
01:0003CF34 ?regDeleteKey@registry_api_class@@SAXIPB_W@Z 
01:0003CF70 ?_regEnumKeyEx@registry_api_class@@SAXIPAPAU?$__list_struct@Ustring@@@@@Z 
--- From 'Obj\registry_api.obj'
01:0003D008 ?_regEnumKeyEx1@registry_api_class@@SAXIIPB_WIPAPAU?$__list_struct@Ustring@@@@@Z 
01:0003D08C ?_tryRegEnumKeyExOne@registry_api_class@@SAXIIPB_WIPAPB_W@Z 
--- From 'Obj\registry.obj'
01:0003D1DC ?regSetValueEx@registry_api_class@@SAXIPB_WPAUvalue_struct@core_class@@@Z 
01:0003D244 ?_regQueryValueEx@registry_api_class@@SAXIPB_WPAPAUvalue_struct@core_class@@@Z 
01:0003D2BC ?_regTryQueryValueEx@registry_api_class@@SAXIPB_WPAPAUvalue_struct@core_class@@@Z 
--- From 'Obj\registry_api.obj'
01:0003D328 ?_regQueryValueEx1@registry_api_class@@SAXIPB_WPAUpUnsigned_struct@registry_native_class@@PAPAUvalue_struct@core_class@@@Z 
--- From 'Obj\registry.obj'
01:0003D3CC ?regDeleteValue@registry_api_class@@SAXIPB_W@Z 
01:0003D408 ?_regEnumValue@registry_api_class@@SAXIPAPAU?$__list_struct@UnamedValue@@@@@Z 
--- From 'Obj\registry_api.obj'
01:0003D4A0 ?_regEnumValue1@registry_api_class@@SAXIIPB_WIPAPAU?$__list_struct@UnamedValue@@@@@Z 
01:0003D524 ?_tryRegEnumValueOne@registry_api_class@@SAXIIPB_WIPAPAUnamedValue_struct@core_class@@@Z 
01:0003D8E8 ?_packValue@registry_api_class@@SAXIPAXIPAPAUvalue_struct@core_class@@@Z 
01:0003DB94 ?unpackValue@registry_api_class@@SAXPAUvalue_struct@core_class@@PAIPAPAXPAI@Z 
01:0003DF10 ?_convertToStringList@registry_api_class@@SAXPAXPAPAU?$__list_struct@Ustring@@@@@Z 
01:0003DFA8 ?_mk_pUnsigned@registry_api_class@@SAXIPAPAUpUnsigned_struct@registry_native_class@@@Z 
01:0003DFD0 ?_getInteger@registry_api_class@@SAXPAUpUnsigned_struct@registry_native_class@@PAH@Z 
01:0003DFF8 ?_getUnsigned@registry_api_class@@SAXPAUpUnsigned_struct@registry_native_class@@PAI@Z 
01:0003E00C ?check_name_value@registry_api_class@@SAXIPB_W1PAUvalue_struct@core_class@@@Z 
01:0003E0C8 ?check_name@registry_api_class@@SAXIPB_W1@Z 
01:0003E180 ?check@registry_api_class@@SAXIPB_WPAU?$__list_struct@UnamedValue@@@@@Z 
01:0003E1B8 ?classInfo@registry_api_class@@SAXPAPB_W0@Z 
--- From 'Obj\memory_api.obj'
01:0003E1E0 GetProcessMemoryInfo  (Idle)
--- From 'Obj\locale_api.obj'
01:0003E210 ?classInfo@locale_native_class@@SAXPAPB_W0@Z  (Idle)
01:0003E22C ?classInfo@locale_api_class@@SAXPAPB_W0@Z  (Idle)
01:0003E248 ?_makelcid@locale_api_class@@SAXIIPAI@Z  (Idle)
01:0003E274 ?_makelangid@locale_api_class@@SAXIIPAI@Z  (Idle)
--- From 'Obj\gui_api.obj'
01:0003E2A0 ?classInfo@gui_Native_class@@SAXPAPB_W0@Z  (Idle)
01:0003E2BC ?classInfo@gui_api_class@@SAXPAPB_W0@Z 
01:0003E2D8 ?getScrollRange@gui_api_class@@SAXPBUwindowHandle@vpiDomains@@IPAHPAH@Z  (Idle)
--- From 'Obj\fileSystem_api.obj'
01:0003E320 ?classInfo@fileSystem_api_class@@SAXPAPB_W0@Z 
01:0003E33C ?fileAttributeCorrespondence@fileSystem_api_class@@SAXPAUfileAttributeAtom_struct@1@PAI@Z 
--- From 'Obj\fileSystem.obj'
01:0003E3BC ?_toApiAttributes@fileSystem_api_class@@SAXPAU?$__list_struct@UfileAttributeAtom@@@@PAI@Z 
--- From 'Obj\fileSystem_api.obj'
01:0003E3EC ?_toApiAttributes@fileSystem_api_class@@SAXPAU?$__list_struct@UfileAttributeAtom@@@@IPAI@Z 
--- From 'Obj\fileSystem.obj'
01:0003E450 ?_fromApiAttributes@fileSystem_api_class@@SAXIPAPAU?$__list_struct@UfileAttributeAtom@@@@@Z 
--- From 'Obj\fileSystem_api.obj'
01:0003E4B4 ?convertToFileAttribute_nd@fileSystem_api_class@@SAXIPAPAUfileAttributeAtom_struct@1@@Z 
--- From 'Obj\fileSystem.obj'
01:0003E4F4 ?_createFile@fileSystem_api_class@@SAXPB_WIPAUaccessPermit_struct@1@IPAU?$__list_struct@UfileAttributeAtom@@@@AAUfileHandle@@@Z 
--- From 'Obj\fileSystem_api.obj'
01:0003E584 ?_toShareModeAPI@fileSystem_api_class@@SAXPAUaccessPermit_struct@1@PAI@Z 
--- From 'Obj\fileSystem.obj'
01:0003E5CC ?_getFileSize@fileSystem_api_class@@SAXPBUfileHandle@@PAPAUunsigned64_struct@core_class@@@Z 
01:0003E66C ?getFileSize@fileSystem_api_class@@SAXPBUfileHandle@@PAIPAI@Z 
01:0003E69C ?_setFilePointer@fileSystem_api_class@@SAXPBUfileHandle@@PAUinteger64_struct@core_class@@IPAPAUunsigned64_struct@4@@Z 
01:0003E740 ?_setFilePointer32@fileSystem_api_class@@SAXPBUfileHandle@@HIPAI@Z 
--- From 'Obj\fileSystem_api.obj'
01:0003E790 ?checkResult_filePointer_Short@fileSystem_api_class@@SAXIPBUfileHandle@@HI@Z 
01:0003E808 ?checkResult_fileSize@fileSystem_api_class@@SAXIPBUfileHandle@@@Z 
01:0003E858 ?checkResult_filePointer@fileSystem_api_class@@SAXIPBUfileHandle@@PAUinteger64_struct@core_class@@I@Z 
01:0003E8B0 ?getLastError@fileSystem_api_class@@SAXPAIPAPB_W@Z 
--- From 'Obj\fileSystem.obj'
01:0003E8D8 ?getVolumeInformation@fileSystem_api_class@@SAXPB_WPAPB_WPAI1@Z 
--- From 'Obj\fileSystem_api.obj'
01:0003E9DC ?cannotCreate@fileSystem_api_class@@SAXPAXPAPB_W1@Z 
01:0003EA04 ?cannotGetFileSize@fileSystem_api_class@@SAXPAXPAPB_W1@Z 
01:0003EA2C ?cannotSetFilePointer@fileSystem_api_class@@SAXPAXPAPB_W1@Z 
--- From 'Obj\fileSystem.obj'
01:0003EA54 ?raise_CannotCreate@fileSystem_api_class@@SGXXPB_WI1@Z 
--- From 'Obj\fileSystem_api.obj'
01:0003EB64 ?raise_CannotGetFileSize@fileSystem_api_class@@SGXXPBUfileHandle@@IPB_W@Z 
01:0003EC74 ?raise_CannotSetFilePointer@fileSystem_api_class@@SGXXPBUfileHandle@@PAUinteger64_struct@core_class@@IIPB_W@Z 
--- From 'Obj\console.obj'
01:0003EE24 ?crlf_lf@fileSystem_api_class@@SAXPAXHPAUboolean_struct@_builtIn_class@@PAPAXPAIPAPAU?$__list_struct@Uunsigned@@@@PAPAU23@@Z 
--- From 'Obj\fileSystem_api.obj'
01:0003EEA4 ?prepareSearch@fileSystem_api_class@@SAXIHPAIPAPAUboolean_struct@_builtIn_class@@@Z 
01:0003EF78 ?searchCRLF@fileSystem_api_class@@SAXIIIPAIPAPAU?$__list_struct@Uunsigned@@@@PAI@Z 
01:0003F120 ?_tryGetPositionOfCRLF@fileSystem_api_class@@SAXIHIPAI@Z 
01:0003F214 ?_convertCRLF_IfNeeded@fileSystem_api_class@@SAXPAUboolean_struct@_builtIn_class@@IIPAU?$__list_struct@Uunsigned@@@@IPAI@Z 
01:0003F480 ?checkFirstPos@fileSystem_api_class@@SAXIPAU?$__list_struct@Uunsigned@@@@IPAIPAIPAPAU?$__list_struct@U2@@@@Z 
01:0003F528 ?_mem_move@fileSystem_api_class@@SAXIIIPAI@Z 
01:0003F570 ?_mem_copy@fileSystem_api_class@@SAXIIIPAI@Z 
01:0003F5B8 ?convertCRLF_LF@fileSystem_api_class@@SAXXIIIPAU?$__list_struct@Uunsigned@@@@@Z 
--- From 'Obj\fileSystem.obj'
01:0003F678 ?crlf_lf@fileSystem_api_class@@SAXPB_W@Z 
--- From 'Obj\fileSystem_api.obj'
01:0003F69C ?do_CRLF_LF@fileSystem_api_class@@SAXII@Z 
--- From 'Obj\console.obj'
01:0003F784 ?lf_crlf@fileSystem_api_class@@SAXPAXHPAPAXPAH@Z 
--- From 'Obj\fileSystem_api.obj'
01:0003F834 ?_getSize@fileSystem_api_class@@SAXIHPAH@Z 
01:0003F89C ?searchLineFeeds@fileSystem_api_class@@SAXIHIPAIPAPAU?$__list_struct@Uunsigned@@@@PAH@Z 
01:0003F9F0 ?_convertToCRLF_IfNeeded@fileSystem_api_class@@SAXPAXHPAU?$__list_struct@Uunsigned@@@@HPAPAX@Z 
01:0003FA50 ?convertToCRLF@fileSystem_api_class@@SAXPAXPAXHPAU?$__list_struct@Uunsigned@@@@@Z 
01:0003FB00 ?fileAttributeCorrespondence@fileSystem_api_class@@SAXPAPAUfileAttributeAtom_struct@1@I@Z  (Idle)
01:0003FBDC ?fileAttributeCorrespondence@fileSystem_api_class@@SAXPAPAUfileAttributeAtom_struct@1@PAI@Z 
01:0003FD08 ?fileAttributeCorrespondence@fileSystem_api_class@@SAXPAUfileAttributeAtom_struct@1@I@Z  (Idle)
--- From 'Obj\fileSystem.obj'
01:0003FDBC SHGetSpecialFolderPathW 
01:0003FDE0 GetLongPathNameW 
--- From 'Obj\exe_api.obj'
01:0003FE10 ?_getModuleNameByAddress@exe_api_class@@SAXPBUhModule@@PAPB_W@Z  (Idle)
01:0003FEBC ?_isOSConsoleApplication@exe_api_class@@SAXPB_WPAPAUboolean_struct@_builtIn_class@@@Z  (Idle)
01:00040138 ?classInfo@exe_api_class@@SAXPAPB_W0@Z 
--- From 'Obj\console_api.obj'
01:00040160 ?classInfo@console_api_class@@SAXPAPB_W0@Z 
--- From 'Obj\console.obj'
01:0004017C ?_getStdHandle@console_api_class@@SAXIAAUfileHandle@@@Z 
--- From 'Obj\vpitoolbar.obj'
01:00040200 ?pictureGetSize@vpiToolbar_class@@SAXPAUbitmapId_struct@vpiDomains_class@@PAHPAH@Z 
01:00040240 ?toolbar_set_flagMouseDown@vpiToolbar_class@@SAXPBUwindowHandle@@@Z 
01:000402A4 ?toolbar_release_flagMouseDown@vpiToolbar_class@@SAXXZ 
01:000402E8 ?tooltip_firstTimeTimerHandler@vpiToolbar_class@@SAXPBUwindowHandle@@PBUtimerId@@@Z 
01:00040314 ?tooltip_ShowTimerHandler@vpiToolbar_class@@SAXPBUwindowHandle@@@Z 
01:000406D4 ?tooltip_HideTimerHandler@vpiToolbar_class@@SAXPBUwindowHandle@@H@Z 
01:000407DC ?_tooltip_handler@vpiToolbar_class@@SAXPBUwindowHandle@@PAUevent_struct@vpiDomains_class@@PAH@Z 
01:0004093C ?tooltip_create@vpiToolbar_class@@SAXPBUwindowHandle@@@Z 
01:00040A20 ?tooltip_register@vpiToolbar_class@@SAXPBUwindowHandle@@PAUrct_struct@vpiDomains_class@@PB_W@Z 
01:00040B4C ?tooltip_clean_up@vpiToolbar_class@@SAXPBUwindowHandle@@@Z 
01:00040C74 ?tooltip_validate_rect@vpiToolbar_class@@SAXPAUrct_struct@vpiDomains_class@@0PAPAU23@@Z 
01:00040D34 ?tooltip_validate@vpiToolbar_class@@SAXHHPAH@Z 
01:00040D64 ?tooltip_set_usage@vpiToolbar_class@@SAXXZ 
01:00040DDC ?tooltip_stop_usage@vpiToolbar_class@@SAXXZ 
01:00040E70 ?tooltip_check_first_time@vpiToolbar_class@@SAXXZ 
01:00040ED4 ?tooltip_check_first_time@vpiToolbar_class@@SAXPBUwindowHandle@@@Z 
01:00040F64 ?tooltip_check_mousemove@vpiToolbar_class@@SAXPBUwindowHandle@@PAUpnt_struct@vpiDomains_class@@@Z 
01:0004108C ?tooltip_check_mousetimer@vpiToolbar_class@@SAXPBUwindowHandle@@@Z 
01:00041354 ?tooltip_mouse_in_TB@vpiToolbar_class@@SAXPBUwindowHandle@@PAPAUpnt_struct@vpiDomains_class@@@Z 
01:0004142C ?hide_tooltip@vpiToolbar_class@@SAXPBUwindowHandle@@@Z 
01:00041578 ?tooltip_hide@vpiToolbar_class@@SAXXZ  (Idle)
01:000416A4 ?tooltip_change_if_not_current@vpiToolbar_class@@SAXPBUwindowHandle@@@Z 
01:0004175C ?tooltip_change_if_not_current@vpiToolbar_class@@SAXPBUwindowHandle@@PAUrct_struct@vpiDomains_class@@PB_WPAUpnt_struct@4@@Z 
01:0004186C ?tooltip_set_first_time_timer@vpiToolbar_class@@SAXPBUwindowHandle@@@Z 
01:000418C4 ?tooltip_kill_first_time_timer@vpiToolbar_class@@SAXXZ 
01:00041940 ?tooltip_set_show@vpiToolbar_class@@SAXPBUwindowHandle@@@Z 
01:0004199C ?tooltip_try_show@vpiToolbar_class@@SAXPBUwindowHandle@@H@Z 
01:00041AD8 ?tooltip_kill_show_timer@vpiToolbar_class@@SAXXZ 
01:00041B58 ?tooltip_set_hide_timer@vpiToolbar_class@@SAXPBUwindowHandle@@@Z 
01:00041BB8 ?tooltip_kill_hide_timer@vpiToolbar_class@@SAXXZ 
01:00041C34 ?tooltip_get_color@vpiToolbar_class@@SAXPAHPAH@Z 
01:00041C74 ?_tooltip_child_handler@vpiToolbar_class@@SAXPBUwindowHandle@@PAUevent_struct@vpiDomains_class@@PAH@Z 
01:00041E04 ?get_flag@vpiToolbar_class@@SAXHPAI@Z 
01:00041E34 ?buttonColors@vpiToolbar_class@@SAXPAHPAHPAH@Z 
01:00041E6C ?getAddOrnamentationByStyle@vpiToolbar_class@@SAXPAUstyle_struct@1@PAH@Z 
01:00041EB8 ?split_control_text@vpiToolbar_class@@SAXPB_WPAPB_W1@Z 
01:00041F30 ?set_ctrl_to_tb_win1@vpiToolbar_class@@SAXPBUwindowHandle@@@Z 
01:00041FBC ?multiple_rows@vpiToolbar_class@@SAXPAUstyle_struct@1@@Z 
01:00041FE8 ?horizontal@vpiToolbar_class@@SAXPAUstyle_struct@1@@Z 
01:00042078 ?toolbar_retract_controls@vpiToolbar_class@@SAXPBUwindowHandle@@@Z 
01:0004215C ?set_new_VPITBarAttr@vpiToolbar_class@@SAXPAUstyle_struct@1@HPBUwindowHandle@@@Z 
01:00042264 ?remove_VPITBarAttr@vpiToolbar_class@@SAXPAUstyle_struct@1@PBUwindowHandle@@@Z 
01:000423D8 ?give_flags_and_title@vpiToolbar_class@@SAXPAUstyle_struct@1@PAPAU?$__list_struct@Uwsflag@@@@PAPB_W@Z 
01:0004241C ?resendToParentWindow@vpiToolbar_class@@SAXPBUwindowHandle@vpiDomains@@IPAUvalue_struct@1@@Z 
01:00042890 ?set_ctrl_to_tb_win@vpiToolbar_class@@SAXPBUwindowHandle@@0@Z 
01:00043114 ?create_listcontrols@vpiToolbar_class@@SAXPBUwindowHandle@@@Z 
01:00043278 ?get_inits_for_twin@vpiToolbar_class@@SAXPBUwindowHandle@@PAHPAHPAHPAH@Z 
01:000432FC ?get_inits@vpiToolbar_class@@SAXPBUwindowHandle@@PAUstyle_struct@1@HHPAHPAH@Z 
01:0004355C ?tbar_Invalidate@vpiToolbar_class@@SAXPBUwindowHandle@@PAUstyle_struct@1@HHPAUrct_struct@vpiDomains_class@@@Z 
01:0004362C ?max_size@vpiToolbar_class@@SAXHHPAH@Z 
01:00043650 ?_createToolbarFont@vpiToolbar_class@@SAXHPAU?$__list_struct@Ufs@@@@HAAUfont@@@Z 
01:000436D4 ?getLeftOffset@vpiToolbar_class@@SAXPAUstyle_struct@1@PAH@Z 
01:00043700 ?getRightOffset@vpiToolbar_class@@SAXPAUstyle_struct@1@PAH@Z 
01:00043714 ?getTopOffset@vpiToolbar_class@@SAXPAUstyle_struct@1@PAH@Z 
01:00043768 ?getBottomOffset@vpiToolbar_class@@SAXPAUstyle_struct@1@PAH@Z 
01:000437BC ?rightBottom@vpiToolbar_class@@SAXPBUwindowHandle@@PAUstyle_struct@1@HHHPAHPAH@Z 
01:00043EE8 ?build_control_database8@vpiToolbar_class@@SAXPBUwindowHandle@@PAUstyle_struct@1@PAU?$__list_struct@Ucontrol@@@@HHHPAHPAH@Z 
01:00046DAC ?build_control_database@vpiToolbar_class@@SAXPBUwindowHandle@@PAUstyle_struct@1@PAU?$__list_struct@Ucontrol@@@@PAHPAH@Z 
01:00046E30 ?getControlSize@vpiToolbar_class@@SAXPBUwindowHandle@@PAUcontrol_struct@1@PAHPAH@Z 
01:00046F74 ?getMaxControlSize6@vpiToolbar_class@@SAXPBUwindowHandle@@PAU?$__list_struct@Ucontrol@@@@HHPAHPAH@Z 
01:00047008 ?getMaxControlSize@vpiToolbar_class@@SAXPBUwindowHandle@@PAU?$__list_struct@Ucontrol@@@@PAHPAH@Z 
01:00047060 ?drawButtonFrame@vpiToolbar_class@@SAXPBUwindowHandle@@PAUrct_struct@vpiDomains_class@@HH@Z 
01:00047248 ?drawButtonFrame_raised@vpiToolbar_class@@SAXPBUwindowHandle@@PAUrct_struct@vpiDomains_class@@@Z 
01:00047294 ?drawButtonFrame_sunken@vpiToolbar_class@@SAXPBUwindowHandle@@PAUrct_struct@vpiDomains_class@@@Z 
01:000472E0 ?drawButtonFrame_none@vpiToolbar_class@@SAXPBUwindowHandle@@PAUrct_struct@vpiDomains_class@@@Z 
01:0004732C ?toolbar_if_draw_frame@vpiToolbar_class@@SAXPBUwindowHandle@@PAUrct_struct@vpiDomains_class@@HH@Z 
01:000473BC ?imagePosition@vpiToolbar_class@@SAXPAUrct_struct@vpiDomains_class@@PBUpicture@@HPAPAUpnt_struct@3@@Z 
01:000474B0 ?drawImage_released@vpiToolbar_class@@SAXPBUwindowHandle@@PAUbitmapId_struct@vpiDomains_class@@PAUrct_struct@4@@Z 
01:0004750C ?drawImage_pressed@vpiToolbar_class@@SAXPBUwindowHandle@@PAUbitmapId_struct@vpiDomains_class@@PAUrct_struct@4@@Z 
01:0004765C ?drawImage_monocolor@vpiToolbar_class@@SAXPBUwindowHandle@@PBUpicture@@PAUrct_struct@vpiDomains_class@@HH@Z 
01:00047754 ?drawImage_gray@vpiToolbar_class@@SAXPBUwindowHandle@@PAUbitmapId_struct@vpiDomains_class@@PAUrct_struct@4@@Z 
01:000477C8 ?drawButton@vpiToolbar_class@@SAXPBUwindowHandle@@PAUrct_struct@vpiDomains_class@@PAUbitmapId_struct@4@HH@Z 
01:000478AC ?drawTextControl@vpiToolbar_class@@SAXPBUwindowHandle@@HHHH@Z 
01:00047B08 ?show_text@vpiToolbar_class@@SAXPBUwindowHandle@@PAUrct_struct@vpiDomains_class@@HHHHPB_W@Z 
01:00047C34 ?show_toolbar_controls@vpiToolbar_class@@SAXPBUwindowHandle@@@Z 
01:00047EC4 ?set_button_released@vpiToolbar_class@@SAXPBUwindowHandle@@@Z 
01:00047F70 ?eraseFrame@vpiToolbar_class@@SAXPBUwindowHandle@@PAUrct_struct@vpiDomains_class@@H@Z 
01:00047F88 ?test_not_leave_ctrl@vpiToolbar_class@@SAXPBUwindowHandle@@IPAUpnt_struct@vpiDomains_class@@@Z 
01:00048218 ?test_enter_ctrl@vpiToolbar_class@@SAXPBUwindowHandle@@PAUpnt_struct@vpiDomains_class@@H@Z 
01:00048350 ?restore_pressed_button@vpiToolbar_class@@SAXPBUwindowHandle@@IHH@Z 
01:00048524 ?show_status_text@vpiToolbar_class@@SAXPBUwindowHandle@@PB_W@Z 
01:000486E4 ?restore_initial_status_text@vpiToolbar_class@@SAXPBUwindowHandle@@@Z 
01:000487C4 ?_get_win_with_context@vpiToolbar_class@@SAXPBUwindowHandle@@AAU2@@Z 
01:00048968 ?set_flagMouseDown@vpiToolbar_class@@SAXPBUwindowHandle@@PAUcontrol_style_struct@1@H@Z 
01:00048988 ?isTopToolbarExists@vpiToolbar_class@@SAXPBUwindowHandle@@@Z 
01:00048A30 ?drawOrnamentation@vpiToolbar_class@@SAXPBUwindowHandle@@PAUstyle_struct@1@HH@Z 
01:00048EA4 ?tb_rect@vpiToolbar_class@@SAXPBUwindowHandle@@PAUstyle_struct@1@HHPAPAUrct_struct@vpiDomains_class@@@Z 
01:000492D0 ?_tb_handler@vpiToolbar_class@@SAXPBUwindowHandle@@PAUevent_struct@vpiDomains_class@@PAH@Z 
01:0004AA14 ?_is_call_user_func@vpiToolbar_class@@SAXHPAUcontrol_style_struct@1@PAH@Z 
01:0004AA48 ?call_user_func@vpiToolbar_class@@SAXPBUwindowHandle@@IH@Z 
01:0004AD7C ?_no_handler@vpiToolbar_class@@SAXPBUwindowHandle@@PAUevent_struct@vpiDomains_class@@PAH@Z 
01:0004AD88 ?_create@vpiToolbar_class@@SAXPAUstyle_struct@1@PBUwindowHandle@vpiDomains@@PAU?$__list_struct@Ucontrol@@@@AAU45@@Z 
01:0004ADC8 ?_create@vpiToolbar_class@@SAXPAUstyle_struct@1@PBUwindowHandle@vpiDomains@@PAU?$__list_struct@Ucontrol@@@@XAAU45@@Z 
01:0004AE20 ?_create@vpiToolbar_class@@SAXPAUstyle_struct@1@PBUwindowHandle@vpiDomains@@PAU?$__list_struct@Ucontrol@@@@XHAAU45@@Z 
01:0004B008 ?getPressedButton@vpiToolbar_class@@SAXPBUwindowHandle@vpiDomains@@HPAI@Z  (Idle)
01:0004B0BC ?setPressedButton@vpiToolbar_class@@SAXPBUwindowHandle@vpiDomains@@HI@Z 
01:0004B1BC ?mesRedirect@vpiToolbar_class@@SAXPBUwindowHandle@vpiDomains@@0@Z  (Idle)
01:0004B38C ?noAction@vpiToolbar_class@@SAXPBUwindowHandle@vpiDomains@@IPAUvalue_struct@1@@Z  (Idle)
01:0004B394 ?reload@vpiToolbar_class@@SAXPBUwindowHandle@vpiDomains@@PAU?$__list_struct@Ucontrol@@@@@Z  (Idle)
01:0004B6B8 ?resize@vpiToolbar_class@@SAXPBUwindowHandle@vpiDomains@@@Z 
01:0004B74C ?remove@vpiToolbar_class@@SAXPBUwindowHandle@vpiDomains@@@Z  (Idle)
01:0004B860 ?setValue@vpiToolbar_class@@SAXPBUwindowHandle@vpiDomains@@IPAUvalue_struct@1@@Z 
01:0004BF0C ?getValue@vpiToolbar_class@@SAXPBUwindowHandle@vpiDomains@@IPAPAUvalue_struct@1@@Z  (Idle)
01:0004C1F4 ?getRect@vpiToolbar_class@@SAXPBUwindowHandle@vpiDomains@@PAUstyle_struct@1@PAPAUrct_struct@vpiDomains_class@@@Z  (Idle)
01:0004C28C ?groupControls@vpiToolbar_class@@SAXPBUwindowHandle@vpiDomains@@HPAU?$__list_struct@UmenuTag@@@@@Z 
01:0004C508 ?getToolbar_nd@vpiToolbar_class@@SAXPBUwindowHandle@vpiDomains@@AAU23@@Z  (Idle)
01:0004C55C ?getToolbar_nd@vpiToolbar_class@@SAXPBUwindowHandle@vpiDomains@@AAU23@PAPAUstyle_struct@1@PAPAU?$__list_struct@Ucontrol@@@@@Z  (Idle)
--- From 'Obj\vpiEditor.obj'
01:0004C5C0 ?setOptionsByList@vpiEditor_class@@SAXPAU?$__list_struct@UcolorOption@@@@@Z 
01:0004C618 ?getColorType@vpiEditor_class@@SAXPAHPAPAUcolorType_struct@1@@Z 
01:0004C8FC ?getFtype@vpiEditor_class@@SAXPAH@Z 
01:0004C970 ?getOption@vpiEditor_class@@SAXPAPAUcolorOption_struct@1@@Z 
01:0004C9D8 ?getOptions@vpiEditor_class@@SAXPAPAU?$__list_struct@UcolorOption@@@@PAIPAIPAHPAHPAH@Z  (Idle)
01:0004CA5C ?setOptions@vpiEditor_class@@SAXPAU?$__list_struct@UcolorOption@@@@IIHHH@Z  (Idle)
01:0004CA90 ?setTabsize@vpiEditor_class@@SAXPBUwindowHandle@vpiDomains@@I@Z  (Idle)
01:0004CAAC ?index_FontStyle@vpiEditor_class@@SAXHPAH@Z 
01:0004CAE8 ?_get_CorrectBackColor@vpiEditor_class@@SAXHPAH@Z 
01:0004CB50 ?_get_CorrectForeColor@vpiEditor_class@@SAXHPAH@Z 
01:0004CBB8 ?_convertIndexToColorType@vpiEditor_class@@SAXHPAPAUcolorType_struct@1@@Z 
01:0004CC00 ?_convertColorTypeToIndex@vpiEditor_class@@SAXPAUcolorType_struct@1@PAH@Z 
01:0004CC4C ?_get_ColorFromColorOption@vpiEditor_class@@SAXPAPAUcolorSettings_struct@1@@Z 
01:0004CD20 ?set_NewColorSettings@vpiEditor_class@@SAXPAUcolorSettings_struct@1@@Z 
01:0004CE90 ?_get_ColorForControl@vpiEditor_class@@SAXHPAH@Z 
01:0004CEF8 ?checkFocus@vpiEditor_class@@SAXPAU?$__list_struct@Ustate@@@@@Z 
01:0004CF38 ?update_preview@vpiEditor_class@@SAXPBUwindowHandle@vpiDomains@@PAUrct_struct@vpiDomains_class@@@Z 
01:0004D01C ?_toStyleFlags@vpiEditor_class@@SAXHPAPAU?$__list_struct@Ufs@@@@@Z 
01:0004D054 ?update_button@vpiEditor_class@@SAXPBUwindowHandle@vpiDomains@@PAUrct_struct@vpiDomains_class@@HPAU?$__list_struct@Ustate@@@@@Z 
01:0004D110 ?_get_DefaultBackColor@vpiEditor_class@@SAXHPAH@Z 
01:0004D13C ?_get_DefaultForeColor@vpiEditor_class@@SAXHPAH@Z 
01:0004D168 ?on_DefaultBackground@vpiEditor_class@@SAXPBUwindowHandle@vpiDomains@@0@Z 
01:0004D228 ?on_DefaultForeground@vpiEditor_class@@SAXPBUwindowHandle@vpiDomains@@0@Z 
01:0004D2E8 ?on_BackgroundColor@vpiEditor_class@@SAXPBUwindowHandle@vpiDomains@@0@Z 
01:0004D3CC ?on_ForegroundColor@vpiEditor_class@@SAXPBUwindowHandle@vpiDomains@@0@Z 
01:0004D4B0 ?on_FontStyle@vpiEditor_class@@SAXPBUwindowHandle@vpiDomains@@@Z 
01:0004D570 ?show_color@vpiEditor_class@@SAXPBUwindowHandle@vpiDomains@@@Z 
01:0004D5D8 ?_getDefaultForColor@vpiEditor_class@@SAXHPAH@Z 
01:0004D5FC ?show_Forecolor@vpiEditor_class@@SAXPBUwindowHandle@vpiDomains@@H@Z 
01:0004D684 ?show_Backcolor@vpiEditor_class@@SAXPBUwindowHandle@vpiDomains@@H@Z 
01:0004D70C ?show_BoldItalic@vpiEditor_class@@SAXPBUwindowHandle@vpiDomains@@H@Z 
01:0004D768 ?on_OK@vpiEditor_class@@SAXPBUwindowHandle@vpiDomains@@@Z 
01:0004D7EC ?init_tokenColoring@vpiEditor_class@@SAXPBUwindowHandle@vpiDomains@@H@Z 
01:0004D8A8 ?_dlg_token_coloring_eh@vpiEditor_class@@SAXPBUwindowHandle@@PAUevent_struct@vpiDomains_class@@PAH@Z 
01:0004DC70 ?optionsDialog@vpiEditor_class@@SAXPBUwindowHandle@vpiDomains@@H@Z  (Idle)
01:0004DCA8 ?index_FontStyle@vpiEditor_class@@SAXPAHH@Z 
01:0004DCE4 ?_class_facts_initializer@vpiEditor_class@@SGXXZ 
--- From 'Obj\vpiDomains.obj'
01:0004DD10 ?classInfo@vpiOwnerDraw_class@@SAXPAPB_W0@Z  (Idle)
--- From 'Obj\vpi.obj'
01:0004DD30 ?classInfo@vpi_class@@SAXPAPB_W0@Z 
--- From 'Obj\gui.obj'
01:0004DD4C ?init@vpi_class@@SAXXZ 
01:0004DD64 ?init@vpi_class@@SAXPAU?$__list_struct@Uwsflag@@@@XPAUmenu_struct@vpiDomains_class@@PB_W3@Z 
--- From 'Obj\vpi.obj'
01:0004DD90 ?_winCreateResDialog@vpi_class@@SAXPBUwindowHandle@vpiDomains@@HIXHAAU23@@Z  (Idle)
01:0004DDCC ?_getResStr@vpi_class@@SAXIPAPB_W@Z  (Idle)
01:0004DDFC ?_winGetResDialog@vpi_class@@SAXIPAPAU?$__list_struct@Uwindef@@@@@Z  (Idle)
01:0004DE2C ?_checkExistDialog@vpi_class@@SAXIPAH@Z  (Idle)
01:0004DE5C ?_checkExistString@vpi_class@@SAXIPAH@Z  (Idle)
01:0004DE8C ?_menuGetRes@vpi_class@@SAXIPAPAUmenu_struct@vpiDomains_class@@@Z  (Idle)
01:0004DEBC ?_pictGetFromRes@vpi_class@@SAXIAAUpicture@vpiDomains@@@Z  (Idle)
01:0004DEEC ?_pictLoad@vpi_class@@SAXPAUbitmapId_struct@vpiDomains_class@@IIIAAUpicture@vpiDomains@@@Z 
--- From 'Obj\gui.obj'
01:0004E01C ?pictDraw@vpi_class@@SAXPBUwindowHandle@vpiDomains@@PBUpicture@3@PAUpnt_struct@vpiDomains_class@@H@Z 
01:0004E038 ?pictDraw@vpi_class@@SAXPBUwindowHandle@vpiDomains@@PBUpicture@3@PAUrct_struct@vpiDomains_class@@2H@Z 
01:0004E058 ?cursorSet@vpi_class@@SAXPBUwindowHandle@vpiDomains@@H@Z 
01:0004E070 ?caretSet@vpi_class@@SAXPBUwindowHandle@vpiDomains@@HH@Z 
01:0004E08C ?drawText@vpi_class@@SAXPBUwindowHandle@vpiDomains@@HHPB_W@Z 
01:0004E0B0 ?drawTextInRect@vpi_class@@SAXPBUwindowHandle@vpiDomains@@PAUrct_struct@vpiDomains_class@@PB_WPAU?$__list_struct@Uinteger@@@@@Z 
--- From 'Obj\vpi.obj'
01:0004E0D4 ?_mfLoad@vpi_class@@SAXPB_WPAI@Z  (Idle)
--- From 'Obj\gui.obj'
01:0004E0F8 ?winGetTextExtent@vpi_class@@SAXPBUwindowHandle@vpiDomains@@PB_WPAHPAH@Z 
--- From 'Obj\vpi.obj'
01:0004E11C ?_processEvents@vpi_class@@SAXPAH@Z 
01:0004E144 ?_processEvents@vpi_class@@SAXHPAH@Z 
--- From 'Obj\gui.obj'
01:0004E160 ?_winGetAttrVal@vpi_class@@SAXPBUwindowHandle@vpiDomains@@HPAH@Z 
--- From 'Obj\vpi.obj'
01:0004E18C ?_fontCreateByName@vpi_class@@SAXPBUwindowHandle@vpiDomains@@PB_WHAAUfont@3@@Z  (Idle)
--- From 'Obj\gui.obj'
01:0004E1AC ?_fontCreateByName@vpi_class@@SAXPB_WHAAUfont@vpiDomains@@@Z 
01:0004E2D8 ?dumpErrorHandler@vpi_class@@SAXPBUwindowHandle@@PBUtraceId@exception@@@Z 
--- From 'Obj\vpi.obj'
01:0004E3C0 ?_dumpErroreventHandler@vpi_class@@SAXPBUwindowHandle@@PAUevent_struct@vpiDomains_class@@PAH@Z 
01:0004E504 ?vpiExceptionRaiser@vpi_class@@SAXIPB_W@Z 
01:0004E5DC ?_exceptionFromErrorCode@vpi_class@@SAXIPAX@Z 
01:0004E614 ?_tryGetVpiError@vpi_class@@SAXIPAX@Z 
01:0004EF54 ?notYetHandledVpiError@vpi_class@@SAXPAXPAPB_W1@Z 
01:0004EF7C ?vpi_winBadHandle@vpi_class@@SAXPAXPAPB_W1@Z 
01:0004EFA4 ?vpi_winBadType@vpi_class@@SAXPAXPAPB_W1@Z 
01:0004EFCC ?vpi_data_alloc@vpi_class@@SAXPAXPAPB_W1@Z 
01:0004EFF4 ?vpi_listEmpty@vpi_class@@SAXPAXPAPB_W1@Z 
01:0004F01C ?vpi_listMember@vpi_class@@SAXPAXPAPB_W1@Z 
01:0004F044 ?vpi_unableFileOpen@vpi_class@@SAXPAXPAPB_W1@Z 
01:0004F06C ?vpi_unableFileCreate@vpi_class@@SAXPAXPAPB_W1@Z 
01:0004F094 ?vpi_fileNameEmpty@vpi_class@@SAXPAXPAPB_W1@Z 
01:0004F0BC ?vpi_unsupportedPlatform@vpi_class@@SAXPAXPAPB_W1@Z 
01:0004F0E4 ?vpi_vpiNotInit@vpi_class@@SAXPAXPAPB_W1@Z 
01:0004F10C ?vpi_illegalValue@vpi_class@@SAXPAXPAPB_W1@Z 
01:0004F134 ?vpi_notSupport@vpi_class@@SAXPAXPAPB_W1@Z 
01:0004F15C ?vpi_dlgNotFound@vpi_class@@SAXPAXPAPB_W1@Z 
01:0004F184 ?vpi_cursorNotFound@vpi_class@@SAXPAXPAPB_W1@Z 
01:0004F1AC ?vpi_iconNotFound@vpi_class@@SAXPAXPAPB_W1@Z 
01:0004F1D4 ?vpi_menuNotFound@vpi_class@@SAXPAXPAPB_W1@Z 
01:0004F1FC ?vpi_bmpNotFound@vpi_class@@SAXPAXPAPB_W1@Z 
01:0004F224 ?vpi_stringNotFound@vpi_class@@SAXPAXPAPB_W1@Z 
01:0004F24C ?vpi_unablePictureCreate@vpi_class@@SAXPAXPAPB_W1@Z 
01:0004F274 ?vpi_unableLoadPicture@vpi_class@@SAXPAXPAPB_W1@Z 
01:0004F29C ?vpi_ivalidWindowType@vpi_class@@SAXPAXPAPB_W1@Z 
01:0004F2C4 ?vpi_unableOpenPicture@vpi_class@@SAXPAXPAPB_W1@Z 
01:0004F2EC ?vpi_manyPictures@vpi_class@@SAXPAXPAPB_W1@Z 
01:0004F314 ?vpi_unableKillTimer@vpi_class@@SAXPAXPAPB_W1@Z 
01:0004F33C ?vpi_toManyTimers@vpi_class@@SAXPAXPAPB_W1@Z 
01:0004F364 ?vpi_badFont@vpi_class@@SAXPAXPAPB_W1@Z 
01:0004F38C ?vpi_unableGetFont@vpi_class@@SAXPAXPAPB_W1@Z 
01:0004F3B4 ?vpi_predicateNotExist@vpi_class@@SAXPAXPAPB_W1@Z 
01:0004F3DC ?vpi_unableRunApp@vpi_class@@SAXPAXPAPB_W1@Z 
01:0004F404 ?vpi_wrongAppId@vpi_class@@SAXPAXPAPB_W1@Z 
01:0004F42C ?vpi_cannotGetWindow@vpi_class@@SAXPAXPAPB_W1@Z 
01:0004F454 ?vpi_prnOpen@vpi_class@@SAXPAXPAPB_W1@Z 
01:0004F47C ?vpi_prnStart@vpi_class@@SAXPAXPAPB_W1@Z 
01:0004F4A4 ?vpi_prnMem@vpi_class@@SAXPAXPAPB_W1@Z 
01:0004F4CC ?vpi_prnEnd@vpi_class@@SAXPAXPAPB_W1@Z 
01:0004F4F4 ?vpi_prnBegin@vpi_class@@SAXPAXPAPB_W1@Z 
01:0004F51C ?vpi_prnData@vpi_class@@SAXPAXPAPB_W1@Z 
01:0004F544 ?vpi_notEvenNumber@vpi_class@@SAXPAXPAPB_W1@Z 
01:0004F56C ?vpi_unableRegisterClass@vpi_class@@SAXPAXPAPB_W1@Z 
01:0004F594 ?vpi_checkDestroy@vpi_class@@SAXPAXPAPB_W1@Z 
01:0004F5BC ?vpi_checkDraw@vpi_class@@SAXPAXPAPB_W1@Z 
01:0004F5E4 ?vpi_cantAddToLbox@vpi_class@@SAXPAXPAPB_W1@Z 
01:0004F60C ?vpi_winCtlBadPropery@vpi_class@@SAXPAXPAPB_W1@Z 
01:0004F634 ?vpi_winCrtResDlg@vpi_class@@SAXPAXPAPB_W1@Z 
01:0004F65C ?vpi_winCrtDynDlg@vpi_class@@SAXPAXPAPB_W1@Z 
01:0004F684 ?vpi_winCreate@vpi_class@@SAXPAXPAPB_W1@Z 
01:0004F6AC ?vpi_winCreateDyn@vpi_class@@SAXPAXPAPB_W1@Z 
01:0004F6D4 ?vpi_winClass@vpi_class@@SAXPAXPAPB_W1@Z 
01:0004F6FC ?vpi_winCtlId@vpi_class@@SAXPAXPAPB_W1@Z 
01:0004F724 ?vpi_unableSendEvent@vpi_class@@SAXPAXPAPB_W1@Z 
01:0004F74C ?vpi_unablePendEvent@vpi_class@@SAXPAXPAPB_W1@Z 
01:0004F774 ?vpi_winInvalidPos@vpi_class@@SAXPAXPAPB_W1@Z 
01:0004F79C ?vpi_unableMove@vpi_class@@SAXPAXPAPB_W1@Z 
01:0004F7C4 ?vpi_win_ctlhndl@vpi_class@@SAXPAXPAPB_W1@Z 
01:0004F7EC ?vpi_win_active@vpi_class@@SAXPAXPAPB_W1@Z 
01:0004F814 ?vpi_metaImpossiblePlay@vpi_class@@SAXPAXPAPB_W1@Z 
01:0004F83C ?vpi_metaImpossibleLoad@vpi_class@@SAXPAXPAPB_W1@Z 
01:0004F864 ?vpi_metaClose@vpi_class@@SAXPAXPAPB_W1@Z 
01:0004F88C ?vpi_metaBadFormat@vpi_class@@SAXPAXPAPB_W1@Z 
01:0004F8B4 ?vpi_metaCreateDC@vpi_class@@SAXPAXPAPB_W1@Z 
01:0004F8DC ?vpi_metaToMany@vpi_class@@SAXPAXPAPB_W1@Z 
01:0004F904 ?vpi_menuCreate@vpi_class@@SAXPAXPAPB_W1@Z 
01:0004F92C ?vpi_menuSet@vpi_class@@SAXPAXPAPB_W1@Z 
01:0004F954 ?vpi_menuFind@vpi_class@@SAXPAXPAPB_W1@Z 
01:0004F97C ?vpi_menuOwndrSubmenu@vpi_class@@SAXPAXPAPB_W1@Z 
01:0004F9A4 ?vpi_menuMdi@vpi_class@@SAXPAXPAPB_W1@Z 
01:0004F9CC ?vpi_helpInvalidConst@vpi_class@@SAXPAXPAPB_W1@Z 
01:0004F9F4 ?vpi_clipUnableAccess@vpi_class@@SAXPAXPAPB_W1@Z 
01:0004FA1C ?vpi_clipGetBin@vpi_class@@SAXPAXPAPB_W1@Z 
01:0004FA44 ?vpi_clipGetPict@vpi_class@@SAXPAXPAPB_W1@Z 
01:0004FA6C ?vpi_clipGetMf@vpi_class@@SAXPAXPAPB_W1@Z 
01:0004FA94 ?vpi_ddeSyncAdviceTimeout@vpi_class@@SAXPAXPAPB_W1@Z 
01:0004FABC ?vpi_ddeServerIsBusy@vpi_class@@SAXPAXPAPB_W1@Z 
01:0004FAE4 ?vpi_ddeSyncDataTimeout@vpi_class@@SAXPAXPAPB_W1@Z 
01:0004FB0C ?vpi_ddeNotInitialized@vpi_class@@SAXPAXPAPB_W1@Z 
01:0004FB34 ?vpi_ddeClientPerformsServerTrans@vpi_class@@SAXPAXPAPB_W1@Z 
01:0004FB5C ?vpi_ddeSyncExecTimeout@vpi_class@@SAXPAXPAPB_W1@Z 
01:0004FB84 ?vpi_ddeInvalidParam@vpi_class@@SAXPAXPAPB_W1@Z 
01:0004FBAC ?vpi_ddeMemConsume@vpi_class@@SAXPAXPAPB_W1@Z 
01:0004FBD4 ?vpi_ddeMemAllocFailed@vpi_class@@SAXPAXPAPB_W1@Z 
01:0004FBFC ?vpi_ddeTransactionFailed@vpi_class@@SAXPAXPAPB_W1@Z 
01:0004FC24 ?vpi_ddeClientConservationFailed@vpi_class@@SAXPAXPAPB_W1@Z 
01:0004FC4C ?vpi_ddeSyncPokeTimeout@vpi_class@@SAXPAXPAPB_W1@Z 
01:0004FC74 ?vpi_ddePostFailed@vpi_class@@SAXPAXPAPB_W1@Z 
01:0004FC9C ?vpi_ddeUnableInitTransaction@vpi_class@@SAXPAXPAPB_W1@Z 
01:0004FCC4 ?vpi_ddeUnableCompleteTransaction@vpi_class@@SAXPAXPAPB_W1@Z 
01:0004FCEC ?vpi_ddeInternalError@vpi_class@@SAXPAXPAPB_W1@Z 
01:0004FD14 ?vpi_dde_advice_end_timeout@vpi_class@@SAXPAXPAPB_W1@Z 
01:0004FD3C ?vpi_ddeInvalidId@vpi_class@@SAXPAXPAPB_W1@Z 
01:0004FD64 ?vpi_ddeSyserror@vpi_class@@SAXPAXPAPB_W1@Z 
01:0004FD8C ?vpi_ddeInitFail@vpi_class@@SAXPAXPAPB_W1@Z 
01:0004FDB4 ?trySetFocusOnFirstControl@vpi_class@@SAXPBUwindowHandle@vpiDomains@@@Z  (Idle)
--- From 'Obj\controls.obj'
01:0004FE20 ?_createCustomControl@vpi_class@@SAXXPAUrct_struct@vpiDomains_class@@HPB_WPBUwindowHandle@vpiDomains@@PAU?$__list_struct@Uwsflag@@@@HAAU45@@Z 
--- From 'Obj\controlSupport.obj'
01:0004FE90 ?_createCustomControl@vpi_class@@SAXXPAUrct_struct@vpiDomains_class@@HPB_WPBUwindowHandle@vpiDomains@@PAU?$__list_struct@Uwsflag@@@@HHAAU45@@Z 
--- From 'Obj\vpi.obj'
01:0004FF50 ?registerCustomCtrl@vpi_class@@SAXXZ 
01:0004FFB8 ?_dummyEventHandler@vpi_class@@SAXPBUwindowHandle@@PAUevent_struct@vpiDomains_class@@PAH@Z 
--- From 'Obj\gui.obj'
01:0004FFC4 ?winCenter@vpi_class@@SAXPBUwindowHandle@vpiDomains@@@Z 
01:0004FFF8 ?winCenter@vpi_class@@SAXPBUwindowHandle@vpiDomains@@PAUrct_struct@vpiDomains_class@@@Z 
--- From 'Obj\vpi.obj'
01:00050020 ?rctCenter@vpi_class@@SAXPAUrct_struct@vpiDomains_class@@PAPAU23@@Z 
01:0005005C ?rctCenter@vpi_class@@SAXPBUwindowHandle@vpiDomains@@PAUrct_struct@vpiDomains_class@@PAPAU45@@Z 
--- From 'Obj\gui.obj'
01:000501D0 ?winMapPnt@vpi_class@@SAXPAUpnt_struct@vpiDomains_class@@PBUwindowHandle@vpiDomains@@1PAPAU23@@Z 
--- From 'Obj\vpi.obj'
01:00050230 ?_winCtlGetText@vpi_class@@SAXPBUwindowHandle@vpiDomains@@HPAPB_W@Z  (Idle)
01:0005025C ?winCtlSelectText@vpi_class@@SAXPBUwindowHandle@vpiDomains@@H@Z  (Idle)
01:00050298 ?winCtlIsChecked@vpi_class@@SAXPBUwindowHandle@vpiDomains@@H@Z  (Idle)
01:000502E0 ?winCtlSetFocus@vpi_class@@SAXPBUwindowHandle@vpiDomains@@H@Z  (Idle)
01:00050304 ?winCtlSetState@vpi_class@@SAXPBUwindowHandle@vpiDomains@@HPAU?$__list_struct@Uwsflag@@@@@Z  (Idle)
--- From 'Obj\gui.obj'
01:0005032C ?mdiWinGetRestoredRect@vpi_class@@SAXPBUwindowHandle@vpiDomains@@PAPAUrct_struct@vpiDomains_class@@@Z 
--- From 'Obj\vpi.obj'
01:00050408 ?dialogWinSetRestoredRect@vpi_class@@SAXPBUwindowHandle@vpiDomains@@PAUrct_struct@vpiDomains_class@@@Z  (Idle)
01:0005049C ?dialogWinGetRestoredRect@vpi_class@@SAXPBUwindowHandle@vpiDomains@@PAPAUrct_struct@vpiDomains_class@@@Z  (Idle)
01:00050534 ?_test_taskwindow@vpi_class@@SAXPBUwindowHandle@vpiDomains@@PAH@Z 
01:00050560 ?winCtlRadioGet@vpi_class@@SAXPBUwindowHandle@vpiDomains@@PAU?$__list_struct@Uinteger@@@@PAH@Z  (Idle)
01:000505B4 ?decomposeRGB@vpi_class@@SAXHPAFPAFPAF@Z  (Idle)
01:0005066C ?winCtlGetNextTabStop@vpi_class@@SAXPBUwindowHandle@vpiDomains@@0AAU23@@Z  (Idle)
01:000506A8 ?winCtlGetPrevTabStop@vpi_class@@SAXPBUwindowHandle@vpiDomains@@0AAU23@@Z  (Idle)
01:000506E8 ?_menuPopUp@vpi_class@@SAXPBUwindowHandle@vpiDomains@@PAUmenu_struct@vpiDomains_class@@PAUpnt_struct@5@HPAPAUboolean_struct@_builtIn_class@@@Z  (Idle)
01:00050728 ?classInfo@vpiCommonDialogs_class@@SAXPAPB_W0@Z  (Idle)
01:00050744 ?_getString@vpiCommonDialogs_class@@SAXPB_W00PAPB_W@Z  (Idle)
01:00050790 ?_getString@vpiCommonDialogs_class@@SAXPBUwindowHandle@vpiDomains@@PB_W11PAPB_W@Z 
01:00050954 ?_dlg_getstring_eh@vpiCommonDialogs_class@@SAXPBUwindowHandle@@PAUevent_struct@vpiDomains_class@@PAH@Z 
01:000509C0 ?ok_getstring@vpiCommonDialogs_class@@SAXPBUwindowHandle@vpiDomains@@@Z 
01:00050A14 ?init_getstring@vpiCommonDialogs_class@@SAXPBUwindowHandle@vpiDomains@@@Z 
01:00050A4C ?_ask@vpiCommonDialogs_class@@SAXPB_WPAU?$__list_struct@Ustring@@@@PAH@Z  (Idle)
01:00050A9C ?_ask@vpiCommonDialogs_class@@SAXPB_W0PAU?$__list_struct@Ustring@@@@PAH@Z  (Idle)
01:00050AE8 ?_ask@vpiCommonDialogs_class@@SAXPBUwindowHandle@vpiDomains@@PB_W1PAU?$__list_struct@Ustring@@@@PAH@Z  (Idle)
01:00050AF4 ?_askLocal@vpiCommonDialogs_class@@SAXPBUwindowHandle@vpiDomains@@PB_W1PAU?$__list_struct@Ustring@@@@PAH@Z 
01:00050BB4 ?_dlg_ask_eh@vpiCommonDialogs_class@@SAXPBUwindowHandle@@PAUevent_struct@vpiDomains_class@@PAH@Z 
01:00050C50 ?_getButtonsList@vpiCommonDialogs_class@@SAXPAU?$__list_struct@Ustring@@@@PB_WPAHPAPAU?$__list_struct@Uwindef@@@@@Z 
01:00050EB4 ?_getFirstButton@vpiCommonDialogs_class@@SAXPB_WPAPAUwindef_struct@vpiDomains_class@@@Z 
01:00050F20 ?_getSecondButton@vpiCommonDialogs_class@@SAXPB_WPAPAUwindef_struct@vpiDomains_class@@@Z 
01:00050F8C ?_getLastButton@vpiCommonDialogs_class@@SAXPB_WPAPAUwindef_struct@vpiDomains_class@@@Z 
01:00050FF8 ?_getStaticText@vpiCommonDialogs_class@@SAXPB_WPAPAUwindef_struct@vpiDomains_class@@@Z 
01:00051064 ?_getAskResult@vpiCommonDialogs_class@@SAXHPAH@Z 
01:000510A8 ?_listSelect@vpiCommonDialogs_class@@SAXPB_WPAU?$__list_struct@Ustring@@@@HPAPB_WPAHPAH@Z  (Idle)
01:0005110C ?_listSelect@vpiCommonDialogs_class@@SAXPBUwindowHandle@vpiDomains@@PB_WPAU?$__list_struct@Ustring@@@@HPAPB_WPAHPAH@Z 
01:0005116C ?_listSelect@vpiCommonDialogs_class@@SAXPBUwindowHandle@vpiDomains@@PB_WPAU?$__list_struct@Ustring@@@@HPAPB_WPAHHPAH@Z 
01:000511D8 ?_listSelect@vpiCommonDialogs_class@@SAXPBUwindowHandle@vpiDomains@@PB_WPAU?$__list_struct@Ustring@@@@HPAPB_WPAHHHPAH@Z 
01:000513B8 ?_dlg_list_select_eh@vpiCommonDialogs_class@@SAXPBUwindowHandle@@PAUevent_struct@vpiDomains_class@@PAH@Z 
01:000514B8 ?resizeControls@vpiCommonDialogs_class@@SAXPBUwindowHandle@vpiDomains@@HH@Z 
01:000516C8 ?_toPositiveList@vpiCommonDialogs_class@@SAXPAU?$__list_struct@Uinteger@@@@PAPAU?$__list_struct@Upositive@@@@@Z 
01:00051748 ?storeResult_listSelect@vpiCommonDialogs_class@@SAXPBUwindowHandle@vpiDomains@@@Z 
01:000517F0 ?storeListSelectResult@vpiCommonDialogs_class@@SAXPBUwindowHandle@vpiDomains@@PAU?$__list_struct@Ustring@@@@PAU?$__list_struct@Upositive@@@@@Z 
01:00051858 ?storeNewValue@vpiCommonDialogs_class@@SAXPBUwindowHandle@vpiDomains@@PB_W@Z 
01:00051898 ?_getComboFlags@vpiCommonDialogs_class@@SAXHPAI@Z 
01:000518BC ?init_listSelect@vpiCommonDialogs_class@@SAXPBUwindowHandle@vpiDomains@@@Z 
01:00051914 ?note@vpiCommonDialogs_class@@SAXPB_W@Z  (Idle)
--- From 'Obj\controlSupport.obj'
01:0005192C ?error@vpiCommonDialogs_class@@SAXPB_W@Z 
--- From 'Obj\vpi.obj'
01:00051944 ?_getFileName@vpiCommonDialogs_class@@SAXPB_WPAU?$__list_struct@Ustring@@@@0PAU?$__list_struct@Uinteger@@@@0PAPAU?$__list_struct@U2@@@PAPB_W@Z  (Idle)
01:00051974 ?_getOpenFileNameList@vpiCommonDialogs_class@@SAXPB_WPAU?$__list_struct@Ustring@@@@0PAPAU?$__list_struct@U2@@@@Z  (Idle)
01:00051998 ?_getFont@vpiCommonDialogs_class@@SAXPBUfont@vpiDomains@@AAU23@@Z  (Idle)
01:000519BC ?_getColor@vpiCommonDialogs_class@@SAXHPAH@Z  (Idle)
01:000519EC ?setCustomColors@vpiCommonDialogs_class@@SAXQAE@Z  (Idle)
01:00051A00 ?_getCustomColors@vpiCommonDialogs_class@@SAXQAPAE@Z  (Idle)
01:00051A28 ?_getParentWindow@vpiCommonDialogs_class@@SAXAAUwindowHandle@vpiDomains@@@Z 
01:00051A50 ?_getParentWindowForFocus@vpiCommonDialogs_class@@SAXPBUwindowHandle@vpiDomains@@AAU23@@Z 
01:00051AA4 ?_checkOrGetTopLevel@vpiCommonDialogs_class@@SAXPBUwindowHandle@vpiDomains@@HAAU23@@Z 
01:00051B38 ?isTopLevelType@vpiCommonDialogs_class@@SAXH@Z 
01:00051B60 ?isNonVPIParent@vpiCommonDialogs_class@@SAXH@Z 
01:00051B7C ?_askBox@vpiCommonDialogs_class@@SAXPB_W0HHPAH@Z 
01:00051BC0 ?_class_facts_initializer@vpiCommonDialogs_class@@SGXXZ 
01:00051BFC ?classInfo@vpiDde_class@@SAXPAPB_W0@Z  (Idle)
--- From 'Obj\time.obj'
01:00051C20 ?classInfo@calendarInterval_class@@SAXPAPB_W0@Z  (Idle)
01:00051C3C ?new@calendarInterval_class@@SAXQAVcalendarInterval@@@@Z 
01:00051C44 ?new@calendarInterval_class@@SAXQAVcalendarInterval@@@HHHHHPAN@Z 
01:00051C50 ?setInterval@calendarInterval_class@@SAXQAVcalendarInterval@@@HHHHHPAN@Z 
01:00051C9C ?getInterval@calendarInterval_class@@SAXQAVcalendarInterval@@@PAHPAHPAHPAHPAHPAPAN@Z 
01:00051CD8 ?less@calendarInterval_class@@SAXQAVcalendarInterval@@@0QAVgmtTime@@@@Z 
01:00051D5C ?lessOrEqual@calendarInterval_class@@SAXQAVcalendarInterval@@@0QAVgmtTime@@@@Z 
01:00051DE0 ?equal@calendarInterval_class@@SAXQAVcalendarInterval@@@0QAVgmtTime@@@@Z 
01:00051E64 ?add@calendarInterval_class@@SAXQAVcalendarInterval@@@0@Z 
01:00051F60 ?subtract@calendarInterval_class@@SAXQAVcalendarInterval@@@0@Z 
01:00052084 ?_new@calendarInterval_class@@SAXPAPAVcalendarInterval@@@@Z  (Idle)
01:000520AC ?_new@calendarInterval_class@@SAXHHHHHPANPAPAVcalendarInterval@@@@Z  (Idle)
01:000520E8 ?_object_facts_initializer@calendarInterval_class@@SGXQAVcalendarInterval@@@@Z 
01:00052138 ?classInfo@gmtTime_class@@SAXPAPB_W0@Z  (Idle)
01:00052154 ?new@gmtTime_class@@SAXQAVgmtTime@@@@Z 
01:0005217C ?new@gmtTime_class@@SAXQAVgmtTime@@@PAUunsigned64_struct@core_class@@@Z 
01:00052190 ?new@gmtTime_class@@SAXQAVgmtTime@@@HHHHHPAN@Z 
01:000521AC ?_getGmtTime@gmtTime_class@@SAXQAVgmtTime@@@PAPAUunsigned64_struct@core_class@@@Z 
01:000521C0 ?setGmtTime@gmtTime_class@@SAXQAVgmtTime@@@PAUunsigned64_struct@core_class@@@Z 
--- From 'Obj\profile.obj'
01:000521D4 ?_getCurrentGmtTimeValue@gmtTime_class@@SAXPAPAUunsigned64_struct@core_class@@@Z 
--- From 'Obj\time.obj'
01:00052204 ?before@gmtTime_class@@SAXQAVgmtTime@@@0@Z 
01:00052244 ?beforeOrSameTime@gmtTime_class@@SAXQAVgmtTime@@@0@Z 
01:00052284 ?sameTime@gmtTime_class@@SAXQAVgmtTime@@@0@Z 
01:000522BC ?_getInterval@gmtTime_class@@SAXQAVgmtTime@@@0PAPAVtimeInterval@@@@Z 
01:000522DC ?addInterval@gmtTime_class@@SAXQAVgmtTime@@@QAVtimeInterval@@@@Z 
01:00052338 ?subtractInterval@gmtTime_class@@SAXQAVgmtTime@@@QAVtimeInterval@@@@Z 
01:00052394 ?getGmtDateAndTime@gmtTime_class@@SAXQAVgmtTime@@@PAHPAHPAHPAHPAHPAPAN@Z 
01:000524D4 ?setGmtDateAndTime@gmtTime_class@@SAXQAVgmtTime@@@HHHHHPAN@Z 
01:00052690 ?_new@gmtTime_class@@SAXPAPAVgmtTime@@@@Z  (Idle)
01:000526B8 ?_new@gmtTime_class@@SAXPAUunsigned64_struct@core_class@@PAPAVgmtTime@@@@Z  (Idle)
01:000526E4 ?_new@gmtTime_class@@SAXHHHHHPANPAPAVgmtTime@@@@Z  (Idle)
01:00052720 ?classInfo@time_class@@SAXPAPB_W0@Z 
01:0005273C ?initTimeFormatter@time_class@@SAXQAVtime@@@@Z 
01:0005277C ?new@time_class@@SAXQAVtime@@@@Z 
01:00052798 ?new@time_class@@SAXQAVtime@@@QAVgmtTime@@@@Z 
01:000527C4 ?newFromGMT@time_class@@SAXQAVtime@@@PAUunsigned64_struct@core_class@@@Z 
01:000527E4 ?newFromLocalTime@time_class@@SAXQAVtime@@@PAUunsigned64_struct@core_class@@@Z 
01:00052864 ?newFromTimeZone@time_class@@SAXQAVtime@@@PAUunsigned64_struct@core_class@@PAUtimeZone_struct@timeFormatter_class@@@Z 
01:000528EC ?new@time_class@@SAXQAVtime@@@HHHHHPAN@Z 
01:000529A4 ?newDate@time_class@@SAXQAVtime@@@HHH@Z 
01:00052A08 ?newTime@time_class@@SAXQAVtime@@@HHPAN@Z 
01:00052AD8 ?setDate@time_class@@SAXQAVtime@@@HHH@Z 
01:00052B4C ?getDate@time_class@@SAXQAVtime@@@PAHPAHPAH@Z 
01:00052BC0 ?setTime@time_class@@SAXQAVtime@@@HHH@Z 
01:00052C34 ?getTime@time_class@@SAXQAVtime@@@PAHPAHPAH@Z 
01:00052CA8 ?setTime_localTimeValue@time_class@@SAXQAVtime@@@PAUunsigned64_struct@core_class@@@Z 
01:00052D08 ?_getTime@time_class@@SAXQAVtime@@@PAPAUunsigned64_struct@core_class@@@Z 
01:00052D68 ?setTimeDetailed@time_class@@SAXQAVtime@@@HHPAN@Z 
01:00052DDC ?getTimeDetailed@time_class@@SAXQAVtime@@@PAHPAHPAPAN@Z 
01:00052E50 ?getWeek@time_class@@SAXQAVtime@@@PAHPAH@Z 
01:00052EB8 ?setWeek@time_class@@SAXQAVtime@@@HH@Z 
01:00052F20 ?setDateAndTime@time_class@@SAXQAVtime@@@HHHHH@Z 
01:00052FAC ?getDateAndTime@time_class@@SAXQAVtime@@@PAHPAHPAHPAHPAH@Z 
01:00053038 ?setDateAndTime@time_class@@SAXQAVtime@@@HHHHHH@Z 
01:000530D0 ?getDateAndTime@time_class@@SAXQAVtime@@@PAHPAHPAHPAHPAHPAH@Z 
01:00053168 ?setDateAndTimeDetailed@time_class@@SAXQAVtime@@@HHHHHPAN@Z 
01:00053200 ?getDateAndTimeDetailed@time_class@@SAXQAVtime@@@PAHPAHPAHPAHPAHPAPAN@Z 
01:00053298 ?setSystemClock@time_class@@SAXQAVtime@@@@Z  (Idle)
01:00053494 ?_formatLongDate@time_class@@SAXQAVtime@@@PAPB_W@Z 
01:000534F4 ?_formatShortDate@time_class@@SAXQAVtime@@@PAPB_W@Z 
01:00053554 ?_formatTime@time_class@@SAXQAVtime@@@PAPB_W@Z 
01:000535B4 ?_toSimpleString@time_class@@SAXQAVtime@@@PAPB_W@Z 
01:00053614 ?setFromSimpleString@time_class@@SAXQAVtime@@@PB_W@Z 
01:00053674 ?_format@time_class@@SAXQAVtime@@@PB_WPAPB_W@Z 
01:000536DC ?setFromString@time_class@@SAXQAVtime@@@PB_W1@Z 
01:00053744 ?setFromString@time_class@@SAXQAVtime@@@PB_W@Z 
01:000537A4 ?isDaylightTime@time_class@@SAXQAVtime@@@@Z 
01:000537FC ?isLeapYear@time_class@@SAXQAVtime@@@@Z 
01:00053854 ?_getDayOfWeek@time_class@@SAXHHHPAI@Z 
01:00053970 ?_dayOfYear@time_class@@SAXHHHPAI@Z 
01:00053A14 ?_getDaysInMonth@time_class@@SAXHHPAI@Z 
01:00053A64 ?_dayOfYearEx@time_class@@SAXIIIPAI@Z 
01:00053AFC ?_getDaysInMonthEx@time_class@@SAXHIPAI@Z 
01:00053C98 ?normalize@time_class@@SAXHHHHHPANPAHPAHPAHPAHPAHPAPAN@Z 
01:00053D84 ?normalizeDays@time_class@@SAXHHHPAHPAH@Z 
01:00053DA0 ?normalizePositiveDays@time_class@@SAXHHHPAHPAH@Z 
01:00053E48 ?normalizeNegativeDays@time_class@@SAXHHHPAHPAH@Z 
01:00053EC0 ?resolveInteger@time_class@@SAXHHPAHPAH@Z 
01:00053F28 ?resolveSeconds@time_class@@SAXPANIPAHPAPAN@Z 
01:000540E4 ?resolveMonth@time_class@@SAXHPAHPAH@Z 
01:0005415C ?addCalendarInterval@time_class@@SAXQAVtime@@@QAVcalendarInterval@@@@Z 
01:0005418C ?subtractCalendarInterval@time_class@@SAXQAVtime@@@QAVcalendarInterval@@@@Z 
01:000541B8 ?addCalendarIntervalWithSign@time_class@@SAXQAVtime@@@QAVcalendarInterval@@@H@Z 
01:00054390 ?setTime@time_class@@SAXQAVtime@@@0@Z 
01:00054420 ?setTimeZone@time_class@@SAXQAVtime@@@PAUtimeZone_struct@timeFormatter_class@@@Z 
01:00054454 ?_new@time_class@@SAXPAPAVtime@@@@Z 
01:0005447C ?_new@time_class@@SAXQAVgmtTime@@@PAPAVtime@@@@Z 
01:000544A8 ?_newFromGMT@time_class@@SAXPAUunsigned64_struct@core_class@@PAPAVtime@@@@Z  (Idle)
01:000544D4 ?_newFromLocalTime@time_class@@SAXPAUunsigned64_struct@core_class@@PAPAVtime@@@@Z  (Idle)
01:00054500 ?_newFromTimeZone@time_class@@SAXPAUunsigned64_struct@core_class@@PAUtimeZone_struct@timeFormatter_class@@PAPAVtime@@@@Z  (Idle)
01:00054530 ?_new@time_class@@SAXHHHHHPANPAPAVtime@@@@Z  (Idle)
01:0005456C ?_newDate@time_class@@SAXHHHPAPAVtime@@@@Z  (Idle)
01:0005459C ?_newTime@time_class@@SAXHHPANPAPAVtime@@@@Z  (Idle)
01:000545CC ?_object_facts_initializer@time_class@@SGXQAVtime@@@@Z 
01:000545E8 ?classInfo@timeFormatter_class@@SAXPAPB_W0@Z 
01:00054604 ?new@timeFormatter_class@@SAXQAVtimeFormatter@@@@Z 
01:00054648 ?new@timeFormatter_class@@SAXQAVtimeFormatter@@@PAUtimeZone_struct@1@@Z 
01:00054678 ?_getDefaultLCID@timeFormatter_class@@SAXPAI@Z 
01:000546EC ?getDateAndTime@timeFormatter_class@@SAXQAVtimeFormatter@@@QAVgmtTime@@@PAHPAHPAHPAHPAH@Z 
01:000547B8 ?setDateAndTime@timeFormatter_class@@SAXQAVtimeFormatter@@@QAVgmtTime@@@HHHHH@Z 
01:0005482C ?getDateAndTime@timeFormatter_class@@SAXQAVtimeFormatter@@@QAVgmtTime@@@PAHPAHPAHPAHPAHPAH@Z 
01:00054980 ?setDateAndTime@timeFormatter_class@@SAXQAVtimeFormatter@@@QAVgmtTime@@@HHHHHH@Z 
01:000549BC ?getDateAndTimeDetailed@timeFormatter_class@@SAXQAVtimeFormatter@@@QAVgmtTime@@@PAHPAHPAHPAHPAHPAPAN@Z 
01:00054AF8 ?setDateAndTimeDetailed@timeFormatter_class@@SAXQAVtimeFormatter@@@QAVgmtTime@@@HHHHHPAN@Z 
01:00054B04 ?getTime@timeFormatter_class@@SAXQAVtimeFormatter@@@QAVgmtTime@@@PAHPAHPAH@Z 
01:00054B8C ?setTime@timeFormatter_class@@SAXQAVtimeFormatter@@@QAVgmtTime@@@HHH@Z 
01:00054C88 ?_getTime@timeFormatter_class@@SAXQAVtimeFormatter@@@QAVgmtTime@@@PAPAUunsigned64_struct@core_class@@@Z 
01:00054C94 ?setTime@timeFormatter_class@@SAXQAVtimeFormatter@@@QAVgmtTime@@@PAUunsigned64_struct@core_class@@@Z 
01:00054CA0 ?getTimeDetailed@timeFormatter_class@@SAXQAVtimeFormatter@@@QAVgmtTime@@@PAHPAHPAPAN@Z 
01:00054D70 ?setTimeDetailed@timeFormatter_class@@SAXQAVtimeFormatter@@@QAVgmtTime@@@HHPAN@Z 
01:00054E44 ?getDate@timeFormatter_class@@SAXQAVtimeFormatter@@@QAVgmtTime@@@PAHPAHPAH@Z 
01:00054ECC ?setDate@timeFormatter_class@@SAXQAVtimeFormatter@@@QAVgmtTime@@@HHH@Z 
01:00054FE8 ?isDaylightTime@timeFormatter_class@@SAXQAVtimeFormatter@@@QAVgmtTime@@@@Z 
01:00055020 ?isLeapYear@timeFormatter_class@@SAXQAVtimeFormatter@@@QAVgmtTime@@@@Z 
01:00055068 ?_getLocalTime@timeFormatter_class@@SAXQAVtimeFormatter@@@QAVgmtTime@@@PAPAUunsigned64_struct@core_class@@@Z 
01:000550D8 ?_getLocalTimeAsStruct@timeFormatter_class@@SAXQAVtimeFormatter@@@QAVgmtTime@@@PAPAUsystemTime_struct@time_native_class@@@Z 
01:00055108 ?setLocalTimeAsStruct@timeFormatter_class@@SAXQAVtimeFormatter@@@QAVgmtTime@@@HHHHHPAN@Z 
01:000552C8 ?setLocalTime@timeFormatter_class@@SAXQAVtimeFormatter@@@QAVgmtTime@@@PAUunsigned64_struct@core_class@@@Z 
01:00055324 ?_correctBias@timeFormatter_class@@SAXPAUunsigned64_struct@core_class@@HPAPAU23@@Z 
01:00055394 ?_correctDayLight@timeFormatter_class@@SAXQAVtimeFormatter@@@PAUunsigned64_struct@core_class@@HPAPAU34@@Z 
01:00055404 ?_tryGetDaylightBias@timeFormatter_class@@SAXQAVtimeFormatter@@@PAUsystemTime_struct@time_native_class@@PAH@Z 
01:0005548C ?transitionDateAfter@timeFormatter_class@@SAXPAUtransitionDate_struct@1@PAUsystemTime_struct@time_native_class@@@Z 
01:0005594C ?_getDayOfMonth@timeFormatter_class@@SAXHIIPAI@Z 
01:00055A20 ?getMonthByDayOfYear@timeFormatter_class@@SAXIHIPAHPAI@Z 
01:00055AC0 ?getWeek@timeFormatter_class@@SAXQAVtimeFormatter@@@QAVgmtTime@@@PAHPAH@Z 
01:00055C90 ?_getWeekDay@timeFormatter_class@@SAXEEPAE@Z 
01:00055D18 ?_daysBeforeFirstWeek@timeFormatter_class@@SAXPB_WHIPAH@Z 
01:00055E90 ?setWeek@timeFormatter_class@@SAXQAVtimeFormatter@@@QAVgmtTime@@@HH@Z 
01:0005611C ?_toSimpleString@timeFormatter_class@@SAXQAVtimeFormatter@@@QAVgmtTime@@@PAPB_W@Z 
01:00056154 ?setFromSimpleString@timeFormatter_class@@SAXQAVtimeFormatter@@@QAVgmtTime@@@PB_W@Z 
01:000562B4 ?format@timeFormatter_class@@SAXQAVtimeFormatter@@@QAVgmtTime@@@PB_WPAPB_W@Z 
01:00056314 ?_processStringList@timeFormatter_class@@SAXQAVtimeFormatter@@@PAU?$__list_struct@Ustring@@@@PAUsystemTime_struct@time_native_class@@PAPAU?$__list_struct@U3@@@@Z 
01:000563C0 ?processTailStringList@timeFormatter_class@@SAXQAVtimeFormatter@@@PAU?$__list_struct@Ustring@@@@PAUsystemTime_struct@time_native_class@@PAPAU?$__list_struct@U3@@@@Z 
01:000564A4 ?_processPart@timeFormatter_class@@SAXQAVtimeFormatter@@@PB_WPAUsystemTime_struct@time_native_class@@PAU?$__list_struct@Ustring@@@@PAPB_W@Z 
01:00056590 ?_formatFraction@timeFormatter_class@@SAXPAUsystemTime_struct@time_native_class@@PB_WPAPB_W@Z 
01:00056744 ?_formatLongDate@timeFormatter_class@@SAXQAVtimeFormatter@@@QAVgmtTime@@@PAPB_W@Z 
01:000567A4 ?_formatShortDate@timeFormatter_class@@SAXQAVtimeFormatter@@@QAVgmtTime@@@PAPB_W@Z 
01:00056804 ?_formatTime@timeFormatter_class@@SAXQAVtimeFormatter@@@QAVgmtTime@@@PAPB_W@Z 
01:00056864 ?setFromString@timeFormatter_class@@SAXQAVtimeFormatter@@@QAVgmtTime@@@PB_W@Z 
01:000569C4 ?isWrongStringException@timeFormatter_class@@SAXPBUtraceId@exception@@@Z 
01:00056A28 ?setFromString@timeFormatter_class@@SAXQAVtimeFormatter@@@QAVgmtTime@@@PB_W2@Z 
01:00056D7C ?getCommentPositionList@timeFormatter_class@@SAXPB_WHPAPAU?$__list_struct@UdateTimePos@@@@PAPB_W@Z 
01:0005700C ?_getNextQuote@timeFormatter_class@@SAXPB_WPAI@Z 
01:0005708C ?checkDoubleQuote@timeFormatter_class@@SAXIHPAI@Z 
01:000570DC ?_addTemplatePosition@timeFormatter_class@@SAXPB_WPAU?$__list_struct@Ustring@@@@PAUdateTime_struct@1@PAU?$__list_struct@UdateTimePos@@@@PAPAU?$__list_struct@U5@@@@Z 
01:000571B4 ?_addDayTemplatePosition@timeFormatter_class@@SAXPB_WPAU?$__list_struct@UdateTimePos@@@@PAPAU?$__list_struct@U2@@@@Z 
01:000572D0 ?_getOrderedList@timeFormatter_class@@SAXPAU?$__list_struct@UdateTimePos@@@@PAPAU?$__list_struct@U2@@@@Z 
01:0005739C ?_getOrderedListEx@timeFormatter_class@@SAXPAU?$__list_struct@UdateTimePos@@@@PAUdateTimePos_struct@1@0PAPAU?$__list_struct@U2@@@@Z 
01:00057464 ?tryGetValues@timeFormatter_class@@SAXQAVtimeFormatter@@@PAU?$__list_struct@UdateTimePos@@@@PB_WIHHHHHHHPAN2PAUtimeDesignator_struct@1@PAHPAHPAHPAHPAHPAHPAPANPAPB_WPAPAU41@@Z 
01:000575A0 ?tryGetValueForListItem@timeFormatter_class@@SAXQAVtimeFormatter@@@PAUdateTime_struct@1@PAUtemplateAndPosition_struct@1@PB_WIHHHHHHHPAN3PAUtimeDesignator_struct@1@PAHPAHPAHPAHPAHPAHPAHPAPANPAPB_WPAPAU71@@Z 
01:00057944 ?checkComment@timeFormatter_class@@SAXPAUtemplateAndPosition_struct@1@PB_WIH@Z 
01:00057A10 ?_tryGetYearValue@timeFormatter_class@@SAXPAUtemplateAndPosition_struct@1@PB_WIHPAH@Z 
01:00057A78 ?_handlingCentury@timeFormatter_class@@SAXIHPAH@Z 
01:00057AA4 ?_tryGetFractionValue@timeFormatter_class@@SAXPAUtemplateAndPosition_struct@1@PB_WIHPAPAN@Z 
01:00057B58 ?tryGetValueFromTemplate@timeFormatter_class@@SAXPAUtemplateAndPosition_struct@1@PB_WIHPAHPAH@Z 
01:00057BDC ?tryGetValueForOneCharTemplate@timeFormatter_class@@SAXPB_WIIHPAHPAH@Z 
01:00057CC4 ?_tryGetValue@timeFormatter_class@@SAXPB_WIIHIPAH@Z 
01:00057D78 ?tryGetMonthValue@timeFormatter_class@@SAXQAVtimeFormatter@@@PAUtemplateAndPosition_struct@1@PB_WIHPAHPAH@Z 
01:00057EB8 ?tryGetMonthFromString@timeFormatter_class@@SAXQAVtimeFormatter@@@IPB_WIIPAHPAI@Z 
01:00057FE8 ?tryGetDayValue@timeFormatter_class@@SAXQAVtimeFormatter@@@PAUtemplateAndPosition_struct@1@PB_WIHHPAHPAH@Z 
01:000581CC ?_tryGetDayNameLength@timeFormatter_class@@SAXQAVtimeFormatter@@@IPB_WIIPAI@Z 
01:00058280 ?tryGetTimeMarkerValue@timeFormatter_class@@SAXQAVtimeFormatter@@@PAUtemplateAndPosition_struct@1@PB_WIHPAPAUtimeDesignator_struct@1@PAH@Z 
01:00058328 ?tryGetTimeMarker@timeFormatter_class@@SAXQAVtimeFormatter@@@PB_WIIHPAPAUtimeDesignator_struct@1@PAI@Z 
01:000583D0 ?checkTimeMarker@timeFormatter_class@@SAXPB_WI0IHPAI@Z 
01:000584A4 ?_convertTo24FormatIfNeeded@timeFormatter_class@@SAXIPB_WPAUtimeDesignator_struct@1@PAI@Z 
01:00058520 ?_pm_am@timeFormatter_class@@SAXIPAUtimeDesignator_struct@1@PAI@Z 
01:00058588 ?_getAvailableTimeZones@timeFormatter_class@@SAXPAPAU?$__list_struct@UtimeZone@@@@@Z  (Idle)
01:000585CC ?_zoneNameFill@timeFormatter_class@@SAXPAU?$__list_struct@Ustring@@@@PAPAU?$__list_struct@UtimeZone@@@@@Z 
01:00058644 ?_getTimeZoneInformation@timeFormatter_class@@SAXPB_WPAPAUtimeZone_struct@1@@Z 
01:000586BC ?_convertTimeZoneInfo@timeFormatter_class@@SAXIPAUtimeZoneAPI_struct@time_native_class@@PB_WPAPAUtimeZone_struct@1@@Z 
01:00058834 ?_getTimeZoneFromRegistry@timeFormatter_class@@SAXPB_WPAPAUtimeZone_struct@1@@Z 
01:00058B18 ?_getDayLightSavingScheme@timeFormatter_class@@SAXPB_W0H_W_W_W_W_W_W_W_W_W_W_W_WPAPAUdaylightSavingScheme_struct@1@@Z 
01:00058BE0 ?_getTransitionDate@timeFormatter_class@@SAX_W_W_W_W_W_WPAPAUtransitionDate_struct@1@@Z 
01:00058D3C ?_getTimeZoneRegistryKey@timeFormatter_class@@SAXPAPB_W@Z 
01:00058DA0 ?setTimeZone@timeFormatter_class@@SAXQAVtimeFormatter@@@PAUtimeZone_struct@1@@Z 
01:00058DB4 ?_new@timeFormatter_class@@SAXPAPAVtimeFormatter@@@@Z 
01:00058DDC ?_new@timeFormatter_class@@SAXPAUtimeZone_struct@1@PAPAVtimeFormatter@@@@Z 
01:00058E08 ?classInfo@timeInterval_class@@SAXPAPB_W0@Z  (Idle)
01:00058E24 ?_get@timeInterval_class@@SAXQAVtimeInterval@@@PAPAUinteger64_struct@core_class@@@Z 
01:00058E38 ?new@timeInterval_class@@SAXQAVtimeInterval@@@@Z 
01:00058E40 ?new@timeInterval_class@@SAXQAVtimeInterval@@@PAUinteger64_struct@core_class@@@Z 
01:00058E54 ?new@timeInterval_class@@SAXQAVtimeInterval@@@HHHPAN@Z 
01:00058E60 ?new@timeInterval_class@@SAXQAVtimeInterval@@@QAVgmtTime@@@1@Z 
01:00058EB8 ?less@timeInterval_class@@SAXQAVtimeInterval@@@0@Z 
01:00058EF8 ?lessOrEqual@timeInterval_class@@SAXQAVtimeInterval@@@0@Z 
01:00058F38 ?equal@timeInterval_class@@SAXQAVtimeInterval@@@0@Z 
01:00058F70 ?add@timeInterval_class@@SAXQAVtimeInterval@@@0@Z 
01:00058FB4 ?subtract@timeInterval_class@@SAXQAVtimeInterval@@@0@Z 
01:00058FF8 ?multiply@timeInterval_class@@SAXQAVtimeInterval@@@PAN@Z 
01:00059030 ?setInterval@timeInterval_class@@SAXQAVtimeInterval@@@HHHH@Z 
01:0005906C ?setIntervalDetailed@timeInterval_class@@SAXQAVtimeInterval@@@HHHPAN@Z 
01:00059078 ?getInterval@timeInterval_class@@SAXQAVtimeInterval@@@PAHPAHPAHPAH@Z 
01:000590B0 ?getIntervalDetailed@timeInterval_class@@SAXQAVtimeInterval@@@PAHPAHPAHPAPAN@Z 
01:000590BC ?isPositive@timeInterval_class@@SAXQAVtimeInterval@@@PAUinteger64_struct@core_class@@@Z 
01:000590F0 ?isPositiveOrNull@timeInterval_class@@SAXQAVtimeInterval@@@PAUinteger64_struct@core_class@@@Z 
01:00059110 ?getFields@timeInterval_class@@SAXQAVtimeInterval@@@PAHPAHPAHPAPAN@Z 
01:000591DC ?setFields@timeInterval_class@@SAXQAVtimeInterval@@@HHHPAN@Z 
01:000592A4 ?_add64WithInteger@timeInterval_class@@SAXPAUinteger64_struct@core_class@@HPAPAU23@@Z 
01:0005934C ?_new@timeInterval_class@@SAXPAPAVtimeInterval@@@@Z  (Idle)
--- From 'Obj\profile.obj'
01:00059374 ?_new@timeInterval_class@@SAXPAUinteger64_struct@core_class@@PAPAVtimeInterval@@@@Z 
--- From 'Obj\time.obj'
01:000593A0 ?_new@timeInterval_class@@SAXHHHPANPAPAVtimeInterval@@@@Z  (Idle)
01:000593D4 ?_new@timeInterval_class@@SAXQAVgmtTime@@@0PAPAVtimeInterval@@@@Z 
01:00059404 ?_object_facts_initializer@timeInterval_class@@SGXQAVtimeInterval@@@@Z 
01:00059420 ?classInfo@time_exception_class@@SAXPAPB_W0@Z 
01:0005943C ?partsOutOfRange@time_exception_class@@SAXPAXPAPB_W1@Z 
01:00059464 ?wrongStringFormat@time_exception_class@@SAXPAXPAPB_W1@Z 
01:0005948C ?cannotGetTimeZoneInformation@time_exception_class@@SAXPAXPAPB_W1@Z 
01:000594B4 ?raise_PartsOutOfRange@time_exception_class@@SGXXHHHHHN@Z 
01:000596C8 ?raise_WrongStringFormat@time_exception_class@@SGXXPB_W1@Z 
01:00059788 ?raise_CannotGetTimeZoneInformation@time_exception_class@@SGXXPB_WI@Z 
01:00059850 ?_initObject@calendarInterval@@QAGXQAV1@H@Z 
01:0005987C ?@create_object@calendarInterval_class@@SGQAVcalendarInterval@@@XZ 
01:00059898 ?_InternalFinalizer@calendarInterval@@QAGXQAV1@@Z 
01:000598AC ?_initObject@gmtTime@@QAGXQAV1@H@Z 
01:000598C8 ?@create_object@gmtTime_class@@SGQAVgmtTime@@@XZ 
01:000598E4 ?_InternalFinalizer@gmtTime@@QAGXQAV1@@Z 
01:000599B8 ?_initObject@time@@QAGXQAV1@H@Z 
01:000599F8 ?@create_object@time_class@@SGQAVtime@@@XZ 
01:00059A14 ?_InternalFinalizer@time@@QAGXQAV1@@Z 
01:00059A2C ?_initObject@timeFormatter@@QAGXQAV1@H@Z 
01:00059A40 ?@create_object@timeFormatter_class@@SGQAVtimeFormatter@@@XZ 
01:00059A5C ?_InternalFinalizer@timeFormatter@@QAGXQAV1@@Z 
01:00059A70 ?_initObject@timeInterval@@QAGXQAV1@H@Z 
01:00059A94 ?@create_object@timeInterval_class@@SGQAVtimeInterval@@@XZ 
01:00059AB0 ?_InternalFinalizer@timeInterval@@QAGXQAV1@@Z 
--- From 'Obj\templateExpander.obj'
01:00059AC0 ?substitute@templateExpander_class@@SAXQAVinputStream@@@QAVoutputStream@@@PB_WX@Z  (Idle)
--- From 'Obj\controls.obj'
01:00059AEC ?substitute_string@templateExpander_class@@SAXPB_WQAVoutputStream@@@0X@Z 
--- From 'Obj\templateExpander.obj'
01:00059B18 ?substitute_regExp@templateExpander_class@@SAXQAVinputStream@@@QAVoutputStream@@@QAV4@@X@Z 
01:00059B80 ?substitute_line@templateExpander_class@@SAXPB_WQAVoutputStream@@@QAVregExp@@@X@Z 
01:00059C80 ?classInfo@templateExpander_class@@SAXPAPB_W0@Z  (Idle)
--- From 'Obj\string8.obj'
01:00059CA0 ?classInfo@string8_class@@SAXPAPB_W0@Z  (Idle)
01:00059CBC ?isValidCodePage@string8_class@@SAXI@Z  (Idle)
01:00059CDC ?isValidToRead@string8_class@@SAXPAD@Z  (Idle)
01:00059D00 ?_mapFromString@string8_class@@SAXPB_WPAPAD@Z 
01:00059D30 ?_mapFromString@string8_class@@SAXPB_WPAUcodePage_struct@core_class@@PAPAD@Z 
--- From 'Obj\binary.obj'
01:00059D8C ?_mapToString@string8_class@@SAXPADPAPB_W@Z 
--- From 'Obj\string8.obj'
01:00059DBC ?_mapToString@string8_class@@SAXPADPAUcodePage_struct@core_class@@PAPB_W@Z 
01:00059E14 ?_mapFromChar@string8_class@@SAX_WPAE@Z  (Idle)
01:00059E48 ?_mapFromChar@string8_class@@SAX_WPAUcodePage_struct@core_class@@PAE@Z 
01:00059EC0 ?_mapToChar@string8_class@@SAXEPA_W@Z  (Idle)
01:00059EF0 ?_mapToChar@string8_class@@SAXEPAUcodePage_struct@core_class@@PA_W@Z 
01:00059F60 ?_createCopy@string8_class@@SAXPADPAPAD@Z  (Idle)
--- From 'Obj\string.obj'
01:00059FE0 ?classInfo@string_class@@SAXPAPB_W0@Z 
01:00059FFC ?_create@string_class@@SAXHPB_WPAPB_W@Z 
01:0005A044 ?_tryCreate@string_class@@SAXHPB_WPAPB_W@Z 
--- From 'Obj\binary.obj'
01:0005A0B0 ?_createCopy@string_class@@SAXPB_WPAPB_W@Z 
--- From 'Obj\string.obj'
01:0005A100 ?hasPrefix@string_class@@SAXPB_W0PAPB_W@Z  (Idle)
01:0005A130 ?hasSuffix@string_class@@SAXPB_W0PAPB_W@Z  (Idle)
01:0005A1AC ?hasPrefixPtr@string_class@@SAXPAUcharPtr_struct@1@0PAPAU21@@Z 
--- From 'Obj\exception.obj'
01:0005A260 ?_concat@string_class@@SAXPB_W0PAPB_W@Z 
--- From 'Obj\exceptionDump.obj'
01:0005A328 ?_concat@string_class@@SAXPB_W00PAPB_W@Z 
--- From 'Obj\fileSystem.obj'
01:0005A438 ?_concat@string_class@@SAXPB_W000PAPB_W@Z 
--- From 'Obj\string.obj'
01:0005A490 ?_concat@string_class@@SAXPB_W0000PAPB_W@Z 
01:0005A4E8 ?_concat@string_class@@SAXPB_W00000PAPB_W@Z 
--- From 'Obj\fileSystem.obj'
01:0005A70C ?_concatList@string_class@@SAXPAU?$__list_struct@Ustring@@@@PAPB_W@Z 
--- From 'Obj\controls.obj'
01:0005A7D8 ?_concatWithDelimiter@string_class@@SAXPAU?$__list_struct@Ustring@@@@PB_WPAPB_W@Z 
--- From 'Obj\string.obj'
01:0005A95C ?concatListWithDelimiter@string_class@@SAXPAXPAU?$__list_struct@Ustring@@@@PAXHPAU?$__list_struct@UcharCount@core@@@@@Z 
01:0005AA28 ?_copyDelimiterIfNeeded@string_class@@SAXPAXPAU?$__list_struct@Ustring@@@@PAXHPAPAX@Z 
01:0005AA64 ?getStringListInfo@string_class@@SAXPAU?$__list_struct@Ustring@@@@IIPAIPAIPAPAU?$__list_struct@UcharCount@core@@@@@Z 
01:0005AB34 ?concatStringList@string_class@@SAXPAXPAU?$__list_struct@Ustring@@@@PAU?$__list_struct@UcharCount@core@@@@@Z 
--- From 'Obj\exception.obj'
01:0005AC80 ?equalIgnoreCase@string_class@@SAXPB_W0@Z 
--- From 'Obj\string.obj'
01:0005ACBC ?equalIgnoreCase@string_class@@SAXPB_W0I@Z  (Idle)
01:0005ACF4 ?_compareIgnoreCase@string_class@@SAXPB_W0PAPAUcompareResult_struct@_builtIn_class@@@Z  (Idle)
01:0005AE84 ?_compareIgnoreCase@string_class@@SAXPB_W0IPAPAUcompareResult_struct@_builtIn_class@@@Z  (Idle)
01:0005B00C ?_adjustRight@string_class@@SAXPB_WHPAPB_W@Z 
01:0005B044 ?_adjustRight@string_class@@SAXPB_WH0PAPB_W@Z 
01:0005B084 ?_adjustRight@string_class@@SAXPB_WH0PAUadjustBehaviour_struct@1@PAPB_W@Z 
01:0005B10C ?_adjustLeft@string_class@@SAXPB_WHPAPB_W@Z 
01:0005B144 ?_adjustLeft@string_class@@SAXPB_WH0PAPB_W@Z 
01:0005B184 ?_adjust@string_class@@SAXPB_WHPAUadjustSide_struct@1@PAPB_W@Z  (Idle)
01:0005B1AC ?_adjust@string_class@@SAXPB_WH0PAUadjustSide_struct@1@PAPB_W@Z  (Idle)
01:0005B1D4 ?_adjust@string_class@@SAXPB_WH0PAUadjustBehaviour_struct@1@PAUadjustSide_struct@1@PAPB_W@Z  (Idle)
01:0005B1FC ?_crop@string_class@@SAXPB_WHPAUadjustSide_struct@1@PAUadjustBehaviour_struct@1@PAPB_W@Z 
01:0005B2AC ?_adjustLeft@string_class@@SAXPB_WH0PAUadjustBehaviour_struct@1@PAPB_W@Z 
01:0005B328 ?_split@string_class@@SAXPB_W0PAPAU?$__list_struct@Ustring@@@@@Z 
--- From 'Obj\exceptionDump.obj'
01:0005B3CC ?format@string_class@@SAPB_W0@Z 
--- From 'Obj\string.obj'
01:0005B420 ?write@string_class@@SAPB_WXZ  (Idle)
--- From 'Obj\exe.obj'
01:0005B43C ?front@string_class@@SAXPB_WHPAPB_W2@Z 
--- From 'Obj\string.obj'
01:0005B4AC ?tryFront@string_class@@SAXPB_WHPAPB_W2@Z  (Idle)
01:0005B518 ?checkPosition@string_class@@SAXHH@Z 
01:0005B538 ?trycheckPosition@string_class@@SAXHH@Z 
--- From 'Obj\exe.obj'
01:0005B550 ?frontChar@string_class@@SAXPB_WPA_WPAPB_W@Z 
--- From 'Obj\fileSystem.obj'
01:0005B58C ?lastChar@string_class@@SAXPB_WPAPB_WPA_W@Z 
--- From 'Obj\string.obj'
01:0005B620 ?_toCharList@string_class@@SAXPB_WPAPAU?$__list_struct@Uchar@@@@@Z 
--- From 'Obj\exceptionDump.obj'
01:0005B694 ?frontToken@string_class@@SAXPB_WPAPB_W1@Z 
--- From 'Obj\string.obj'
01:0005B6CC ?isValidToRead@string_class@@SAXPB_W@Z  (Idle)
01:0005B6F0 ?_replace@string_class@@SAXPB_W00PAUcaseSensitivity_struct@1@PAPB_W@Z  (Idle)
01:0005B728 ?_replaceAll@string_class@@SAXPB_W00PAPB_W@Z 
01:0005B768 ?_replaceAll@string_class@@SAXPB_W00PAUcaseSensitivity_struct@1@PAPB_W@Z 
01:0005B7A0 ?_replaceAll@string_class@@SAXPB_W00PAUcaseSensitivity_struct@1@PAIPAPB_W@Z  (Idle)
01:0005B7D8 ?_caseToInteger@string_class@@SAXPAUcaseSensitivity_struct@1@PAH@Z 
01:0005B808 ?_replacePart@string_class@@SAXPB_WHH0PAPB_W@Z 
01:0005B984 ?_tryReplacePart@string_class@@SAXPB_WHH0PAPB_W@Z  (Idle)
01:0005BB00 ?_search@string_class@@SAXPB_W0PAH@Z 
--- From 'Obj\exe.obj'
01:0005BB38 ?_search@string_class@@SAXPB_W0PAUcaseSensitivity_struct@1@PAH@Z 
--- From 'Obj\fileSystem.obj'
01:0005BBAC ?_searchLast@string_class@@SAXPB_W0PAUcaseSensitivity_struct@1@PAH@Z 
--- From 'Obj\string.obj'
01:0005BC20 ?caseHandling@string_class@@SAXPAUcaseSensitivity_struct@1@PB_W1PAPB_W3@Z 
--- From 'Obj\controls.obj'
01:0005BC6C ?_subString@string_class@@SAXPB_WHHPAPB_W@Z 
--- From 'Obj\string.obj'
01:0005BCF8 ?_trySubString@string_class@@SAXPB_WHHPAPB_W@Z  (Idle)
01:0005BD84 ?_toUpperCase@string_class@@SAXPB_WPAPB_W@Z 
01:0005BDB0 ?_toLowerCase@string_class@@SAXPB_WPAPB_W@Z 
01:0005BDDC ?isUpperCase@string_class@@SAXPB_W@Z 
01:0005BE18 ?isLowerCase@string_class@@SAXPB_W@Z 
01:0005BE54 ?hasDecimalDigits@string_class@@SAXPB_W@Z 
01:0005BE70 ?isDecimalDigits@string_class@@SAXPB_W@Z 
01:0005BEC4 ?decimalDigit@string_class@@SAX_W@Z 
01:0005BF34 ?hasAlpha@string_class@@SAXPB_W@Z 
01:0005BF74 ?isWhiteSpace@string_class@@SAXPB_W@Z  (Idle)
--- From 'Obj\fileSystem.obj'
01:0005BF80 ?_split_delimiter@string_class@@SAXPB_W0PAPAU?$__list_struct@Ustring@@@@@Z 
--- From 'Obj\string.obj'
01:0005BFD8 ?_splitByString@string_class@@SAXPB_W0HPAPAU?$__list_struct@Ustring@@@@@Z 
01:0005C094 ?_split_length@string_class@@SAXPB_WPAU?$__list_struct@UcharCount@@@@PAPAU?$__list_struct@Ustring@@@@@Z  (Idle)
01:0005C0D0 ?_splitByList@string_class@@SAXPB_WHPAU?$__list_struct@UcharCount@core@@@@PAPAU?$__list_struct@Ustring@@@@@Z 
--- From 'Obj\controls.obj'
01:0005C1BC ?_trim@string_class@@SAXPB_WPAPB_W@Z 
--- From 'Obj\string.obj'
01:0005C1E4 ?_charToString@string_class@@SAX_WPAPB_W@Z 
01:0005C214 ?_charUpper@string_class@@SAX_WPA_W@Z  (Idle)
01:0005C258 ?_charLower@string_class@@SAX_WPA_W@Z  (Idle)
01:0005C29C ?splitStringBySeparators@string_class@@SAXPB_W0PAPB_WPA_W2@Z 
01:0005C310 ?_getSeparatorList@string_class@@SAXPB_WPAPAU?$__list_struct@Uchar@@@@@Z 
01:0005C384 ?_getMinPosition@string_class@@SAXPB_WPAU?$__list_struct@Uchar@@@@HPAH@Z 
01:0005C42C ?isName@string_class@@SAXPB_W@Z  (Idle)
01:0005C480 ?isLegalFrontCharOfName@string_class@@SAXPB_W@Z 
01:0005C4A0 ?isCorrectRemainderOfName@string_class@@SAXPB_W@Z 
01:0005C4F4 ?isCorrectRemainderCharOfName@string_class@@SAXPB_W@Z 
01:0005C528 ?isClassIdentifier@string_class@@SAXPB_W0@Z  (Idle)
01:0005C594 ?isObjectIdentifier@string_class@@SAXPB_W0@Z  (Idle)
01:0005C604 ?isCorrectMemberName@string_class@@SAXPB_W@Z 
01:0005C698 ?keywordString@string_class@@SAXPB_WPAPAUboolean_struct@_builtIn_class@@@Z 
01:0005CF20 ?isCorrectClassFrontChar@string_class@@SAXPB_W@Z 
01:0005CF3C ?_searchChar@string_class@@SAXPB_W_WPAH@Z  (Idle)
--- From 'Obj\fileSystem.obj'
01:0005CF78 ?_searchChar@string_class@@SAXPB_W_WPAUcaseSensitivity_struct@1@PAH@Z 
01:0005CFA4 ?_subchar@string_class@@SAXPB_WHPA_W@Z 
--- From 'Obj\string.obj'
01:0005D028 ?_trySubchar@string_class@@SAXPB_WHPA_W@Z  (Idle)
01:0005D0A8 ?_getCharValue@string_class@@SAX_WPA_W@Z  (Idle)
01:0005D0BC ?_getCharFromValue@string_class@@SAX_WPA_W@Z  (Idle)
01:0005D0D0 ?listToArray@string_class@@SAXPAU?$__list_struct@Ustring@@@@PAPAXPAI@Z  (Idle)
01:0005D168 ?_arrayToList@string_class@@SAXPAXIPAPAU?$__list_struct@Ustring@@@@@Z  (Idle)
01:0005D180 ?fillArray@string_class@@SAXPAXPAU?$__list_struct@Ustring@@@@@Z 
01:0005D1E4 ?_fillList@string_class@@SAXIIPAPAU?$__list_struct@Ustring@@@@@Z 
01:0005D260 ?_createFromCharList@string_class@@SAXPAU?$__list_struct@Uchar@@@@PAPB_W@Z 
01:0005D2A8 ?fillString@string_class@@SAXPB_WPAU?$__list_struct@Uchar@@@@@Z 
01:0005D320 ?isWhiteSpace@string_class@@SAX_W@Z  (Idle)
01:0005D32C ?keywordString@string_class@@SAXPB_WPAUboolean_struct@_builtIn_class@@@Z  (Idle)
01:0005DC88 isWhiteSpace_C 
01:0005DCC8 isWhiteSpace_S 
01:0005DD24 ?classInfo@inputStream_string_class@@SAXPAPB_W0@Z 
01:0005DD40 ?new@inputStream_string_class@@SAXQAVinputStream_string@@@PB_W@Z 
01:0005DDD8 ?endOfStream@inputStream_string_class@@SAXQAVinputStream@@@@Z 
01:0005DE44 ?setMode@inputStream_string_class@@SGXQAVinputSupport@@@PAUmode_struct@stream_class@@@Z 
01:0005DE98 ?makeEven_ifUnicode@inputStream_string_class@@SAXQAVinputStream_string@@@PAUmode_struct@stream_class@@@Z 
01:0005DF54 ?close@inputStream_string_class@@SGXQAVstream@@@@Z 
01:0005DF70 ?getCRLFconversion@inputStream_string_class@@SGPAUboolean_struct@_builtIn_class@@QAVstream@@@@Z 
01:0005DF84 ?setCRLFconversion@inputStream_string_class@@SGXQAVstream@@@PAUboolean_struct@_builtIn_class@@@Z 
01:0005DFA4 ?getPosition@inputStream_string_class@@SGPAUunsigned64_struct@core_class@@QAVstream@@@@Z 
01:0005E00C ?setPosition@inputStream_string_class@@SGXQAVstream@@@PAUunsigned64_struct@core_class@@@Z 
01:0005E11C ?checkOddness@inputStream_string_class@@SAXPAUmode_struct@stream_class@@H@Z 
01:0005E178 ?getBuffer@inputStream_string_class@@SGXQAVbufferSupport@@@PAPAXPAH@Z 
01:0005E194 ?getBufferLocked@inputStream_string_class@@SGXQAVbufferSupport@@@PAPAXPAH@Z 
01:0005E1B0 ?_new@inputStream_string_class@@SAXPB_WPAPAVinputStream@@@@Z  (Idle)
01:0005E1DC ?_object_facts_initializer@inputStream_string_class@@SGXQAVinputStream_string@@@@Z 
01:0005E1F8 ?classInfo@outputStream_string_class@@SAXPAPB_W0@Z 
01:0005E214 ?new@outputStream_string_class@@SAXQAVoutputStream_string@@@@Z 
01:0005E2E4 ?setMode@outputStream_string_class@@SGXQAVstream@@@PAUmode_struct@stream_class@@@Z 
01:0005E338 ?makeEven_ifUnicode@outputStream_string_class@@SAXQAVoutputStream_string@@@PAUmode_struct@stream_class@@@Z 
01:0005E3F4 ?flush@outputStream_string_class@@SGXQAVoutputStream@@@@Z 
01:0005E404 ?close@outputStream_string_class@@SGXQAVstream@@@@Z 
01:0005E4A8 ?bufferFullCallBack@outputStream_string_class@@SAXQAVoutputStream_string@@@PAPAXPAH@Z 
01:0005E548 ?get_buffer_from_db@outputStream_string_class@@SAXQAVoutputStream_string@@@IPAPAXPAH@Z 
01:0005E5C0 ?_getString@outputStream_string_class@@SAXQAVoutputStream_string@@@PAPB_W@Z 
01:0005E730 ?writeBuffersToString@outputStream_string_class@@SGXQAVoutputStream_string@@@I@Z 
01:0005E7BC ?getPosition@outputStream_string_class@@SGPAUunsigned64_struct@core_class@@QAVstream@@@@Z 
01:0005E8A0 ?setPosition@outputStream_string_class@@SGXQAVstream@@@PAUunsigned64_struct@core_class@@@Z 
01:0005E924 ?checkOddness@outputStream_string_class@@SAXPAUmode_struct@stream_class@@H@Z 
01:0005E980 ?handleSetOffset@outputStream_string_class@@SAXQAVoutputStream_string@@@H@Z 
01:0005EA70 ?updateCurrentBuffer@outputStream_string_class@@SAXQAVoutputStream_string@@@@Z 
01:0005EBF8 ?findBufferForOffset@outputStream_string_class@@SAXQAVoutputStream_string@@@HPAIPAPAXPAHPAI@Z 
01:0005ECCC ?handleBiggerOffset@outputStream_string_class@@SAXQAVoutputStream_string@@@H@Z 
01:0005EEF4 ?_newBuffer@outputStream_string_class@@SAXQAVoutputStream_string@@@HPAPAX@Z 
01:0005EFAC ?_getSizeBefore@outputStream_string_class@@SAXQAVoutputStream_string@@@PAH@Z 
01:0005F064 ?bufferNotFound_exception@outputStream_string_class@@SGXI@Z 
01:0005F0A8 ?checkUsePrevBuff@outputStream_string_class@@SAXQAVoutputStream_string@@@@Z 
01:0005F14C ?getBuffer@outputStream_string_class@@SGXQAVbufferSupport@@@PAPAXPAH@Z 
01:0005F1EC ?getBufferLocked@outputStream_string_class@@SGXQAVbufferSupport@@@PAPAXPAH@Z 
--- From 'Obj\environment.obj'
01:0005F208 ?_new@outputStream_string_class@@SAXPAPAVoutputStream_string@@@@Z 
--- From 'Obj\string.obj'
01:0005F230 ?_object_facts_initializer@outputStream_string_class@@SGXQAVoutputStream_string@@@@Z 
01:0005F25C ?classInfo@string_exception_class@@SAXPAPB_W0@Z 
01:0005F278 ?emptyString@string_exception_class@@SAXPAXPAPB_W1@Z 
--- From 'Obj\exception.obj'
01:0005F2A0 ?format_exceptionHandler@string_exception_class@@SGXPBUtraceId@exception@@PB_W@Z 
--- From 'Obj\string.obj'
01:0005F390 ?outOfBoundaries@string_exception_class@@SAXPAXPAPB_W1@Z 
01:0005F3B8 ?oddOffset@string_exception_class@@SAXPAXPAPB_W1@Z 
01:0005F3E0 ?raise_EmptyString@string_exception_class@@SGXX@Z 
01:0005F3FC ?raise_OutOfBoundaries@string_exception_class@@SGXXHH@Z 
--- From 'Obj\fileSystem.obj'
01:0005F4E8 ?raise_OddOffset@string_exception_class@@SGXXH@Z 
--- From 'Obj\string.obj'
01:0005F7D0 ?_initObject@inputStream_string@@QAGXQAV1@H@Z 
01:0005F808 ?@create_object@inputStream_string_class@@SGQAVinputStream_string@@@XZ 
01:0005F824 ?_InternalFinalizer@inputStream_string@@QAGXQAV1@@Z 
01:0005FAB8 ?_initObject@outputStream_string@@QAGXQAV1@H@Z 
01:0005FAF0 ?@create_object@outputStream_string_class@@SGQAVoutputStream_string@@@XZ 
01:0005FB0C ?_InternalFinalizer@outputStream_string@@QAGXQAV1@@Z 
--- From 'Obj\stream.obj'
01:0005FB20 ?classInfo@stdIOState_class@@SAXPAPB_W0@Z 
01:0005FB3C ?setInputStream@stdIOState_class@@SAXQAVstdIOState@@@QAVinputStream@@@@Z 
01:0005FB88 ?_getInputStream@stdIOState_class@@SAXQAVstdIOState@@@PAPAVinputStream@@@@Z 
01:0005FBD4 ?_tryGetInputStream@stdIOState_class@@SAXQAVstdIOState@@@PAPAVinputStream@@@@Z 
01:0005FBFC ?setOutputStream@stdIOState_class@@SAXQAVstdIOState@@@QAVoutputStream@@@@Z 
01:0005FC48 ?_getOutputStream@stdIOState_class@@SAXQAVstdIOState@@@PAPAVoutputStream@@@@Z 
01:0005FC94 ?_tryGetOutputStream@stdIOState_class@@SAXQAVstdIOState@@@PAPAVoutputStream@@@@Z 
01:0005FCBC ?setErrorStream@stdIOState_class@@SAXQAVstdIOState@@@QAVoutputStream@@@@Z 
01:0005FD08 ?_getErrorStream@stdIOState_class@@SAXQAVstdIOState@@@PAPAVoutputStream@@@@Z 
01:0005FD54 ?_tryGetErrorStream@stdIOState_class@@SAXQAVstdIOState@@@PAPAVoutputStream@@@@Z 
01:0005FD7C ?new@stdIOState_class@@SAXQAVstdIOState@@@@Z 
01:0005FD84 ?_new@stdIOState_class@@SAXPAPAVstdIOState@@@@Z 
01:0005FDAC ?classInfo@stdio_class@@SAXPAPB_W0@Z 
--- From 'Obj\console.obj'
01:0005FDC8 ?setInputStream@stdio_class@@SAXQAVinputStream@@@@Z 
--- From 'Obj\stream.obj'
01:0005FDFC ?_getInputStream@stdio_class@@SAXPAPAVinputStream@@@@Z  (Idle)
01:0005FE30 ?_tryGetInputStream@stdio_class@@SAXPAPAVinputStream@@@@Z  (Idle)
--- From 'Obj\console.obj'
01:0005FE64 ?setOutputStream@stdio_class@@SAXQAVoutputStream@@@@Z 
--- From 'Obj\stream.obj'
01:0005FE98 ?_getOutputStream@stdio_class@@SAXPAPAVoutputStream@@@@Z 
--- From 'Obj\exceptionDump.obj'
01:0005FECC ?_tryGetOutputStream@stdio_class@@SAXPAPAVoutputStream@@@@Z 
--- From 'Obj\console.obj'
01:0005FF00 ?setErrorStream@stdio_class@@SAXQAVoutputStream@@@@Z 
--- From 'Obj\stream.obj'
01:0005FF34 ?_getErrorStream@stdio_class@@SAXPAPAVoutputStream@@@@Z  (Idle)
01:0005FF68 ?_tryGetErrorStream@stdio_class@@SAXPAPAVoutputStream@@@@Z  (Idle)
01:0005FF9C ?write@stdio_class@@SAXXZ 
01:00060008 ?nl@stdio_class@@SAXXZ  (Idle)
01:00060064 ?writef@stdio_class@@SAXPB_W@Z  (Idle)
01:000600D8 ?writeQuoted@stdio_class@@SAXXZ  (Idle)
01:00060144 ?writeBytes@stdio_class@@SAXPAXH@Z  (Idle)
01:000601A8 ?save@stdio_class@@SAXPBUfactDB@@@Z  (Idle)
01:0006020C ?flush@stdio_class@@SAXXZ  (Idle)
01:00060268 ?write_error@stdio_class@@SAXXZ  (Idle)
01:000602D4 ?writef_error@stdio_class@@SAXPB_W@Z  (Idle)
01:00060348 ?writeBytes_error@stdio_class@@SAXPAXH@Z  (Idle)
01:000603AC ?writeQuoted_error@stdio_class@@SAXXZ  (Idle)
01:00060418 ?nl_error@stdio_class@@SAXXZ  (Idle)
01:00060474 ?save_error@stdio_class@@SAXPBUfactDB@@@Z  (Idle)
01:000604D8 ?flush_error@stdio_class@@SAXXZ  (Idle)
01:00060534 ?_read@stdio_class@@SAXQAVrTypeLibrary@TypeLibraries@RunTime@VIP@@PAPAX@Z  (Idle)
01:000605A8 ?_readChar@stdio_class@@SAXPA_W@Z  (Idle)
01:00060614 ?ungetChar@stdio_class@@SAXXZ  (Idle)
01:00060674 ?_readLine@stdio_class@@SAXPAPB_W@Z  (Idle)
01:000606E0 ?_readString@stdio_class@@SAXHPAPB_W@Z  (Idle)
01:00060754 ?_readBytes@stdio_class@@SAXHQAPAE@Z  (Idle)
01:000607C8 ?consult@stdio_class@@SAXPBUfactDB@@@Z  (Idle)
01:00060834 ?endOfStream@stdio_class@@SAXXZ  (Idle)
01:00060894 ?_getStdIOState@stdio_class@@SAXPAPAVstdIOState@@@@Z 
01:00060914 ?setStdIOState@stdio_class@@SAXQAVstdIOState@@@@Z  (Idle)
01:00060958 ?classInfo@stream_exception_class@@SAXPAPB_W0@Z 
--- From 'Obj\binary.obj'
01:00060974 ?raise_EndOfStream@stream_exception_class@@SGXX@Z 
--- From 'Obj\fileSystem.obj'
01:00060990 ?raise_notSupportedProperty@stream_exception_class@@SGXX@Z 
--- From 'Obj\binary.obj'
01:000609AC ?raise_NoCRLFconversion@stream_exception_class@@SGXX@Z 
01:000609C8 ?raise_WrongMode@stream_exception_class@@SGXXPB_W1@Z 
--- From 'Obj\stream.obj'
01:00060A88 ?raise_NoStream@stream_exception_class@@SGXXPB_W@Z 
01:00060AFC ?endOfStream@stream_exception_class@@SAXPAXPAPB_W1@Z 
01:00060B24 ?notSupportedProperty@stream_exception_class@@SAXPAXPAPB_W1@Z 
01:00060B4C ?noCRLFconversion@stream_exception_class@@SAXPAXPAPB_W1@Z 
01:00060B74 ?wrongMode@stream_exception_class@@SAXPAXPAPB_W1@Z 
01:00060B9C ?noStream@stream_exception_class@@SAXPAXPAPB_W1@Z 
01:00060BCC ?_initObject@stdIOState@@QAGXQAV1@H@Z 
01:00060BE4 ?@create_object@stdIOState_class@@SGQAVstdIOState@@@XZ 
01:00060C00 ?_InternalFinalizer@stdIOState@@QAGXQAV1@@Z 
--- From 'Obj\outputStreamSupport.obj'
01:00060C10 ?classInfo@outputSupport_class@@SAXPAPB_W0@Z 
--- From 'Obj\binary.obj'
01:00060C2C ?new@outputSupport_class@@SAXQAVoutputSupport@@@QAVoutputBuffer@@@PAUmode_struct@stream_class@@PAUboolean_struct@_builtIn_class@@@Z 
--- From 'Obj\outputStreamSupport.obj'
01:00060C70 ?setMode@outputSupport_class@@SGXQAVstream@@@PAUmode_struct@stream_class@@@Z 
01:00060CA8 ?getMode@outputSupport_class@@SGPAUmode_struct@stream_class@@QAVstream@@@@Z 
01:00060CD8 ?flush@outputSupport_class@@SGXQAVoutputStream@@@@Z 
01:00060CFC ?getPosition@outputSupport_class@@SGPAUunsigned64_struct@core_class@@QAVstream@@@@Z 
01:00060D0C ?setPosition@outputSupport_class@@SGXQAVstream@@@PAUunsigned64_struct@core_class@@@Z 
01:00060D1C ?getCRLFconversion@outputSupport_class@@SGPAUboolean_struct@_builtIn_class@@QAVstream@@@@Z 
01:00060D30 ?setCRLFconversion@outputSupport_class@@SGXQAVstream@@@PAUboolean_struct@_builtIn_class@@@Z 
01:00060D50 ?close@outputSupport_class@@SGXQAVstream@@@@Z 
01:00060D60 ?_getFlushProcedure@outputSupport_class@@SAXQAVoutputSupport@@@PAUboolean_struct@_builtIn_class@@PAX@Z 
01:00060DC8 ?doFlush@outputSupport_class@@SAXQAVoutputSupport@@@@Z 
01:00060DD8 ?doNotFlush@outputSupport_class@@SAXQAVoutputSupport@@@@Z 
01:00060DE0 ?write@outputSupport_class@@SAXQAVoutputStream@@@@Z 
01:00060E3C ?writeQuoted@outputSupport_class@@SAXQAVoutputStream@@@@Z 
01:00060EA4 ?writef@outputSupport_class@@SAXQAVoutputStream@@@PB_W@Z 
01:00060F44 ?nl@outputSupport_class@@SGXQAVoutputStream@@@@Z 
01:00060F84 ?save@outputSupport_class@@SGXQAVoutputStream@@@PBUfactDB@@@Z 
01:00060FF0 ?writeBytes@outputSupport_class@@SGXQAVoutputStream@@@PAXH@Z 
01:000610AC ?checkMode_text@outputSupport_class@@SAXQAVoutputSupport@@@PB_W@Z 
--- From 'Obj\messageControl.obj'
01:000610F0 ?_new@outputSupport_class@@SAXQAVoutputBuffer@@@PAUmode_struct@stream_class@@PAUboolean_struct@_builtIn_class@@PAPAVoutputSupport@@@@Z 
--- From 'Obj\binary.obj'
01:00061128 ?_initObject@outputSupport@@QAGXQAV1@H@Z 
--- From 'Obj\outputStreamSupport.obj'
01:00061140 ?@create_object@outputSupport_class@@SGQAVoutputSupport@@@XZ 
--- From 'Obj\binary.obj'
01:0006115C ?_InternalFinalizer@outputSupport@@QAGXQAV1@@Z 
--- From 'Obj\inputStreamSupport.obj'
01:00061170 ?classInfo@inputSupport_class@@SAXPAPB_W0@Z 
--- From 'Obj\binary.obj'
01:0006118C ?new@inputSupport_class@@SAXQAVinputSupport@@@QAVinputBuffer@@@PAUmode_struct@stream_class@@@Z 
--- From 'Obj\inputStreamSupport.obj'
01:000611C8 ?setMode@inputSupport_class@@SGXQAVinputSupport@@@PAUmode_struct@stream_class@@@Z 
01:00061200 ?getMode@inputSupport_class@@SGPAUmode_struct@stream_class@@QAVinputSupport@@@@Z 
01:00061220 ?_readChar@inputSupport_class@@SAXQAVinputSupport@@@PA_W@Z 
01:00061254 ?ungetChar@inputSupport_class@@SAXQAVinputSupport@@@@Z 
01:00061284 ?_readLine@inputSupport_class@@SAXQAVinputSupport@@@PAPB_W@Z 
01:000612B8 ?_read@inputSupport_class@@SAXQAVinputSupport@@@QAVrTypeLibrary@TypeLibraries@RunTime@VIP@@PAPAX@Z 
01:000612E4 ?consult@inputSupport_class@@SAXQAVinputSupport@@@PBUfactDB@@@Z 
01:00061314 ?reconsult@inputSupport_class@@SAXQAVinputSupport@@@PBUfactDB@@@Z 
01:00061328 ?_readBytes@inputSupport_class@@SAXQAVinputSupport@@@HQAPAE@Z 
01:0006138C ?_readString@inputSupport_class@@SAXQAVinputSupport@@@HPAPB_W@Z 
01:000613C4 ?checkMode_text@inputSupport_class@@SAXQAVinputSupport@@@PB_W@Z 
01:000613F4 ?_convertMode@inputSupport_class@@SAXPAUmode_struct@stream_class@@PAH@Z 
01:00061420 ?_new@inputSupport_class@@SAXQAVinputBuffer@@@PAUmode_struct@stream_class@@PAPAVinputSupport@@@@Z  (Idle)
--- From 'Obj\binary.obj'
01:00061458 ?_initObject@inputSupport@@QAGXQAV1@H@Z 
--- From 'Obj\inputStreamSupport.obj'
01:00061470 ?@create_object@inputSupport_class@@SGQAVinputSupport@@@XZ 
--- From 'Obj\binary.obj'
01:0006148C ?_InternalFinalizer@inputSupport@@QAGXQAV1@@Z 
--- From 'Obj\std.obj'
01:000614A0 ?classInfo@std_class@@SAXPAPB_W0@Z  (Idle)
--- From 'Obj\exception.obj'
01:000614BC ?_fromTo@std_class@@SAXHHPAH@Z 
--- From 'Obj\std.obj'
01:00061510 ?_downTo@std_class@@SAXHHPAH@Z 
--- From 'Obj\programControl.obj'
01:00061568 ?_between@std_class@@SAXHHPAH@Z 
--- From 'Obj\std.obj'
01:00061618 ?_fromToInStep@std_class@@SAXHHHPAH@Z 
01:00061670 ?_downToInStep@std_class@@SAXHHHPAH@Z 
--- From 'Obj\programControl.obj'
01:000616C8 ?_betweenInStep@std_class@@SAXHHHPAH@Z 
01:00061788 ?_countFrom@std_class@@SAXHPAH@Z 
01:000617C0 ?_countFromInStep@std_class@@SAXHHPAH@Z 
--- From 'Obj\std.obj'
01:000617FC ?_countDownFrom@std_class@@SAXHPAH@Z 
01:0006183C ?_countDownFromInStep@std_class@@SAXHHPAH@Z 
--- From 'Obj\programControl.obj'
01:0006187C ?repeat@std_class@@SAXXZ 
--- From 'Obj\std.obj'
01:0006189C ?for@std_class@@SAXPAHHH@Z  (Idle)
01:000618C0 ?for@std_class@@SAXPAHHHH@Z  (Idle)
01:000618EC ?downto@std_class@@SAXPAHHH@Z  (Idle)
01:00061910 ?_fromTo@std_class@@SAXIIPAI@Z 
01:00061968 ?_downTo@std_class@@SAXIIPAI@Z 
--- From 'Obj\registry.obj'
01:000619C0 ?classInfo@registry_class@@SAXPAPB_W0@Z 
01:000619DC ?createKey@registry_class@@SAXPAUrootKey_struct@1@PB_W@Z  (Idle)
01:00061A2C ?existKey@registry_class@@SAXPAUrootKey_struct@1@PB_W@Z  (Idle)
01:00061A70 ?deleteKey@registry_class@@SAXPAUrootKey_struct@1@PB_W@Z 
01:00061AC0 ?deleteKeyList@registry_class@@SAXPAUrootKey_struct@1@PB_WPAU?$__list_struct@Ustring@@@@@Z 
01:00061B20 ?setValue@registry_class@@SAXPAUrootKey_struct@1@PB_WPAU?$__list_struct@UnamedValue@@@@@Z  (Idle)
01:00061C3C ?setValuesToKey@registry_class@@SAXIPAU?$__list_struct@UnamedValue@@@@@Z 
01:00061C8C ?_getValue@registry_class@@SAXPAUrootKey_struct@1@PB_W1PAPAUvalue_struct@core_class@@@Z 
01:00061D34 ?_tryGetValue@registry_class@@SAXPAUrootKey_struct@1@PB_W1PAPAUvalue_struct@core_class@@@Z  (Idle)
01:00061E2C ?removeValue@registry_class@@SAXPAUrootKey_struct@1@PB_WPAU?$__list_struct@Ustring@@@@@Z  (Idle)
01:00061ED0 ?removeListValues@registry_class@@SAXIPAU?$__list_struct@Ustring@@@@@Z 
01:00061F1C ?_getSubkeys@registry_class@@SAXPAUrootKey_struct@1@PB_WPAPAU?$__list_struct@Ustring@@@@@Z 
01:00061FC0 ?_getAllValues@registry_class@@SAXPAUrootKey_struct@1@PB_WPAPAU?$__list_struct@UnamedValue@@@@@Z  (Idle)
01:00062064 ?_getRootKeyHandle@registry_class@@SAXPAUrootKey_struct@1@PAI@Z 
01:000620C8 ?classInfo@registry_exception_class@@SAXPAPB_W0@Z 
01:000620E4 ?wrongValue@registry_exception_class@@SAXPAXPAPB_W1@Z 
01:0006210C ?noPath@registry_exception_class@@SAXPAXPAPB_W1@Z 
01:00062134 ?cannotCreateKey@registry_exception_class@@SAXPAXPAPB_W1@Z 
01:0006215C ?raise_WrongValue@registry_exception_class@@SGXXIPAUrootKey_struct@registry_class@@PB_W3@Z  (Idle)
01:000622E0 ?raise_noPath@registry_exception_class@@SGXXIPAUrootKey_struct@registry_class@@PB_W3@Z  (Idle)
01:00062464 ?raise_CannotCreateKey@registry_exception_class@@SGXXIPAUrootKey_struct@registry_class@@PB_W@Z  (Idle)
01:00062598 ?_getSystemDescription@registry_exception_class@@SAXIPAPB_W@Z 
01:000625DC ?_getRootKeyName@registry_exception_class@@SAXPAUrootKey_struct@registry_class@@PAPB_W@Z 
--- From 'Obj\regExp.obj'
01:00062650 ?classInfo@regExp_exception_class@@SAXPAPB_W0@Z 
01:0006266C ?invalidPattern@regExp_exception_class@@SAXPAXPAPB_W1@Z 
01:00062694 ?classInfo@regExp_class@@SAXPAPB_W0@Z 
01:000626B0 ?checkRes@regExp_class@@SAXHPB_W@Z 
01:000627A0 ?new@regExp_class@@SAXQAVregExp@@@PB_WPAUboolean_struct@_builtIn_class@@@Z 
01:000627E4 ?searchPos@regExp_class@@SAXQAVregExp@@@PB_WHHPAHPAH@Z 
01:00062820 ?search@regExp_class@@SAXQAVregExp@@@PB_WPAHPAH@Z 
01:0006285C ?match@regExp_class@@SAXQAVregExp@@@PB_WPAHPAHPAPAU?$__list_struct@Ustring@@@@@Z 
01:000628AC ?matchPos@regExp_class@@SAXQAVregExp@@@PB_WHHPAHPAHPAPAU?$__list_struct@Ustring@@@@@Z 
01:00062900 ?_search_and_replace@regExp_class@@SAXQAVregExp@@@PB_WHH1PAHPAHPAPB_W@Z 
01:00062954 ?searchPos@regExp_class@@SAXPB_W0PAUboolean_struct@_builtIn_class@@HHPAHPAH@Z  (Idle)
01:0006299C ?search@regExp_class@@SAXPB_W0PAHPAH@Z  (Idle)
01:000629D0 ?_replace@regExp_class@@SAXPB_W00PAPB_W@Z  (Idle)
01:00062A34 ?_processString@regExp_class@@SAXPBUinfoData@@PB_W11PAPB_W@Z 
01:00062B04 ?_search_and_replace@regExp_class@@SAXPB_W0PAUboolean_struct@_builtIn_class@@HH0PAHPAHPAPB_W@Z  (Idle)
01:00062B90 ?_search_compile@regExp_class@@SAXPB_W0PAHPAHPAH@Z 
01:00062BC8 ?_search_nocompile@regExp_class@@SAXPBUinfoData@@PB_WPAHPAHPAH@Z 
01:00062C00 ?_match_nocompile@regExp_class@@SAXPBUinfoData@@PB_WPAPAU?$__list_struct@Ustring@@@@PAH@Z 
01:00062C34 ?_new@regExp_class@@SAXPB_WPAUboolean_struct@_builtIn_class@@PAPAVregExp@@@@Z 
01:00062C6C ?_initObject@regExp@@QAGXQAV1@H@Z 
01:00062C84 ?@create_object@regExp_class@@SGQAVregExp@@@XZ 
01:00062CA0 ?_InternalFinalizer@regExp@@QAGXQAV1@@Z 
--- From 'Obj\programControl.obj'
01:00062CB0 ?classInfo@programControl_class@@SAXPAPB_W0@Z  (Idle)
01:00062CCC ?repeat@programControl_class@@SAXXZ  (Idle)
01:00062CD4 ?_sequence_multi@programControl_class@@SAXHHPAH@Z  (Idle)
01:00062CE0 ?_sequence_nd@programControl_class@@SAXHHHPAH@Z  (Idle)
01:00062CEC ?_sequenceUnlimited_multi@programControl_class@@SAXHPAH@Z  (Idle)
01:00062CF8 ?_sequenceUnlimited_multi@programControl_class@@SAXHHPAH@Z  (Idle)
01:00062D04 ?_unpackCursor@programControl_class@@SAXPAUpackedCursor_struct@1@PAPAUcursor_struct@1@@Z  (Idle)
--- From 'Obj\exe.obj'
01:00062D7C ?setRuntimeExceptionRaiser@programControl_class@@SAXXPAX@Z 
--- From 'Obj\programControl.obj'
01:00062DC0 ?RemoveMe  (Idle)
--- From 'Obj\profile.obj'
01:00062DD0 ?classInfo@profileCount_class@@SAXPAPB_W0@Z  (Idle)
01:00062DEC ?transferSupport@profileCount_class@@SGXPB_WIPAUinteger64_struct@core_class@@@Z 
01:00062E34 ?getEntry_nd@profileCount_class@@SAXPAPB_WPAIPAPAUinteger64_struct@core_class@@@Z 
01:00062F18 ?print@profileCount_class@@SAXQAVoutputStream@@@@Z  (Idle)
01:00062FDC ?writeLine@profileCount_class@@SAXQAVoutputStream@@@PB_WIPAUinteger64_struct@core_class@@@Z 
01:00063118 ?_getTime@profileCount_class@@SAXPAUinteger64_struct@core_class@@PAPAN@Z 
01:000631E8 ?_class_facts_initializer@profileCount_class@@SGXXZ 
01:0006320C ?_time_now@profileTime_class@@SAXPAPAUunsigned64_struct@core_class@@@Z 
01:00063270 ?_getTime@profileTime_class@@SAXPAUunsigned64_struct@core_class@@PAPAN@Z 
01:00063428 ?getCostCenter@profileTime_class@@SAXPBUcostName@@PAIPAPAUunsigned64_struct@core_class@@2@Z 
01:0006350C ?popOpenCostCenter@profileTime_class@@SAXAAUcostName@@PAPAUstart_stop_struct@1@PAPAUunsigned64_struct@core_class@@2@Z 
01:000635F8 ?init@profileTime_class@@SAXXZ 
01:00063794 ?start@profileTime_class@@SAXPBUcostName@@PAUboolean_struct@_builtIn_class@@@Z  (Idle)
01:000637B0 ?start@profileTime_class@@SAXPBUcostName@@@Z 
01:00063814 ?stop@profileTime_class@@SAXPBUcostName@@PAUboolean_struct@_builtIn_class@@@Z  (Idle)
01:00063830 ?stop@profileTime_class@@SAXPBUcostName@@@Z 
01:00063894 ?start_pr@profileTime_class@@SAXPBUcostName@@PAUboolean_struct@_builtIn_class@@@Z  (Idle)
01:000638AC ?start_pr@profileTime_class@@SAXPBUcostName@@@Z 
01:000638D4 ?stop_pr@profileTime_class@@SAXPBUcostName@@PAUboolean_struct@_builtIn_class@@@Z  (Idle)
01:000638EC ?stop_pr@profileTime_class@@SAXPBUcostName@@@Z 
01:00063914 ?enterCostCenter@profileTime_class@@SAXPBUcostName@@PAUstart_stop_struct@1@@Z 
01:00063970 ?updateCostCenter@profileTime_class@@SAXPBUcostName@@0PAUstart_stop_struct@1@2PAUunsigned64_struct@core_class@@4@Z 
01:00063C14 ?leaveCostCenter@profileTime_class@@SAXPBUcostName@@PAUstart_stop_struct@1@@Z 
01:00063C74 ?_avarage@profileTime_class@@SAXIPANPAPAN@Z 
01:00063CD4 ?statistics_nd@profileTime_class@@SAXAAUcostName@@PAIPAPAN222@Z 
01:00063DCC ?printAndReset@profileTime_class@@SAXQAVoutputStream@@@PAUboolean_struct@_builtIn_class@@@Z  (Idle)
01:00063DE4 ?printAndReset@profileTime_class@@SAXQAVoutputStream@@@@Z 
01:000640F4 ?printToCsvAndReset@profileTime_class@@SAXPB_WQAVoutputStream@@@@Z  (Idle)
01:0006423C ?classInfo@profileTime_class@@SAXPAPB_W0@Z  (Idle)
01:00064258 ?save@profileTime_class@@SAXQAVoutputStream@@@@Z  (Idle)
01:00064270 ?consult@profileTime_class@@SAXQAVinputStream@@@@Z  (Idle)
01:00064298 ?statistics_nd@profileTime_class@@SAXPBUcostName@@PAIPAPAN222@Z  (Idle)
01:00064394 ?_class_facts_initializer@profileTime_class@@SGXXZ 
01:000643BC ?profileBegin@profileMemory_class@@SAXPB_WPAUboolean_struct@_builtIn_class@@@Z  (Idle)
01:000643D4 ?profileEnd@profileMemory_class@@SAXPAUboolean_struct@_builtIn_class@@@Z  (Idle)
01:000643EC ?bookmark@profileMemory_class@@SAXPB_WPAUboolean_struct@_builtIn_class@@@Z  (Idle)
01:00064404 ?profileBegin@profileMemory_class@@SAXPB_W@Z 
--- From 'Obj\namedValue.obj'
01:00064550 ?classInfo@namedValue_class@@SAXPAPB_W0@Z 
--- From 'Obj\exceptionDump.obj'
01:0006456C ?_tryMapLookUp@namedValue_class@@SAXPAU?$__list_struct@UnamedValue@@@@PB_WPAPAUvalue_struct@core_class@@@Z 
--- From 'Obj\namedValue.obj'
01:000645D0 ?_tryMapLookUpIgnoreCase@namedValue_class@@SAXPAU?$__list_struct@UnamedValue@@@@PB_WPAPAUvalue_struct@core_class@@@Z 
01:0006463C ?_mapLookUp@namedValue_class@@SAXPAU?$__list_struct@UnamedValue@@@@PB_WPAPAUvalue_struct@core_class@@@Z 
01:00064748 ?nameNotInMap@namedValue_class@@SAXPAXPAPB_W1@Z 
01:00064770 ?_mapLookUp@namedValue_class@@SAXPAU?$__list_struct@UnamedValue@@@@PB_WPAUvalue_struct@core_class@@PAPAU34@@Z  (Idle)
01:000647AC ?_lookUp_nd@namedValue_class@@SAXPAU?$__list_struct@UnamedValue@@@@PB_WPAPAUvalue_struct@core_class@@@Z 
01:0006481C ?_getNamed_integer@namedValue_class@@SAXPAU?$__list_struct@UnamedValue@@@@PB_WPAH@Z  (Idle)
01:0006484C ?_tryGetNamed_integer@namedValue_class@@SAXPAU?$__list_struct@UnamedValue@@@@PB_WPAH@Z  (Idle)
01:00064890 ?_getNamedDefault_integer@namedValue_class@@SAXPAU?$__list_struct@UnamedValue@@@@PB_WHPAH@Z  (Idle)
01:000648E8 ?_getNamed_unsigned@namedValue_class@@SAXPAU?$__list_struct@UnamedValue@@@@PB_WPAI@Z  (Idle)
01:00064918 ?_tryGetNamed_unsigned@namedValue_class@@SAXPAU?$__list_struct@UnamedValue@@@@PB_WPAI@Z  (Idle)
01:0006495C ?_getNamedDefault_unsigned@namedValue_class@@SAXPAU?$__list_struct@UnamedValue@@@@PB_WIPAI@Z  (Idle)
01:000649B4 ?_getNamed_real@namedValue_class@@SAXPAU?$__list_struct@UnamedValue@@@@PB_WPAPAN@Z  (Idle)
01:000649E4 ?_tryGetNamed_real@namedValue_class@@SAXPAU?$__list_struct@UnamedValue@@@@PB_WPAPAN@Z  (Idle)
01:00064A28 ?_getNamedDefault_real@namedValue_class@@SAXPAU?$__list_struct@UnamedValue@@@@PB_WPANPAPAN@Z  (Idle)
01:00064A80 ?_getNamed_char@namedValue_class@@SAXPAU?$__list_struct@UnamedValue@@@@PB_WPA_W@Z  (Idle)
01:00064AB0 ?_tryGetNamed_char@namedValue_class@@SAXPAU?$__list_struct@UnamedValue@@@@PB_WPA_W@Z  (Idle)
01:00064AF8 ?_getNamedDefault_char@namedValue_class@@SAXPAU?$__list_struct@UnamedValue@@@@PB_W_WPA_W@Z  (Idle)
01:00064B58 ?_getNamed_string@namedValue_class@@SAXPAU?$__list_struct@UnamedValue@@@@PB_WPAPB_W@Z  (Idle)
--- From 'Obj\exception.obj'
01:00064B88 ?_tryGetNamed_string@namedValue_class@@SAXPAU?$__list_struct@UnamedValue@@@@PB_WPAPB_W@Z 
--- From 'Obj\namedValue.obj'
01:00064BCC ?_getNamedDefault_string@namedValue_class@@SAXPAU?$__list_struct@UnamedValue@@@@PB_W1PAPB_W@Z  (Idle)
01:00064C24 ?_getNamed_boolean@namedValue_class@@SAXPAU?$__list_struct@UnamedValue@@@@PB_WPAPAUboolean_struct@_builtIn_class@@@Z  (Idle)
01:00064C54 ?_tryGetNamed_boolean@namedValue_class@@SAXPAU?$__list_struct@UnamedValue@@@@PB_WPAPAUboolean_struct@_builtIn_class@@@Z  (Idle)
01:00064C98 ?_getNamedDefault_boolean@namedValue_class@@SAXPAU?$__list_struct@UnamedValue@@@@PB_WPAUboolean_struct@_builtIn_class@@PAPAU34@@Z  (Idle)
01:00064CF0 ?_getNamed_binary@namedValue_class@@SAXPAU?$__list_struct@UnamedValue@@@@PB_WQAPAE@Z  (Idle)
01:00064D74 ?_tryGetNamed_binary@namedValue_class@@SAXPAU?$__list_struct@UnamedValue@@@@PB_WQAPAE@Z  (Idle)
01:00064DB8 ?_getNamedDefault_binary@namedValue_class@@SAXPAU?$__list_struct@UnamedValue@@@@PB_WQAEQAPAE@Z  (Idle)
01:00064DE8 ?_getNamed_object@namedValue_class@@SAXPAU?$__list_struct@UnamedValue@@@@PB_WPAPAV3@@@Z  (Idle)
01:00064E6C ?_tryGetNamed_object@namedValue_class@@SAXPAU?$__list_struct@UnamedValue@@@@PB_WPAPAV3@@@Z  (Idle)
01:00064EB0 ?_getNamedDefault_object@namedValue_class@@SAXPAU?$__list_struct@UnamedValue@@@@PB_WQAV3@@PAPAV3@@@Z  (Idle)
01:00064EE0 ?_getNamed_pointer@namedValue_class@@SAXPAU?$__list_struct@UnamedValue@@@@PB_WPAPAX@Z  (Idle)
01:00064F64 ?_tryGetNamed_pointer@namedValue_class@@SAXPAU?$__list_struct@UnamedValue@@@@PB_WPAPAX@Z  (Idle)
01:00064FA8 ?_getNamedDefault_pointer@namedValue_class@@SAXPAU?$__list_struct@UnamedValue@@@@PB_WPAXPAPAX@Z  (Idle)
01:00065000 ?_getNamed_gmtTimeValue@namedValue_class@@SAXPAU?$__list_struct@UnamedValue@@@@PB_WPAPAUunsigned64_struct@core_class@@@Z  (Idle)
01:00065030 ?_tryGetNamed_gmtTimeValue@namedValue_class@@SAXPAU?$__list_struct@UnamedValue@@@@PB_WPAPAUunsigned64_struct@core_class@@@Z  (Idle)
01:00065074 ?_getNamedDefault_gmtTimeValue@namedValue_class@@SAXPAU?$__list_struct@UnamedValue@@@@PB_WPAUunsigned64_struct@core_class@@PAPAU34@@Z  (Idle)
01:000650CC ?_getNamed_integer64@namedValue_class@@SAXPAU?$__list_struct@UnamedValue@@@@PB_WPAPAUinteger64_struct@core_class@@@Z  (Idle)
01:00065150 ?_tryGetNamed_integer64@namedValue_class@@SAXPAU?$__list_struct@UnamedValue@@@@PB_WPAPAUinteger64_struct@core_class@@@Z  (Idle)
01:00065194 ?_getNamedDefault_integer64@namedValue_class@@SAXPAU?$__list_struct@UnamedValue@@@@PB_WPAUinteger64_struct@core_class@@PAPAU34@@Z  (Idle)
01:000651C4 ?_getNamed_unsigned64@namedValue_class@@SAXPAU?$__list_struct@UnamedValue@@@@PB_WPAPAUunsigned64_struct@core_class@@@Z  (Idle)
01:00065248 ?_tryGetNamed_unsigned64@namedValue_class@@SAXPAU?$__list_struct@UnamedValue@@@@PB_WPAPAUunsigned64_struct@core_class@@@Z  (Idle)
01:0006528C ?_getNamedDefault_unsigned64@namedValue_class@@SAXPAU?$__list_struct@UnamedValue@@@@PB_WPAUunsigned64_struct@core_class@@PAPAU34@@Z  (Idle)
--- From 'Obj\console.obj'
01:000652C0 ?append@memory_class@@SGPAXPAXPAXH@Z 
--- From 'Obj\exception.obj'
01:00065308 ?isReadable@memory_class@@SAXPAX@Z 
01:00065330 ?isReadable@memory_class@@SAXPAXH@Z 
--- From 'Obj\memory.obj'
01:00065354 ?isWritable@memory_class@@SAXPAX@Z  (Idle)
01:0006537C ?isWritable@memory_class@@SAXPAXH@Z 
01:000653A0 ?_allocHeap@memory_class@@SAXHPAPAX@Z  (Idle)
--- From 'Obj\binary.obj'
01:000653D0 ?_allocHeapProfile@memory_class@@SAXHIPAPAX@Z 
--- From 'Obj\exception.obj'
01:00065400 ?_allocAtomicHeap@memory_class@@SAXHPAPAX@Z 
--- From 'Obj\binary.obj'
01:0006541C ?_allocAtomicHeapProfile@memory_class@@SAXHIPAPAX@Z 
--- From 'Obj\memory.obj'
01:00065438 ?_allocUncollectableHeap@memory_class@@SAXHPAPAX@Z  (Idle)
01:00065468 ?_allocUncollectableHeapProfile@memory_class@@SAXHIPAPAX@Z 
01:00065498 ?_allocString@memory_class@@SAXHPAPB_W@Z  (Idle)
01:000654CC ?_allocStringProfile@memory_class@@SAXHIPAPB_W@Z  (Idle)
01:00065548 ?_allocStringBuffer@memory_class@@SAXHPAPB_W@Z 
--- From 'Obj\exe.obj'
01:00065578 ?_allocStringBufferProfile@memory_class@@SAXHIPAPB_W@Z 
--- From 'Obj\binary.obj'
01:000655B8 ?_getReal@memory_class@@SAXPAXPAPAN@Z 
01:000655E8 ?setReal@memory_class@@SGXPAXN@Z 
01:00065624 ?_getInteger8@memory_class@@SAXPAXPAD@Z 
01:00065640 ?setInteger8@memory_class@@SGXPAXD@Z 
01:0006567C ?_getInteger16@memory_class@@SAXPAXPAF@Z 
01:00065698 ?setInteger16@memory_class@@SGXPAXF@Z 
01:000656D4 ?_getInteger32@memory_class@@SAXPAXPAH@Z 
01:000656EC ?setInteger32@memory_class@@SGXPAXH@Z 
01:00065728 ?_getInteger@memory_class@@SAXPAXPAH@Z 
01:00065740 ?setInteger@memory_class@@SGXPAXH@Z 
01:0006577C ?_getInteger64@memory_class@@SAXPAXPAPAUinteger64_struct@core_class@@@Z 
01:000657BC ?setInteger64@memory_class@@SGXPAXPAUinteger64_struct@core_class@@@Z 
01:000657E4 ?_getUnsigned8@memory_class@@SAXPAXPAE@Z 
01:00065800 ?setUnsigned8@memory_class@@SGXPAXE@Z 
01:0006583C ?_getUnsigned16@memory_class@@SAXPAXPA_W@Z 
01:00065858 ?setUnsigned16@memory_class@@SGXPAX_W@Z 
01:00065894 ?_getUnsigned32@memory_class@@SAXPAXPAI@Z 
01:000658AC ?setUnsigned32@memory_class@@SGXPAXI@Z 
01:000658E8 ?_getUnsigned@memory_class@@SAXPAXPAI@Z 
01:00065900 ?setUnsigned@memory_class@@SGXPAXI@Z 
01:0006593C ?_getPointer@memory_class@@SAXPAXPAPAX@Z 
01:00065954 ?setPointer@memory_class@@SAXPAXPAX@Z 
01:00065984 ?_getUnsigned64@memory_class@@SAXPAXPAPAUunsigned64_struct@core_class@@@Z 
01:000659C4 ?setUnsigned64@memory_class@@SGXPAXPAUunsigned64_struct@core_class@@@Z 
01:000659EC ?_pointerAdd@memory_class@@SAXPAXHPAPAX@Z 
--- From 'Obj\memory.obj'
01:00065A20 ?_toPersistentStorage@memory_class@@SAXQAVrTypeLibrary@TypeLibraries@RunTime@VIP@@PAXPAPAX@Z  (Idle)
01:00065A30 ?_toPersistentStorageWithContext@memory_class@@SAXQAVrTypeLibrary@TypeLibraries@RunTime@VIP@@PAXPAPAX@Z  (Idle)
01:00065A40 ?_bitOr@bit_class@@SAXIIIPAI@Z  (Idle)
01:00065A70 ?_bitOr@bit_class@@SAXIIIIPAI@Z  (Idle)
01:00065AAC ?_bitOr@bit_class@@SAXIIIIIPAI@Z  (Idle)
01:00065AF8 ?_bitOrList@bit_class@@SAXPAU?$__list_struct@Uunsigned@@@@PAI@Z  (Idle)
01:00065B24 ?bitOrList_Tail@bit_class@@SAXPAU?$__list_struct@Uunsigned@@@@IPAI@Z 
01:00065B74 ?_getLow4of8@bit_class@@SAXEPAE@Z 
01:00065BB8 ?_setLow4of8@bit_class@@SAXEEPAE@Z  (Idle)
01:00065C3C ?_getHigh4of8@bit_class@@SAXEPAE@Z 
01:00065C94 ?_setHigh4of8@bit_class@@SAXEEPAE@Z  (Idle)
01:00065D28 ?_swap4of8@bit_class@@SAXEPAE@Z  (Idle)
01:00065DB8 ?_getLow8of16@bit_class@@SAX_WPAE@Z 
01:00065E00 ?_setLow8of16@bit_class@@SAX_WEPA_W@Z  (Idle)
01:00065E70 ?_getHigh8of16@bit_class@@SAX_WPAE@Z 
01:00065EC8 ?_setHigh8of16@bit_class@@SAX_WEPA_W@Z  (Idle)
01:00065F48 ?_swap8of16@bit_class@@SAX_WPA_W@Z  (Idle)
--- From 'Obj\fileSystem.obj'
01:00065FDC ?_getLow16of32@bit_class@@SAXIPA_W@Z 
--- From 'Obj\memory.obj'
01:00066010 ?_setLow16of32@bit_class@@SAXI_WPAI@Z  (Idle)
--- From 'Obj\fileSystem.obj'
01:00066058 ?_getHigh16of32@bit_class@@SAXIPA_W@Z 
--- From 'Obj\memory.obj'
01:0006609C ?_setHigh16of32@bit_class@@SAXI_WPAI@Z  (Idle)
01:00066108 ?_swap16of32@bit_class@@SAXIPAI@Z 
01:00066184 ?_bitSplit@bit_class@@SAXIPAPAU?$__list_struct@Uunsigned@@@@@Z 
01:00066200 ?getUnsigned64bytes@bit_class@@SAXPAUunsigned64_struct@core_class@@PAIPAI@Z  (Idle)
01:0006621C ?getInteger64bytes@bit_class@@SAXPAUinteger64_struct@core_class@@PAIPAH@Z  (Idle)
--- From 'Obj\math.obj'
01:00066240 ?classInfo@math_class@@SAXPAPB_W0@Z 
01:0006625C ?check_asin_nearBounds@math_class@@SAXPAN@Z 
01:0006629C ?_getBoundsForValue@math_class@@SAXPANPAPAN@Z 
01:000662D0 ?_arcsin@math_class@@SAXPANPAPAN@Z 
01:00066424 ?_sinh@math_class@@SAXPANPAPAN@Z 
01:00066494 ?_tryToUnsigned@math_class@@SAXPB_WPAI@Z  (Idle)
01:000664B0 ?_tryToInteger@math_class@@SAXPB_WPAH@Z  (Idle)
01:000664CC ?_tryToReal@math_class@@SAXPB_WPAPAN@Z  (Idle)
01:000664E8 ?_toUnsigned@math_class@@SAXPB_WPAI@Z  (Idle)
01:00066504 ?_toInteger@math_class@@SAXPB_WPAH@Z  (Idle)
01:00066520 ?_toReal@math_class@@SAXPB_WPAPAN@Z  (Idle)
01:0006653C ?_prepareResultForBigValue@math_class@@SAXPANPAPAN@Z 
01:00066688 ?_arcsinh@math_class@@SAXPANPAPAN@Z  (Idle)
01:000666D8 ?_arccos@math_class@@SAXPANPAPAN@Z  (Idle)
01:00066724 ?_cosh@math_class@@SAXPANPAPAN@Z 
01:000667A8 ?_prepareResultForValue@math_class@@SAXPANPAPAN@Z 
01:000668BC ?_arccosh@math_class@@SAXPANPAPAN@Z  (Idle)
01:00066930 ?_get_tanhBoundsForValue@math_class@@SAXPANPAPAN@Z 
01:00066988 ?_tanh@math_class@@SAXPANPAPAN@Z  (Idle)
01:00066A34 ?_arctanh@math_class@@SAXPANPAPAN@Z  (Idle)
01:00066AE4 ?_cotanh@math_class@@SAXPANPAPAN@Z  (Idle)
01:00066B98 ?_arccotanh@math_class@@SAXPANPAPAN@Z  (Idle)
01:00066C44 ?_power@math_class@@SAXPANPANPAPAN@Z  (Idle)
01:00066DF4 ?_sqr@math_class@@SAXPANPAPAN@Z 
--- From 'Obj\messageControl.obj'
01:00066E44 ?_round@math_class@@SAXPANPAH@Z 
--- From 'Obj\gui.obj'
01:00066E78 ?_trunc@math_class@@SAXPANPAH@Z 
--- From 'Obj\math.obj'
01:00066EAC ?_ceil@math_class@@SAXPANPAH@Z 
01:00066EE4 ?_ceilToReal@math_class@@SAXPANPAPAN@Z 
01:00066F8C ?_floor@math_class@@SAXPANPAH@Z 
01:00066FD8 ?_floorToReal@math_class@@SAXPANPAPAN@Z  (Idle)
--- From 'Obj\binary.obj'
01:0006703C ?_max@math_class@@SAXHHPAH@Z 
--- From 'Obj\math.obj'
01:00067060 ?_max@math_class@@SAXHHHPAH@Z  (Idle)
--- From 'Obj\exe.obj'
01:00067090 ?_min@math_class@@SAXHHPAH@Z 
--- From 'Obj\math.obj'
01:000670B4 ?_min@math_class@@SAXHHHPAH@Z  (Idle)
01:000670E4 ?_restrict@math_class@@SAXHHHPAH@Z  (Idle)
01:0006711C ?divides_dt@math_class@@SAXHH@Z  (Idle)
01:00067160 ?_max@math_class@@SAXIIPAI@Z 
01:00067184 ?_max@math_class@@SAXPANPANPAPAN@Z 
01:000671BC ?_max@math_class@@SAXIIIPAI@Z  (Idle)
01:000671EC ?_max@math_class@@SAXPANPANPANPAPAN@Z  (Idle)
01:0006721C ?_min@math_class@@SAXIIPAI@Z 
01:00067240 ?_min@math_class@@SAXPANPANPAPAN@Z 
01:00067278 ?_min@math_class@@SAXIIIPAI@Z  (Idle)
01:000672A8 ?_min@math_class@@SAXPANPANPANPAPAN@Z  (Idle)
01:000672D8 ?_restrict@math_class@@SAXIIIPAI@Z  (Idle)
01:00067310 ?_restrict@math_class@@SAXPANPANPANPAPAN@Z  (Idle)
01:00067348 ?divides_dt@math_class@@SAXII@Z  (Idle)
01:0006736C ?classInfo@math_exception_class@@SAXPAPB_W0@Z 
01:00067388 ?raise_asinOutOfBounds@math_exception_class@@SGXXN@Z 
01:00067410 ?asinOutOfBounds@math_exception_class@@SAXPAXPAPB_W1@Z 
01:00067438 ?raise_acoshOutOfBounds@math_exception_class@@SGXXN@Z 
01:000674C0 ?acoshOutOfBounds@math_exception_class@@SAXPAXPAPB_W1@Z 
01:000674E8 ?raise_atanhOutOfBounds@math_exception_class@@SGXXN@Z 
01:00067570 ?atanhOutOfBounds@math_exception_class@@SAXPAXPAPB_W1@Z 
01:00067598 ?raise_acotanhOutOfBounds@math_exception_class@@SGXXN@Z 
01:00067620 ?acotanhOutOfBounds@math_exception_class@@SAXPAXPAPB_W1@Z 
01:00067648 ?raise_cotanhInfinityResult@math_exception_class@@SGXXN@Z 
01:000676D0 ?cotanhInfinityResult@math_exception_class@@SAXPAXPAPB_W1@Z 
--- From 'Obj\binary.obj'
01:00067700 $length$list$predicate$(i,i,o)$ 
--- From 'Obj\list.obj'
01:00067734 $length2$list$predicate$(i,i,i,o)$c$_m3 
--- From 'Obj\controls.obj'
01:00067790 $isMember$list$predicate$(i,i,i)$_c2 
--- From 'Obj\list.obj'
01:000677E8 $isMemberBy$list$predicate$(i,i,i,i)$_c3 
--- From 'Obj\exception.obj'
01:00067858 $getMember_nd$list$predicate$(i,i,o)$_c4 
--- From 'Obj\list.obj'
01:000678A4 $sort$list$predicate$(i,i,o)$_c5 
01:00067970 $merge$list$predicate$(i,i,i,o)$c$_m4 
01:00067A90 $sort$list$predicate$(i,i,i,o)$_c6 
01:00067AB8 $sort_descending$list$predicate$(i,i,o)$c$_m5 
01:00067B84 $merge_descending$list$predicate$(i,i,i,o)$c$_m6 
01:00067CA4 $sortBy$list$predicate$(i,i,i,o)$_c7 
01:00067D80 $sortBy$list$predicate$(i,i,i,i,o)$_c8  (Idle)
01:00067DA8 $sortBy_descending$list$predicate$(i,i,i,o)$c$_m7 
01:00067E84 $mergeBy$list$predicate$(i,i,i,i,o)$c$_m8 
01:00067FA8 $mergeBy_descending$list$predicate$(i,i,i,i,o)$c$_m9 
01:000680CC $split2$list$predicate$(i,i,o,o)$c$_m10 
--- From 'Obj\controls.obj'
01:000681B8 $append$list$predicate$(i,i,i,o)$_c9 
--- From 'Obj\list.obj'
01:00068228 $append$list$predicate$(i,i,i,i,o)$_c10 
01:0006825C $append$list$predicate$(i,i,i,i,i,o)$_c11 
01:00068290 $append$list$predicate$(i,i,i,i,i,i,o)$_c12  (Idle)
01:000682C4 $appendList$list$predicate$(i,i,o)$_c13 
01:00068354 $reverse$list$predicate$(i,i,o)$_c14 
01:0006838C $reverse1$list$predicate$(i,i,i,o)$c$_m11 
01:000683E4 $remove$list$predicate$(i,i,i,o)$_c15 
01:00068480 $removeBy$list$predicate$(i,i,i,i,o)$_c16 
01:00068528 $removeAll$list$predicate$(i,i,i,o)$_c17 
01:000685D4 $removeAllBy$list$predicate$(i,i,i,i,o)$_c18 
01:00068684 $removeDuplicates$list$predicate$(i,i,o)$_c21 
01:0006872C $removeDuplicatesBy$list$predicate$(i,i,i,o)$_c22 
--- From 'Obj\controls.obj'
01:000687D8 $difference$list$predicate$(i,i,i,o)$_c19 
--- From 'Obj\list.obj'
01:00068890 $differenceBy$list$predicate$(i,i,i,i,o)$_c20 
01:00068948 $nDuplicates$list$predicate$(i,i,i,o)$_c23 
01:000689B8 $tryGetIndex$list$predicate$(i,i,i,o)$_c24 
01:00068A50 $tryGetIndexBy$list$predicate$(i,i,i,i,o)$_c25 
01:00068B00 $tryLastItem$list$predicate$(i,i,o)$_c26 
01:00068B50 $nth$list$predicate$(i,i,i,o)$_c27  (Idle)
01:00068BC4 $tryGetNth$list$predicate$(i,i,i,o)$_c28 
01:00068C48 $setNth$list$predicate$(i,i,i,i,o)$_c29 
01:00068D98 $split$list$predicate$(i,i,i,o,o)$_c30 
01:00068E74 $take$list$predicate$(i,i,i,o)$_c31  (Idle)
01:00068E9C $drop$list$predicate$(i,i,i,o)$_c32  (Idle)
01:00068EC4 $maximum$list$predicate$(i,i,o)$_c33 
01:00068F70 $maximumBy$list$predicate$(i,i,i,o)$_c34 
01:00069020 $minimum$list$predicate$(i,i,o)$_c35 
01:000690CC $minimumBy$list$predicate$(i,i,i,o)$_c36 
01:0006917C $union$list$predicate$(i,i,i,o)$_c37 
01:00069230 $unionBy$list$predicate$(i,i,i,i,o)$_c38 
01:000692E8 $intersection$list$predicate$(i,i,i,o)$_c39 
01:00069398 $intersectionBy$list$predicate$(i,i,i,i,o)$_c40 
01:0006944C $filter$list$predicate$(i,i,i,o)$_c41  (Idle)
01:000694D4 ?exceptionEmpty@list_class@@SAXPB_W@Z 
01:0006950C ?classInfo@list_class@@SAXPAPB_W0@Z 
--- From 'Obj\guisupport.obj'
01:00069530 ?classInfo@guiSupport_exception_class@@SAXPAPB_W0@Z 
--- From 'Obj\controlSupport.obj'
01:0006954C ?raise_ControlHasNoContainerException@guiSupport_exception_class@@SGXXQAVcontrol@@@@Z 
01:000695D0 ?raise_CouldNotChangeContainerException@guiSupport_exception_class@@SGXXQAVcontrol@@@@Z 
--- From 'Obj\guisupport.obj'
01:00069654 ?raise_ControlDoesNotBelongToContainerException@guiSupport_exception_class@@SGXXQAVcontrol@@@@Z 
01:000696D8 ?raise_ControlAlreadyExistsInContainerException@guiSupport_exception_class@@SGXXQAVcontrol@@@@Z 
01:0006975C ?controlHasNoContainer_exception@guiSupport_exception_class@@SAXPAXPAPB_W1@Z 
01:00069784 ?couldNotChangeContainer_exception@guiSupport_exception_class@@SAXPAXPAPB_W1@Z 
01:000697AC ?controlDoesNotBelongToContainer_exception@guiSupport_exception_class@@SAXPAXPAPB_W1@Z 
01:000697D4 ?controlAlreadyExistsInContainer_exception@guiSupport_exception_class@@SAXPAXPAPB_W1@Z 
01:000697FC ?classInfo@containerWindowSupport_class@@SAXPAPB_W0@Z 
--- From 'Obj\controls.obj'
01:00069818 ?new@containerWindowSupport_class@@SAXQAVcontainerWindowSupport@@@QAVcontainerWindow@@@@Z 
--- From 'Obj\guisupport.obj'
01:000698B0 ?onContainerShow@containerWindowSupport_class@@SAXQAVcontainerWindowSupport@@@QAVwindow@@@H@Z 
01:000698BC ?createControls@containerWindowSupport_class@@SAXQAVcontainerWindowSupport@@@@Z 
01:00069954 ?_onControlHandler@containerWindowSupport_class@@SAXQAVcontainerWindowSupport@@@PBUwindowHandle@@PAUevent_struct@vpiDomains_class@@PAH@Z 
01:00069A04 ?addControl@containerWindowSupport_class@@SAXQAVcontainerWindowSupport@@@QAVcontrol@@@H@Z 
01:00069A38 ?addControl@containerWindowSupport_class@@SAXQAVcontainerWindowSupport@@@QAVcontrol@@@PAH@Z 
01:00069BCC ?delControl@containerWindowSupport_class@@SAXQAVcontainerWindowSupport@@@QAVcontrol@@@@Z 
01:00069D78 ?delContainerControl@containerWindowSupport_class@@SAXQAVcontainerWindowSupport@@@QAVcontrol@@@@Z 
01:00069E80 ?_addContainerControl@containerWindowSupport_class@@SAXQAVcontainerWindowSupport@@@QAVcontainerControl@@@PAH@Z 
01:00069EC4 ?_getContainerControl_nd@containerWindowSupport_class@@SAXQAVcontainerWindowSupport@@@PAPAVcontainerControl@@@@Z 
01:00069F10 ?_tryGetControl@containerWindowSupport_class@@SAXQAVcontainerWindowSupport@@@PAPAVcontrol@@@@Z 
01:00069F1C ?setGroupIfFirstControl@containerWindowSupport_class@@SAXQAVcontainerWindowSupport@@@QAVcontrol@@@@Z 
01:00069F90 ?setGroupIfPreviousIsContainer@containerWindowSupport_class@@SAXQAVcontainerWindowSupport@@@QAVcontrol@@@@Z 
01:00069FF0 ?isContainer@containerWindowSupport_class@@SAXQAVcontrol@@@@Z 
01:0006A04C ?preventRadioButtonBeforeContainer@containerWindowSupport_class@@SAXQAVcontainerWindowSupport@@@QAVcontrol@@@@Z 
01:0006A0CC ?_lookupControl_dt@containerWindowSupport_class@@SAXQAVcontainerWindowSupport@@@HPAPAVcontrol@@@@Z 
01:0006A148 ?_lookupNestedControl_dt@containerWindowSupport_class@@SAXQAVcontainerWindowSupport@@@HPAPAVcontrol@@@@Z 
01:0006A1DC ?getControl_nd@containerWindowSupport_class@@SAXQAVcontainerWindowSupport@@@PAPAVcontrol@@@PAH@Z 
01:0006A2A4 ?_getControl_nd@containerWindowSupport_class@@SAXQAVcontainerWindowSupport@@@PAPAVcontrol@@@@Z 
01:0006A2C8 ?getNestedControl_nd@containerWindowSupport_class@@SAXQAVcontainerWindowSupport@@@PAPAVcontrol@@@@Z 
01:0006A32C ?_getNestedControl_nd@containerWindowSupport_class@@SAXQAVcontainerWindowSupport@@@QAVcontrol@@@PAPAV3@@@Z 
01:0006A3F4 ?_tryGetPreviousControl@containerWindowSupport_class@@SAXQAVcontainerWindowSupport@@@QAVcontrol@@@PAPAV3@@@Z 
01:0006A46C ?_tryGetNextControl@containerWindowSupport_class@@SAXQAVcontainerWindowSupport@@@QAVcontrol@@@PAPAV3@@@Z 
01:0006A4D4 ?_getRadioButtonGroup@containerWindowSupport_class@@SAXQAVcontainerWindowSupport@@@PAPAVradioButtonGroup@@@@Z 
01:0006A558 ?_new@containerWindowSupport_class@@SAXQAVcontainerWindow@@@PAPAVcontainerWindowSupport@@@@Z  (Idle)
01:0006A584 ?_object_facts_initializer@containerWindowSupport_class@@SGXQAVcontainerWindowSupport@@@@Z 
01:0006A5A4 $pairMember_dt$containerWindowSupport$predicate$(i,o,i)$c$_m21 
01:0006A618 $pairMember_dt$containerWindowSupport$predicate$(i,i,o)$c$_m21 
--- From 'Obj\controls.obj'
01:0006A694 ?_initObject@containerWindowSupport@@QAGXQAV1@H@Z 
--- From 'Obj\guisupport.obj'
01:0006A6B8 ?@create_object@containerWindowSupport_class@@SGQAVcontainerWindowSupport@@@XZ 
--- From 'Obj\controls.obj'
01:0006A6D4 ?_InternalFinalizer@containerWindowSupport@@QAGXQAV1@@Z 
--- From 'Obj\gui.obj'
01:0006A6E0 ?classInfo@pictureCanvas_class@@SAXPAPB_W0@Z  (Idle)
01:0006A6FC ?new@pictureCanvas_class@@SAXQAVpictureCanvas@@@@Z 
01:0006A730 ?new@pictureCanvas_class@@SAXQAVpictureCanvas@@@HH@Z 
01:0006A7D4 ?_getPicture@pictureCanvas_class@@SAXQAVpictureCanvas@@@AAUpicture@vpiDomains@@@Z 
01:0006A830 ?setSize@pictureCanvas_class@@SAXQAVpictureCanvas@@@HH@Z 
01:0006A940 ?getSize@pictureCanvas_class@@SAXQAVpictureCanvas@@@PAHPAH@Z 
01:0006A95C ?_getWidth@pictureCanvas_class@@SAXQAVpictureCanvas@@@PAH@Z 
01:0006A970 ?setWidth@pictureCanvas_class@@SAXQAVpictureCanvas@@@H@Z 
01:0006A9A0 ?_getHeight@pictureCanvas_class@@SAXQAVpictureCanvas@@@PAH@Z 
01:0006A9B4 ?setHeight@pictureCanvas_class@@SAXQAVpictureCanvas@@@H@Z 
01:0006A9E4 ?setMapScale@pictureCanvas_class@@SAXQAVpictureCanvas@@@PAUpnt_struct@vpiDomains_class@@111@Z 
01:0006AA1C ?getMapScale@pictureCanvas_class@@SAXQAVpictureCanvas@@@PAPAUpnt_struct@vpiDomains_class@@111@Z 
01:0006AA54 ?setMapMode@pictureCanvas_class@@SAXQAVpictureCanvas@@@H@Z 
01:0006AA8C ?_getMapMode@pictureCanvas_class@@SAXQAVpictureCanvas@@@PAH@Z 
01:0006AAC4 ?setClip@pictureCanvas_class@@SAXQAVpictureCanvas@@@PAUrct_struct@vpiDomains_class@@@Z 
01:0006AAFC ?_getClip@pictureCanvas_class@@SAXQAVpictureCanvas@@@PAPAUrct_struct@vpiDomains_class@@@Z 
01:0006AB34 ?setFont@pictureCanvas_class@@SAXQAVwindowGDI@@@PBUfont@vpiDomains@@@Z 
01:0006AB6C ?_getFont@pictureCanvas_class@@SAXQAVwindowGDI@@@AAUfont@vpiDomains@@@Z 
01:0006ABA4 ?_new@pictureCanvas_class@@SAXPAPAVpictureCanvas@@@@Z  (Idle)
01:0006ABCC ?_new@pictureCanvas_class@@SAXHHPAPAVpictureCanvas@@@@Z 
01:0006ABFC ?_object_facts_initializer@pictureCanvas_class@@SGXQAVpictureCanvas@@@@Z 
01:0006AC18 ?_convertLPtoDP@pictureCanvas_class@@SAXQAVdrawWindow@@@PAU?$__list_struct@Upnt@@@@PAPAU?$__list_struct@U3@@@@Z 
01:0006AC50 ?_convertDPtoLP@pictureCanvas_class@@SAXQAVdrawWindow@@@PAU?$__list_struct@Upnt@@@@PAPAU?$__list_struct@U3@@@@Z 
01:0006AC88 ?getScrollRange@pictureCanvas_class@@SAXQAVdrawWindow@@@HPAHPAH@Z 
01:0006ACC0 ?setScrollRange@pictureCanvas_class@@SAXQAVdrawWindow@@@HHH@Z 
01:0006ACF8 ?_getScrollPos@pictureCanvas_class@@SAXQAVdrawWindow@@@HPAH@Z 
01:0006AD30 ?setScrollPos@pictureCanvas_class@@SAXQAVdrawWindow@@@HH@Z 
01:0006AD68 ?_getScrollProportion@pictureCanvas_class@@SAXQAVdrawWindow@@@HPAI@Z 
01:0006ADA0 ?setScrollProportion@pictureCanvas_class@@SAXQAVdrawWindow@@@HI@Z 
01:0006ADD8 ?scroll@pictureCanvas_class@@SAXQAVdrawWindow@@@PAUrct_struct@vpiDomains_class@@HH@Z 
01:0006AE10 ?scroll@pictureCanvas_class@@SAXQAVdrawWindow@@@PAUrct_struct@vpiDomains_class@@HHI@Z 
01:0006AE48 ?_getScrollBarInfo@pictureCanvas_class@@SAXQAVdrawWindow@@@HPAPAUscrollBarInfo_struct@drawWindow_class@@@Z 
01:0006AE80 ?_getScrollInfo@pictureCanvas_class@@SAXQAVdrawWindow@@@HPAPAUscrollInfo_struct@drawWindow_class@@@Z 
01:0006AEB8 ?addVScrollListener@pictureCanvas_class@@SAXQAVdrawWindow@@@X@Z 
01:0006AEF0 ?removeVScrollListener@pictureCanvas_class@@SAXQAVdrawWindow@@@X@Z 
01:0006AF28 ?addHScrollListener@pictureCanvas_class@@SAXQAVdrawWindow@@@X@Z 
01:0006AF60 ?removeHScrollListener@pictureCanvas_class@@SAXQAVdrawWindow@@@X@Z 
01:0006AF98 ?setPaintResponder@pictureCanvas_class@@SAXQAVdrawWindow@@@X@Z 
01:0006AFD0 ?_getPaintResponder@pictureCanvas_class@@SAXQAVdrawWindow@@@PAX@Z 
01:0006B008 ?resetPaintResponder@pictureCanvas_class@@SAXQAVdrawWindow@@@@Z 
01:0006B040 ?update@pictureCanvas_class@@SAXQAVdrawWindow@@@@Z 
01:0006B078 ?validateRect@pictureCanvas_class@@SAXQAVdrawWindow@@@PAUrct_struct@vpiDomains_class@@@Z 
01:0006B0B0 ?needsUpdate@pictureCanvas_class@@SAXQAVdrawWindow@@@PAUrct_struct@vpiDomains_class@@@Z 
01:0006B0E8 ?invalidate@pictureCanvas_class@@SAXQAVdrawWindow@@@@Z 
01:0006B120 ?invalidate@pictureCanvas_class@@SAXQAVdrawWindow@@@PAUrct_struct@vpiDomains_class@@@Z 
01:0006B158 ?_getInvalidRect@pictureCanvas_class@@SAXQAVdrawWindow@@@PAPAUrct_struct@vpiDomains_class@@@Z 
01:0006B190 ?setEraseBackgroundResponder@pictureCanvas_class@@SAXQAVdrawWindow@@@X@Z 
01:0006B1C8 ?_getEraseBackgroundResponder@pictureCanvas_class@@SAXQAVdrawWindow@@@PAX@Z 
01:0006B200 ?resetEraseBackgroundResponder@pictureCanvas_class@@SAXQAVdrawWindow@@@@Z 
01:0006B238 ?getWindowGDI@pictureCanvas_class@@SAXQAVdrawWindow@@@PAPAVwindowGDI@@@@Z 
01:0006B270 ?captureMouse@pictureCanvas_class@@SAXQAVdrawWindow@@@@Z 
01:0006B2A8 ?releaseMouse@pictureCanvas_class@@SAXQAVdrawWindow@@@@Z 
01:0006B2E0 ?addMouseDownListener@pictureCanvas_class@@SAXQAVdrawWindow@@@X@Z 
01:0006B318 ?removeMouseDownListener@pictureCanvas_class@@SAXQAVdrawWindow@@@X@Z 
01:0006B350 ?addMouseUpListener@pictureCanvas_class@@SAXQAVdrawWindow@@@X@Z 
01:0006B388 ?removeMouseUpListener@pictureCanvas_class@@SAXQAVdrawWindow@@@X@Z 
01:0006B3C0 ?addMouseDblListener@pictureCanvas_class@@SAXQAVdrawWindow@@@X@Z 
01:0006B3F8 ?removeMouseDblListener@pictureCanvas_class@@SAXQAVdrawWindow@@@X@Z 
01:0006B430 ?addMouseMoveListener@pictureCanvas_class@@SAXQAVdrawWindow@@@X@Z 
01:0006B468 ?removeMouseMoveListener@pictureCanvas_class@@SAXQAVdrawWindow@@@X@Z 
01:0006B4A0 ?setCharResponder@pictureCanvas_class@@SAXQAVdrawWindow@@@X@Z 
01:0006B4D8 ?_getCharResponder@pictureCanvas_class@@SAXQAVdrawWindow@@@PAX@Z 
01:0006B510 ?resetCharResponder@pictureCanvas_class@@SAXQAVdrawWindow@@@@Z 
01:0006B548 ?setKeyDownResponder@pictureCanvas_class@@SAXQAVdrawWindow@@@X@Z 
01:0006B580 ?_getKeyDownResponder@pictureCanvas_class@@SAXQAVdrawWindow@@@PAX@Z 
01:0006B5B8 ?resetKeyDownResponder@pictureCanvas_class@@SAXQAVdrawWindow@@@@Z 
01:0006B5F0 ?setKeyUpResponder@pictureCanvas_class@@SAXQAVdrawWindow@@@X@Z 
01:0006B628 ?_getKeyUpResponder@pictureCanvas_class@@SAXQAVdrawWindow@@@PAX@Z 
01:0006B660 ?resetKeyUpResponder@pictureCanvas_class@@SAXQAVdrawWindow@@@@Z 
01:0006B698 ?setCaretSize@pictureCanvas_class@@SAXQAVdrawWindow@@@HH@Z 
01:0006B6D0 ?setCaret@pictureCanvas_class@@SAXQAVdrawWindow@@@PAUpnt_struct@vpiDomains_class@@HH@Z 
01:0006B708 ?setCaret@pictureCanvas_class@@SAXQAVdrawWindow@@@PAUpnt_struct@vpiDomains_class@@@Z 
01:0006B740 ?hideCaret@pictureCanvas_class@@SAXQAVdrawWindow@@@@Z 
01:0006B778 ?_getDefaultDrawWindowExtension@pictureCanvas_class@@SAXQAVdrawWindow@@@PAPAVdrawWindowExtension@@@@Z 
01:0006B7B0 ?_getDrawWindowExtension@pictureCanvas_class@@SAXQAVdrawWindow@@@PAPAVdrawWindowExtension@@@@Z 
01:0006B7E8 ?setDrawWindowExtension@pictureCanvas_class@@SAXQAVdrawWindow@@@QAVdrawWindowExtension@@@@Z 
01:0006B820 ?setBackColor@pictureCanvas_class@@SAXQAVwindowGDI@@@H@Z 
01:0006B83C ?_getBackColor@pictureCanvas_class@@SAXQAVwindowGDI@@@PAH@Z 
01:0006B858 ?setForeColor@pictureCanvas_class@@SAXQAVwindowGDI@@@H@Z 
01:0006B874 ?_getForeColor@pictureCanvas_class@@SAXQAVwindowGDI@@@PAH@Z 
01:0006B890 ?setBackMode@pictureCanvas_class@@SAXQAVwindowGDI@@@H@Z 
01:0006B8AC ?_getBackMode@pictureCanvas_class@@SAXQAVwindowGDI@@@PAH@Z 
01:0006B8C8 ?_getPen@pictureCanvas_class@@SAXQAVwindowGDI@@@PAPAUpen_struct@vpiDomains_class@@@Z 
01:0006B8E4 ?setPen@pictureCanvas_class@@SAXQAVwindowGDI@@@PAUpen_struct@vpiDomains_class@@@Z 
01:0006B900 ?_getBrush@pictureCanvas_class@@SAXQAVwindowGDI@@@PAPAUbrush_struct@vpiDomains_class@@@Z 
01:0006B91C ?setBrush@pictureCanvas_class@@SAXQAVwindowGDI@@@PAUbrush_struct@vpiDomains_class@@@Z 
01:0006B938 ?_getDrawTools@pictureCanvas_class@@SAXQAVwindowGDI@@@PAPAUdrawtools_struct@vpiDomains_class@@@Z 
01:0006B954 ?setDrawTools@pictureCanvas_class@@SAXQAVwindowGDI@@@PAUdrawtools_struct@vpiDomains_class@@@Z 
01:0006B970 ?clear@pictureCanvas_class@@SAXQAVwindowGDI@@@H@Z 
01:0006B98C ?clear@pictureCanvas_class@@SAXQAVwindowGDI@@@PAUrct_struct@vpiDomains_class@@H@Z 
01:0006B9A8 ?_getDrawMode@pictureCanvas_class@@SAXQAVwindowGDI@@@PAH@Z 
01:0006B9C4 ?setDrawMode@pictureCanvas_class@@SAXQAVwindowGDI@@@H@Z 
01:0006B9E0 ?_getNativeGraphicContext@pictureCanvas_class@@SAXQAVwindowGDI@@@PAPAUboolean_struct@_builtIn_class@@PAPAX@Z 
01:0006B9FC ?releaseNativeGraphicContext@pictureCanvas_class@@SAXQAVwindowGDI@@@PAXPAUboolean_struct@_builtIn_class@@@Z 
01:0006BA18 ?_getPixelColor@pictureCanvas_class@@SAXQAVwindowGDI@@@PAUpnt_struct@vpiDomains_class@@PAH@Z 
01:0006BA34 ?getTextExtent@pictureCanvas_class@@SAXQAVwindowGDI@@@PB_WPAHPAH@Z 
01:0006BA50 ?getTextExtent@pictureCanvas_class@@SAXQAVwindowGDI@@@PB_WHPAHPAH@Z 
01:0006BA6C ?drawTextInRect@pictureCanvas_class@@SAXQAVwindowGDI@@@PAUrct_struct@vpiDomains_class@@PB_WPAU?$__list_struct@Uinteger@@@@@Z 
01:0006BA88 ?drawTextInRect@pictureCanvas_class@@SAXQAVwindowGDI@@@PAUrct_struct@vpiDomains_class@@PB_WHPAU?$__list_struct@Uinteger@@@@@Z 
01:0006BAA4 ?drawText@pictureCanvas_class@@SAXQAVwindowGDI@@@PAUpnt_struct@vpiDomains_class@@PB_WH@Z 
01:0006BAC0 ?drawText@pictureCanvas_class@@SAXQAVwindowGDI@@@PAUpnt_struct@vpiDomains_class@@PB_W@Z 
01:0006BADC ?drawRoundRect@pictureCanvas_class@@SAXQAVwindowGDI@@@PAUrct_struct@vpiDomains_class@@HH@Z 
01:0006BAF8 ?drawRect@pictureCanvas_class@@SAXQAVwindowGDI@@@PAUrct_struct@vpiDomains_class@@@Z 
01:0006BB14 ?drawFocusRect@pictureCanvas_class@@SAXQAVwindowGDI@@@PAUrct_struct@vpiDomains_class@@@Z 
01:0006BB30 ?drawPolyline@pictureCanvas_class@@SAXQAVwindowGDI@@@PAU?$__list_struct@Upnt@@@@@Z 
01:0006BB4C ?drawPolygon@pictureCanvas_class@@SAXQAVwindowGDI@@@PAU?$__list_struct@Upnt@@@@@Z 
01:0006BB68 ?drawPixel@pictureCanvas_class@@SAXQAVwindowGDI@@@PAUpnt_struct@vpiDomains_class@@H@Z 
01:0006BB84 ?drawPie@pictureCanvas_class@@SAXQAVwindowGDI@@@PAUrct_struct@vpiDomains_class@@PAUpnt_struct@4@2@Z 
01:0006BBA0 ?drawLine@pictureCanvas_class@@SAXQAVwindowGDI@@@PAUpnt_struct@vpiDomains_class@@1@Z 
01:0006BBC0 ?drawIcon@pictureCanvas_class@@SAXQAVwindowGDI@@@PAUpnt_struct@vpiDomains_class@@I@Z 
01:0006BBE0 ?drawFloodFill@pictureCanvas_class@@SAXQAVwindowGDI@@@PAUpnt_struct@vpiDomains_class@@H@Z 
01:0006BC00 ?drawEllipse@pictureCanvas_class@@SAXQAVwindowGDI@@@PAUrct_struct@vpiDomains_class@@@Z 
01:0006BC20 ?drawArc@pictureCanvas_class@@SAXQAVwindowGDI@@@PAUrct_struct@vpiDomains_class@@PAUpnt_struct@4@2@Z 
01:0006BC40 ?pictDraw@pictureCanvas_class@@SAXQAVwindowGDI@@@PBUpicture@@PAUpnt_struct@vpiDomains_class@@H@Z 
01:0006BC60 ?pictDraw@pictureCanvas_class@@SAXQAVwindowGDI@@@PBUpicture@@PAUrct_struct@vpiDomains_class@@2H@Z 
01:0006BC80 ?getFontMetrics@pictureCanvas_class@@SAXQAVwindowGDI@@@PAHPAHPAH@Z 
01:0006BCA0 ?show@pictureCanvas_class@@SAXQAVwindow@@@@Z 
01:0006BCD4 ?addShowListener@pictureCanvas_class@@SAXQAVwindow@@@X@Z 
01:0006BD08 ?removeShowListener@pictureCanvas_class@@SAXQAVwindow@@@X@Z 
01:0006BD3C ?isShown@pictureCanvas_class@@SAXQAVwindow@@@@Z 
01:0006BD70 ?initialize@pictureCanvas_class@@SAXQAVwindow@@@@Z 
01:0006BDA4 ?isInitializing@pictureCanvas_class@@SAXQAVwindow@@@@Z 
01:0006BDD8 ?destroy@pictureCanvas_class@@SAXQAVwindow@@@@Z 
01:0006BE0C ?isDestroying@pictureCanvas_class@@SAXQAVwindow@@@@Z 
01:0006BE40 ?addDestroyListener@pictureCanvas_class@@SAXQAVwindow@@@X@Z 
01:0006BE74 ?removeDestroyListener@pictureCanvas_class@@SAXQAVwindow@@@X@Z 
01:0006BEA8 ?close@pictureCanvas_class@@SAXQAVwindow@@@@Z 
01:0006BEDC ?_getParent@pictureCanvas_class@@SAXQAVwindow@@@PAPAV2@@@Z 
01:0006BF10 ?setParent@pictureCanvas_class@@SAXQAVwindow@@@0@Z 
01:0006BF44 ?_getDialogParent@pictureCanvas_class@@SAXQAVwindow@@@PAPAVdialog@@@@Z 
01:0006BF78 $getDialogs$pictureCanvas$predicate$(i,o)$c$_m15 
01:0006BFAC $getChildWindows$pictureCanvas$predicate$(i,o)$c$_m16 
01:0006BFE0 ?isChild@pictureCanvas_class@@SAXQAVwindow@@@0@Z 
01:0006C014 ?_getText@pictureCanvas_class@@SAXQAVwindow@@@PAPB_W@Z 
01:0006C048 ?setText@pictureCanvas_class@@SAXQAVwindow@@@PB_W@Z 
01:0006C07C ?_getOuterRect@pictureCanvas_class@@SAXQAVwindow@@@PAPAUrct_struct@vpiDomains_class@@@Z 
01:0006C0B0 ?setOuterRect@pictureCanvas_class@@SAXQAVwindow@@@PAUrct_struct@vpiDomains_class@@@Z 
01:0006C0E4 ?setClientRect@pictureCanvas_class@@SAXQAVwindow@@@PAUrct_struct@vpiDomains_class@@@Z 
01:0006C118 ?_getClientRect@pictureCanvas_class@@SAXQAVwindow@@@PAPAUrct_struct@vpiDomains_class@@@Z 
01:0006C14C ?getClientSize@pictureCanvas_class@@SAXQAVwindow@@@PAHPAH@Z 
01:0006C180 ?_adjustRectEx@pictureCanvas_class@@SAXQAVwindow@@@PAUrct_struct@vpiDomains_class@@PAPAU34@@Z 
01:0006C1B4 ?center@pictureCanvas_class@@SAXQAVwindow@@@@Z 
01:0006C1E8 ?center@pictureCanvas_class@@SAXQAVwindow@@@PAUrct_struct@vpiDomains_class@@@Z 
01:0006C21C ?centerTo@pictureCanvas_class@@SAXQAVwindow@@@0@Z 
01:0006C250 ?addSizeListener@pictureCanvas_class@@SAXQAVwindow@@@X@Z 
01:0006C284 ?removeSizeListener@pictureCanvas_class@@SAXQAVwindow@@@X@Z 
01:0006C2B8 ?addMoveListener@pictureCanvas_class@@SAXQAVwindow@@@X@Z 
01:0006C2EC ?removeMoveListener@pictureCanvas_class@@SAXQAVwindow@@@X@Z 
01:0006C320 ?_mapPointsTo@pictureCanvas_class@@SAXQAVwindow@@@0PAU?$__list_struct@Upnt@@@@PAPAU?$__list_struct@U4@@@@Z 
01:0006C358 ?_mapPointTo@pictureCanvas_class@@SAXQAVwindow@@@0PAUpnt_struct@vpiDomains_class@@PAPAU45@@Z 
01:0006C390 ?setFocus@pictureCanvas_class@@SAXQAVwindow@@@@Z 
01:0006C3C8 ?addGetFocusListener@pictureCanvas_class@@SAXQAVwindow@@@X@Z 
01:0006C400 ?removeGetFocusListener@pictureCanvas_class@@SAXQAVwindow@@@X@Z 
01:0006C438 ?addLoseFocusListener@pictureCanvas_class@@SAXQAVwindow@@@X@Z 
01:0006C470 ?removeLoseFocusListener@pictureCanvas_class@@SAXQAVwindow@@@X@Z 
01:0006C4A8 ?setActive@pictureCanvas_class@@SAXQAVwindow@@@@Z 
01:0006C4E0 ?bringToTop@pictureCanvas_class@@SAXQAVwindow@@@@Z 
01:0006C518 ?setIcon@pictureCanvas_class@@SAXQAVwindow@@@I@Z 
01:0006C550 ?menuPopUp@pictureCanvas_class@@SAXQAVwindow@@@PAUmenu_struct@vpiDomains_class@@PAUpnt_struct@4@H@Z 
01:0006C588 ?addMenuItemListener@pictureCanvas_class@@SAXQAVwindow@@@X@Z 
01:0006C5C0 ?addMenuItemListener@pictureCanvas_class@@SAXQAVwindow@@@IX@Z 
01:0006C5F8 ?removeMenuItemListener@pictureCanvas_class@@SAXQAVwindow@@@X@Z 
01:0006C630 ?setContextMenuResponder@pictureCanvas_class@@SAXQAVwindow@@@X@Z 
01:0006C668 ?_getContextMenuResponder@pictureCanvas_class@@SAXQAVwindow@@@PAX@Z 
01:0006C6A0 ?resetContextMenuResponder@pictureCanvas_class@@SAXQAVwindow@@@@Z 
01:0006C6D8 ?cursorSet@pictureCanvas_class@@SAXQAVwindow@@@H@Z 
01:0006C710 ?cursorSet@pictureCanvas_class@@SAXQAVwindow@@@HPAUboolean_struct@_builtIn_class@@@Z 
01:0006C748 ?cursorSet@pictureCanvas_class@@SAXQAVwindow@@@PBUhModule@@HPAUboolean_struct@_builtIn_class@@@Z 
01:0006C780 ?_cursorGetPos@pictureCanvas_class@@SAXQAVwindow@@@PAPAUpnt_struct@vpiDomains_class@@@Z 
01:0006C7B8 ?_cursorGet@pictureCanvas_class@@SAXQAVwindow@@@PAH@Z 
01:0006C7F0 ?_getState@pictureCanvas_class@@SAXQAVwindow@@@PAPAU?$__list_struct@Uwsflag@@@@@Z 
01:0006C828 ?isFlagSet@pictureCanvas_class@@SAXQAVwindow@@@I@Z 
01:0006C860 ?setState@pictureCanvas_class@@SAXQAVwindow@@@PAU?$__list_struct@Uwsflag@@@@@Z 
01:0006C898 ?setEnabled@pictureCanvas_class@@SAXQAVwindow@@@@Z 
01:0006C8D0 ?setEnabled@pictureCanvas_class@@SAXQAVwindow@@@PAUboolean_struct@_builtIn_class@@@Z 
01:0006C908 ?_getEnabled@pictureCanvas_class@@SAXQAVwindow@@@PAPAUboolean_struct@_builtIn_class@@@Z 
01:0006C940 ?setVisible@pictureCanvas_class@@SAXQAVwindow@@@@Z 
01:0006C978 ?setVisible@pictureCanvas_class@@SAXQAVwindow@@@PAUboolean_struct@_builtIn_class@@@Z 
01:0006C9B0 ?_getVisible@pictureCanvas_class@@SAXQAVwindow@@@PAPAUboolean_struct@_builtIn_class@@@Z 
01:0006C9E8 ?clearState@pictureCanvas_class@@SAXQAVwindow@@@PAU?$__list_struct@Uwsflag@@@@@Z 
01:0006CA20 ?setMinimizeSize@pictureCanvas_class@@SAXQAVwindow@@@HH@Z 
01:0006CA58 ?clearMinimizeSize@pictureCanvas_class@@SAXQAVwindow@@@@Z 
01:0006CA90 ?_timerSet@pictureCanvas_class@@SAXQAVwindow@@@HAAUtimerId@vpiDomains@@@Z 
01:0006CAC8 ?timerKill@pictureCanvas_class@@SAXQAVwindow@@@PBUtimerId@vpiDomains@@@Z 
01:0006CB00 ?addTimerListener@pictureCanvas_class@@SAXQAVwindow@@@X@Z 
01:0006CB38 ?removeTimerListener@pictureCanvas_class@@SAXQAVwindow@@@X@Z 
01:0006CB70 ?delayCall@pictureCanvas_class@@SAXQAVwindow@@@HX@Z 
01:0006CBA8 ?addNativeMessageHandler@pictureCanvas_class@@SAXQAVwindow@@@X@Z 
01:0006CBE0 ?removeNativeMessageHandler@pictureCanvas_class@@SAXQAVwindow@@@X@Z 
01:0006CC18 ?addUserListener@pictureCanvas_class@@SAXQAVwindow@@@X@Z 
01:0006CC50 ?removeUserListener@pictureCanvas_class@@SAXQAVwindow@@@X@Z 
01:0006CC88 ?addStateListener@pictureCanvas_class@@SAXQAVwindow@@@X@Z 
01:0006CCC0 ?removeStateListener@pictureCanvas_class@@SAXQAVwindow@@@X@Z 
01:0006CCF8 ?_tryGetVpiWindow@pictureCanvas_class@@SAXQAVwindow@@@AAUwindowHandle@vpiDomains@@@Z 
01:0006CD30 ?_getVpiWindow@pictureCanvas_class@@SAXQAVwindow@@@AAUwindowHandle@vpiDomains@@@Z 
01:0006CD68 ?_getData@pictureCanvas_class@@SAXQAVwindow@@@PAH@Z 
01:0006CDA0 ?setData@pictureCanvas_class@@SAXQAVwindow@@@H@Z 
01:0006CDD8 ?_getClassName@pictureCanvas_class@@SAXQAVwindow@@@PAPB_W@Z 
01:0006CE10 ?_getAttrVal@pictureCanvas_class@@SAXQAVwindow@@@HPAH@Z 
01:0006CE48 ?addHandler@pictureCanvas_class@@SAXQAVwindow@@@X@Z 
01:0006CE80 ?removeHandler@pictureCanvas_class@@SAXQAVwindow@@@X@Z 
01:0006CEB8 ?setSubClassHandler@pictureCanvas_class@@SAXQAVwindow@@@XPAUboolean_struct@_builtIn_class@@@Z 
01:0006CEF0 ?_sendEvent@pictureCanvas_class@@SAXQAVwindow@@@PAUevent_struct@vpiDomains_class@@PAH@Z 
01:0006CF28 ?_sendEvent@pictureCanvas_class@@SAXQAVwindow@@@PAUevent_struct@vpiDomains_class@@PAUboolean_struct@_builtIn_class@@PAH@Z 
01:0006CF60 ?postEvent@pictureCanvas_class@@SAXQAVwindow@@@PAUevent_struct@vpiDomains_class@@@Z 
01:0006CF98 ?postUserEvent@pictureCanvas_class@@SAXQAVwindow@@@HH@Z 
01:0006CFD0 ?_getEventHandler@pictureCanvas_class@@SAXQAVwindow@@@PAX@Z 
01:0006D008 ?unwrapVPIWin@pictureCanvas_class@@SAXQAVwindow@@@@Z 
01:0006D040 ?_getDefaultWindowExtension@pictureCanvas_class@@SAXQAVwindow@@@PAPAVwindowExtension@@@@Z 
01:0006D078 ?_getWindowExtension@pictureCanvas_class@@SAXQAVwindow@@@PAPAVwindowExtension@@@@Z 
01:0006D0B0 ?setWindowExtension@pictureCanvas_class@@SAXQAVwindow@@@QAVwindowExtension@@@@Z 
01:0006D0E8 ?classInfo@gui_exception_class@@SAXPAPB_W0@Z 
01:0006D104 ?raise_NoWindowException@gui_exception_class@@SGXX@Z 
01:0006D124 ?raise_InitializeException@gui_exception_class@@SGXX@Z 
01:0006D144 ?raise_TwiceAttachException@gui_exception_class@@SGXX@Z 
01:0006D164 ?raise_RemoveHandlerException@gui_exception_class@@SGXX@Z 
01:0006D184 ?raise_ClearStateException@gui_exception_class@@SGXX@Z 
01:0006D1A4 ?raise_ShowAfterDestroyException@gui_exception_class@@SGXX@Z 
01:0006D1C4 ?raise_WindowIsWrappedException@gui_exception_class@@SGXXPBUwindowHandle@vpiDomains@@@Z 
01:0006D23C ?raise_WindowCannotBeWrappedException@gui_exception_class@@SGXXPBUwindowHandle@vpiDomains@@@Z 
--- From 'Obj\controls.obj'
01:0006D2B4 ?raise_UnableToSetPropertyException@gui_exception_class@@SGXXPB_W@Z 
--- From 'Obj\gui.obj'
01:0006D328 ?raise_ObjectAlreadyExistsException@gui_exception_class@@SGXX@Z 
01:0006D348 ?raise_WrongButtonException@gui_exception_class@@SGXXQAVbutton@@@@Z 
01:0006D3CC ?raise_TryGetInitFocusAfterShowException@gui_exception_class@@SGXX@Z 
01:0006D3EC ?raise_CouldNotSetParentException@gui_exception_class@@SGXX@Z 
01:0006D40C ?noWindow_exception@gui_exception_class@@SAXPAXPAPB_W1@Z 
01:0006D434 ?twiceAttach_exception@gui_exception_class@@SAXPAXPAPB_W1@Z 
01:0006D45C ?showAfterDestroy_exception@gui_exception_class@@SAXPAXPAPB_W1@Z 
01:0006D484 ?initializeWindow_exception@gui_exception_class@@SAXPAXPAPB_W1@Z 
01:0006D4AC ?clearStateAfterShow_exception@gui_exception_class@@SAXPAXPAPB_W1@Z 
01:0006D4D4 ?windowIsAlreadyWrapped_exception@gui_exception_class@@SAXPAXPAPB_W1@Z 
01:0006D4FC ?windowCannotBeWrapped_exception@gui_exception_class@@SAXPAXPAPB_W1@Z 
01:0006D524 ?removeHandler_exception@gui_exception_class@@SAXPAXPAPB_W1@Z  (Idle)
01:0006D54C ?unableToSetPropertyAfterShow_exception@gui_exception_class@@SAXPAXPAPB_W1@Z 
01:0006D574 ?objectAlreadyExists_exception@gui_exception_class@@SAXPAXPAPB_W1@Z 
01:0006D59C ?wrongButton_exception@gui_exception_class@@SAXPAXPAPB_W1@Z 
01:0006D5C4 ?tryGetInitFocusAfterShow_exception@gui_exception_class@@SAXPAXPAPB_W1@Z 
01:0006D5EC ?couldNotSetParent_exception@gui_exception_class@@SAXPAXPAPB_W1@Z 
01:0006D614 ?classInfo@drawWindow_class@@SAXPAPB_W0@Z 
--- From 'Obj\controls.obj'
01:0006D630 ?new@drawWindow_class@@SAXQAVdrawWindow@@@@Z 
--- From 'Obj\gui.obj'
01:0006D678 ?new@drawWindow_class@@SAXQAVdrawWindow@@@QAVwindow@@@@Z 
01:0006D698 ?_getDefaultDrawWindowExtension@drawWindow_class@@SAXQAVdrawWindow@@@PAPAVdrawWindowExtension@@@@Z 
01:0006D6AC ?_getDrawWindowExtension@drawWindow_class@@SAXQAVdrawWindow@@@PAPAVdrawWindowExtension@@@@Z 
01:0006D6C0 ?setDrawWindowExtension@drawWindow_class@@SAXQAVdrawWindow@@@QAVdrawWindowExtension@@@@Z 
01:0006D6F8 ?setWindowExtension@drawWindow_class@@SAXQAVwindow@@@QAVwindowExtension@@@@Z 
01:0006D71C ?wrapVPIWin@drawWindow_class@@SAXQAVdrawWindow@@@PBUwindowHandle@vpiDomains@@@Z 
01:0006D768 ?_convertVPIWin2drawWindow@drawWindow_class@@SAXPBUwindowHandle@vpiDomains@@PAPAV4@@@Z  (Idle)
01:0006D7D4 ?initialize@drawWindow_class@@SAXQAVwindow@@@@Z 
01:0006D860 ?initMapMode@drawWindow_class@@SAXQAVdrawWindow@@@@Z 
01:0006D8BC ?initMapScale@drawWindow_class@@SAXQAVdrawWindow@@@@Z 
01:0006D944 ?initClip@drawWindow_class@@SAXQAVdrawWindow@@@@Z 
01:0006D9A0 ?_getPaintResponder@drawWindow_class@@SAXQAVdrawWindow@@@PAX@Z 
01:0006D9CC ?setPaintResponder@drawWindow_class@@SAXQAVdrawWindow@@@X@Z 
01:0006D9E0 ?resetPaintResponder@drawWindow_class@@SAXQAVdrawWindow@@@@Z 
01:0006DA10 ?handlePaint@drawWindow_class@@SAXQAVdrawWindowExtension@@@QAVdrawWindow@@@PAUrct_struct@vpiDomains_class@@QAVwindowGDI@@@@Z 
01:0006DA68 ?defaultPaintResponder@drawWindow_class@@SAXQAVdrawWindow@@@0PAUrct_struct@vpiDomains_class@@QAVwindowGDI@@@@Z 
01:0006DA70 ?_getEraseBackgroundResponder@drawWindow_class@@SAXQAVdrawWindow@@@PAX@Z 
01:0006DA9C ?setEraseBackgroundResponder@drawWindow_class@@SAXQAVdrawWindow@@@X@Z 
01:0006DAB0 ?resetEraseBackgroundResponder@drawWindow_class@@SAXQAVdrawWindow@@@@Z 
01:0006DAE0 ?_handleEraseBackground@drawWindow_class@@SAXQAVdrawWindowExtension@@@QAVdrawWindow@@@PAPAUeraseBackgroundResponse_struct@1@@Z 
01:0006DB38 ?_defaultEraseBackgroundResponder@drawWindow_class@@SAXQAVdrawWindow@@@0QAVwindowGDI@@@PAPAUeraseBackgroundResponse_struct@1@@Z 
01:0006DB4C ?addMouseDownListener@drawWindow_class@@SAXQAVdrawWindow@@@X@Z 
01:0006DB6C ?removeMouseDownListener@drawWindow_class@@SAXQAVdrawWindow@@@X@Z 
01:0006DC38 ?handleMouseDown@drawWindow_class@@SAXQAVdrawWindowExtension@@@QAVdrawWindow@@@PAUpnt_struct@vpiDomains_class@@IH@Z 
01:0006DCC4 ?addMouseUpListener@drawWindow_class@@SAXQAVdrawWindow@@@X@Z 
01:0006DCE4 ?removeMouseUpListener@drawWindow_class@@SAXQAVdrawWindow@@@X@Z 
01:0006DDB0 ?handleMouseUp@drawWindow_class@@SAXQAVdrawWindowExtension@@@QAVdrawWindow@@@PAUpnt_struct@vpiDomains_class@@IH@Z 
01:0006DE3C ?addMouseDblListener@drawWindow_class@@SAXQAVdrawWindow@@@X@Z 
01:0006DE5C ?removeMouseDblListener@drawWindow_class@@SAXQAVdrawWindow@@@X@Z 
01:0006DF28 ?handleMouseDbl@drawWindow_class@@SAXQAVdrawWindowExtension@@@QAVdrawWindow@@@PAUpnt_struct@vpiDomains_class@@IH@Z 
01:0006DFB4 ?addMouseMoveListener@drawWindow_class@@SAXQAVdrawWindow@@@X@Z 
01:0006DFD4 ?removeMouseMoveListener@drawWindow_class@@SAXQAVdrawWindow@@@X@Z 
01:0006E0A0 ?handleMouseMove@drawWindow_class@@SAXQAVdrawWindowExtension@@@QAVdrawWindow@@@PAUpnt_struct@vpiDomains_class@@IPAU?$__list_struct@Uinteger@@@@@Z 
01:0006E12C ?_getCharResponder@drawWindow_class@@SAXQAVdrawWindow@@@PAX@Z 
01:0006E158 ?setCharResponder@drawWindow_class@@SAXQAVdrawWindow@@@X@Z 
01:0006E16C ?resetCharResponder@drawWindow_class@@SAXQAVdrawWindow@@@@Z 
01:0006E19C ?_handleChar@drawWindow_class@@SAXQAVdrawWindowExtension@@@QAVdrawWindow@@@HIPAPAUcharResponse_struct@1@@Z 
01:0006E1F0 ?_defaultCharResponder@drawWindow_class@@SAXQAVdrawWindow@@@0HIPAPAUcharResponse_struct@1@@Z 
01:0006E204 ?_getKeyDownResponder@drawWindow_class@@SAXQAVdrawWindow@@@PAX@Z 
01:0006E230 ?setKeyDownResponder@drawWindow_class@@SAXQAVdrawWindow@@@X@Z 
01:0006E244 ?resetKeyDownResponder@drawWindow_class@@SAXQAVdrawWindow@@@@Z 
01:0006E274 ?_handleKeyDown@drawWindow_class@@SAXQAVdrawWindowExtension@@@QAVdrawWindow@@@HIPAPAUkeyDownResponse_struct@1@@Z 
01:0006E2C8 ?_defaultKeyDownResponder@drawWindow_class@@SAXQAVdrawWindow@@@0HIPAPAUkeyDownResponse_struct@1@@Z 
01:0006E2DC ?_getKeyUpResponder@drawWindow_class@@SAXQAVdrawWindow@@@PAX@Z 
01:0006E308 ?setKeyUpResponder@drawWindow_class@@SAXQAVdrawWindow@@@X@Z 
01:0006E31C ?resetKeyUpResponder@drawWindow_class@@SAXQAVdrawWindow@@@@Z 
01:0006E34C ?_handleKeyUp@drawWindow_class@@SAXQAVdrawWindowExtension@@@QAVdrawWindow@@@HIPAPAUkeyUpResponse_struct@1@@Z 
01:0006E3A0 ?_defaultKeyUpResponder@drawWindow_class@@SAXQAVdrawWindow@@@0HIPAPAUkeyUpResponse_struct@1@@Z 
01:0006E3B4 ?addVScrollListener@drawWindow_class@@SAXQAVdrawWindow@@@X@Z 
01:0006E3D4 ?removeVScrollListener@drawWindow_class@@SAXQAVdrawWindow@@@X@Z 
01:0006E4A0 ?handleVScroll@drawWindow_class@@SAXQAVdrawWindowExtension@@@QAVdrawWindow@@@HH@Z 
01:0006E52C ?addHScrollListener@drawWindow_class@@SAXQAVdrawWindow@@@X@Z 
01:0006E54C ?removeHScrollListener@drawWindow_class@@SAXQAVdrawWindow@@@X@Z 
01:0006E618 ?handleHScroll@drawWindow_class@@SAXQAVdrawWindowExtension@@@QAVdrawWindow@@@HH@Z 
01:0006E6A4 ?isEventHandledInDrawWindow@drawWindow_class@@SAXPAUevent_struct@vpiDomains_class@@@Z 
01:0006E71C ?_dispatchAutoHandler@drawWindow_class@@SAXQAVdrawWindow@@@PBUwindowHandle@@PAUevent_struct@vpiDomains_class@@PAH@Z 
01:0006F2D8 ?_getEventHandler@drawWindow_class@@SAXQAVwindow@@@PAX@Z 
01:0006F308 ?update@drawWindow_class@@SAXQAVdrawWindow@@@@Z 
01:0006F34C ?validateRect@drawWindow_class@@SAXQAVdrawWindow@@@PAUrct_struct@vpiDomains_class@@@Z 
01:0006F37C ?needsUpdate@drawWindow_class@@SAXQAVdrawWindow@@@PAUrct_struct@vpiDomains_class@@@Z 
01:0006F3AC ?invalidate@drawWindow_class@@SAXQAVdrawWindow@@@@Z 
01:0006F3F0 ?invalidate@drawWindow_class@@SAXQAVdrawWindow@@@PAUrct_struct@vpiDomains_class@@@Z 
01:0006F438 ?_getInvalidRect@drawWindow_class@@SAXQAVdrawWindow@@@PAPAUrct_struct@vpiDomains_class@@@Z 
01:0006F46C ?_getClip@drawWindow_class@@SAXQAVdrawWindow@@@PAPAUrct_struct@vpiDomains_class@@@Z 
01:0006F4D4 ?setClip@drawWindow_class@@SAXQAVdrawWindow@@@PAUrct_struct@vpiDomains_class@@@Z 
01:0006F5D0 ?captureMouse@drawWindow_class@@SAXQAVdrawWindow@@@@Z 
01:0006F5FC ?releaseMouse@drawWindow_class@@SAXQAVdrawWindow@@@@Z 
01:0006F60C ?_convertLPtoDP@drawWindow_class@@SAXQAVdrawWindow@@@PAU?$__list_struct@Upnt@@@@PAPAU?$__list_struct@U3@@@@Z 
01:0006F644 ?_convertDPtoLP@drawWindow_class@@SAXQAVdrawWindow@@@PAU?$__list_struct@Upnt@@@@PAPAU?$__list_struct@U3@@@@Z 
01:0006F67C ?getScrollRange@drawWindow_class@@SAXQAVdrawWindow@@@HPAHPAH@Z 
01:0006F6B0 ?setScrollRange@drawWindow_class@@SAXQAVdrawWindow@@@HHH@Z 
01:0006F738 ?initScrollRange@drawWindow_class@@SAXQAVdrawWindow@@@@Z 
01:0006F808 ?_getScrollPos@drawWindow_class@@SAXQAVdrawWindow@@@HPAH@Z 
01:0006F840 ?setScrollPos@drawWindow_class@@SAXQAVdrawWindow@@@HH@Z 
01:0006F8BC ?initScrollPos@drawWindow_class@@SAXQAVdrawWindow@@@@Z 
01:0006F97C ?_getScrollProportion@drawWindow_class@@SAXQAVdrawWindow@@@HPAI@Z 
01:0006F9B4 ?setScrollProportion@drawWindow_class@@SAXQAVdrawWindow@@@HI@Z 
01:0006FA34 ?initScrollProportion@drawWindow_class@@SAXQAVdrawWindow@@@@Z 
01:0006FAFC ?scroll@drawWindow_class@@SAXQAVdrawWindow@@@PAUrct_struct@vpiDomains_class@@HH@Z 
01:0006FB84 ?initScroll@drawWindow_class@@SAXQAVdrawWindow@@@@Z 
01:0006FC58 ?scroll@drawWindow_class@@SAXQAVdrawWindow@@@PAUrct_struct@vpiDomains_class@@HHI@Z 
01:0006FCB8 ?_getScrollBarInfo@drawWindow_class@@SAXQAVdrawWindow@@@HPAPAUscrollBarInfo_struct@1@@Z 
01:0006FE28 ?_getScrollBarObjCode@drawWindow_class@@SAXHPAI@Z 
01:0006FE84 ?_getScrollInfo@drawWindow_class@@SAXQAVdrawWindow@@@HPAPAUscrollInfo_struct@1@@Z 
01:0006FF68 ?setCaretSize@drawWindow_class@@SAXQAVdrawWindow@@@HH@Z 
01:00070004 ?initCaretSize@drawWindow_class@@SAXQAVdrawWindow@@@@Z 
01:00070074 ?setCaret@drawWindow_class@@SAXQAVdrawWindow@@@PAUpnt_struct@vpiDomains_class@@HH@Z 
01:000701E4 ?initCaret@drawWindow_class@@SAXQAVdrawWindow@@@@Z 
01:000702A0 ?setCaret@drawWindow_class@@SAXQAVdrawWindow@@@PAUpnt_struct@vpiDomains_class@@@Z 
01:00070364 ?hideCaret@drawWindow_class@@SAXQAVdrawWindow@@@@Z 
01:000703A8 ?_getMapMode@drawWindow_class@@SAXQAVdrawWindow@@@PAH@Z 
01:00070410 ?setMapMode@drawWindow_class@@SAXQAVdrawWindow@@@H@Z 
01:00070498 ?getMapScale@drawWindow_class@@SAXQAVdrawWindow@@@PAPAUpnt_struct@vpiDomains_class@@111@Z 
01:00070520 ?setMapScale@drawWindow_class@@SAXQAVdrawWindow@@@PAUpnt_struct@vpiDomains_class@@111@Z 
01:000705C4 ?getTextExtent@drawWindow_class@@SAXQAVwindowGDI@@@PB_WPAHPAH@Z 
01:000705F4 ?getTextExtent@drawWindow_class@@SAXQAVwindowGDI@@@PB_WHPAHPAH@Z 
01:0007062C ?setBackColor@drawWindow_class@@SAXQAVwindowGDI@@@H@Z 
01:0007065C ?_getBackColor@drawWindow_class@@SAXQAVwindowGDI@@@PAH@Z 
01:00070698 ?setForeColor@drawWindow_class@@SAXQAVwindowGDI@@@H@Z 
01:000706C8 ?_getForeColor@drawWindow_class@@SAXQAVwindowGDI@@@PAH@Z 
01:00070704 ?setBackMode@drawWindow_class@@SAXQAVwindowGDI@@@H@Z 
01:00070734 ?_getBackMode@drawWindow_class@@SAXQAVwindowGDI@@@PAH@Z 
01:00070770 ?_getPen@drawWindow_class@@SAXQAVwindowGDI@@@PAPAUpen_struct@vpiDomains_class@@@Z 
01:000707A4 ?setPen@drawWindow_class@@SAXQAVwindowGDI@@@PAUpen_struct@vpiDomains_class@@@Z 
01:000707D4 ?_getBrush@drawWindow_class@@SAXQAVwindowGDI@@@PAPAUbrush_struct@vpiDomains_class@@@Z 
01:00070808 ?setBrush@drawWindow_class@@SAXQAVwindowGDI@@@PAUbrush_struct@vpiDomains_class@@@Z 
01:00070838 ?_getDrawTools@drawWindow_class@@SAXQAVwindowGDI@@@PAPAUdrawtools_struct@vpiDomains_class@@@Z 
01:0007086C ?setDrawTools@drawWindow_class@@SAXQAVwindowGDI@@@PAUdrawtools_struct@vpiDomains_class@@@Z 
01:0007089C ?clear@drawWindow_class@@SAXQAVwindowGDI@@@H@Z 
01:000708CC ?clear@drawWindow_class@@SAXQAVwindowGDI@@@PAUrct_struct@vpiDomains_class@@H@Z 
01:00070900 ?_getDrawMode@drawWindow_class@@SAXQAVwindowGDI@@@PAH@Z 
01:00070934 ?setDrawMode@drawWindow_class@@SAXQAVwindowGDI@@@H@Z 
01:00070964 ?_getNativeGraphicContext@drawWindow_class@@SAXQAVwindowGDI@@@PAPAUboolean_struct@_builtIn_class@@PAPAX@Z 
01:000709A8 ?releaseNativeGraphicContext@drawWindow_class@@SAXQAVwindowGDI@@@PAXPAUboolean_struct@_builtIn_class@@@Z 
01:000709EC ?_getPixelColor@drawWindow_class@@SAXQAVwindowGDI@@@PAUpnt_struct@vpiDomains_class@@PAH@Z 
01:00070A24 ?drawTextInRect@drawWindow_class@@SAXQAVwindowGDI@@@PAUrct_struct@vpiDomains_class@@PB_WHPAU?$__list_struct@Uinteger@@@@@Z 
01:00070A5C ?drawTextInRect@drawWindow_class@@SAXQAVwindowGDI@@@PAUrct_struct@vpiDomains_class@@PB_WPAU?$__list_struct@Uinteger@@@@@Z 
01:00070A8C ?drawText@drawWindow_class@@SAXQAVwindowGDI@@@PAUpnt_struct@vpiDomains_class@@PB_WH@Z 
01:00070AD0 ?drawText@drawWindow_class@@SAXQAVwindowGDI@@@PAUpnt_struct@vpiDomains_class@@PB_W@Z 
01:00070B24 ?drawRoundRect@drawWindow_class@@SAXQAVwindowGDI@@@PAUrct_struct@vpiDomains_class@@HH@Z 
01:00070B58 ?drawRect@drawWindow_class@@SAXQAVwindowGDI@@@PAUrct_struct@vpiDomains_class@@@Z 
01:00070B88 ?drawFocusRect@drawWindow_class@@SAXQAVwindowGDI@@@PAUrct_struct@vpiDomains_class@@@Z 
01:00070BF0 ?drawPolyline@drawWindow_class@@SAXQAVwindowGDI@@@PAU?$__list_struct@Upnt@@@@@Z 
01:00070C20 ?drawPolygon@drawWindow_class@@SAXQAVwindowGDI@@@PAU?$__list_struct@Upnt@@@@@Z 
01:00070C50 ?drawPixel@drawWindow_class@@SAXQAVwindowGDI@@@PAUpnt_struct@vpiDomains_class@@H@Z 
01:00070C84 ?drawPie@drawWindow_class@@SAXQAVwindowGDI@@@PAUrct_struct@vpiDomains_class@@PAUpnt_struct@4@2@Z 
01:00070CD4 ?drawLine@drawWindow_class@@SAXQAVwindowGDI@@@PAUpnt_struct@vpiDomains_class@@1@Z 
01:00070D08 ?drawIcon@drawWindow_class@@SAXQAVwindowGDI@@@PAUpnt_struct@vpiDomains_class@@I@Z 
01:00070D48 ?drawFloodFill@drawWindow_class@@SAXQAVwindowGDI@@@PAUpnt_struct@vpiDomains_class@@H@Z 
01:00070D7C ?drawEllipse@drawWindow_class@@SAXQAVwindowGDI@@@PAUrct_struct@vpiDomains_class@@@Z 
01:00070DAC ?drawArc@drawWindow_class@@SAXQAVwindowGDI@@@PAUrct_struct@vpiDomains_class@@PAUpnt_struct@4@2@Z 
01:00070DFC ?pictDraw@drawWindow_class@@SAXQAVwindowGDI@@@PBUpicture@@PAUpnt_struct@vpiDomains_class@@H@Z 
01:00070E2C ?pictDraw@drawWindow_class@@SAXQAVwindowGDI@@@PBUpicture@@PAUrct_struct@vpiDomains_class@@2H@Z 
01:00070E5C ?_getWindowGDI@drawWindow_class@@SAXQAVdrawWindow@@@PAPAVwindowGDI@@@@Z 
01:00070E8C ?addHandler@drawWindow_class@@SAXQAVwindow@@@X@Z 
01:00070EB0 ?removeHandler@drawWindow_class@@SAXQAVwindow@@@X@Z 
01:00070F78 ?_new@drawWindow_class@@SAXPAPAVdrawWindow@@@@Z  (Idle)
01:00070FA0 ?_new@drawWindow_class@@SAXQAVwindow@@@PAPAVdrawWindow@@@@Z  (Idle)
01:00070FCC ?_wrapVPIWin@drawWindow_class@@SAXPBUwindowHandle@vpiDomains@@PAPAVdrawWindow@@@@Z 
01:00070FF8 ?_object_facts_initializer@drawWindow_class@@SGXQAVdrawWindow@@@@Z 
01:000710C4 ?handleShow@drawWindow_class@@SAXQAVwindowExtension@@@QAVwindow@@@H@Z 
01:000710E0 ?handleDestroy@drawWindow_class@@SAXQAVwindowExtension@@@QAVwindow@@@@Z 
01:000710FC ?handleSize@drawWindow_class@@SAXQAVwindowExtension@@@QAVwindow@@@HH@Z 
01:00071118 ?handleMove@drawWindow_class@@SAXQAVwindowExtension@@@QAVwindow@@@HH@Z 
01:00071134 ?handleFocus@drawWindow_class@@SAXQAVwindowExtension@@@QAVwindow@@@@Z 
01:00071150 ?handleLoseFocus@drawWindow_class@@SAXQAVwindowExtension@@@QAVwindow@@@@Z 
01:0007116C ?handleMenuCommand@drawWindow_class@@SAXQAVwindowExtension@@@QAVwindow@@@I@Z 
01:00071188 ?handleTimer@drawWindow_class@@SAXQAVwindowExtension@@@QAVwindow@@@PBUtimerId@vpiDomains@@@Z 
01:000711A4 ?_handleNative@drawWindow_class@@SAXQAVwindowExtension@@@QAVwindow@@@IIHPAPAUnativeResponse_struct@window_class@@@Z 
01:000711C0 ?handleUser@drawWindow_class@@SAXQAVwindowExtension@@@QAVwindow@@@HH@Z 
01:000711DC ?handleStateChange@drawWindow_class@@SAXQAVwindowExtension@@@QAVwindow@@@PAUstateInfo_struct@vpiDomains_class@@@Z 
01:000711F8 ?classInfo@formWindow_class@@SAXPAPB_W0@Z  (Idle)
01:00071214 ?new@formWindow_class@@SAXQAVformWindow@@@@Z 
--- From 'Obj\messageControl.obj'
01:00071450 ?new@formWindow_class@@SAXQAVformWindow@@@QAVwindow@@@@Z 
--- From 'Obj\gui.obj'
01:0007146C ?setFormWindowExtension@formWindow_class@@SAXQAVformWindow@@@QAVformWindowExtension@@@@Z 
01:000714A4 ?_getFormWindowExtension@formWindow_class@@SAXQAVformWindow@@@PAPAVformWindowExtension@@@@Z 
01:000714B8 ?_getDefaultFormWindowExtension@formWindow_class@@SAXQAVformWindow@@@PAPAVformWindowExtension@@@@Z 
01:000714CC ?show@formWindow_class@@SAXQAVwindow@@@@Z 
01:00071530 ?onFrameShow@formWindow_class@@SAXQAVformWindow@@@QAVwindow@@@H@Z 
01:00071764 ?setRectIfRestored@formWindow_class@@SAXQAVformWindow@@@@Z 
01:00071810 ?_getInitRect@formWindow_class@@SAXQAVformWindow@@@PAPAUrct_struct@vpiDomains_class@@@Z 
01:00071A48 ?onInnerDialogShow@formWindow_class@@SAXQAVformWindow@@@QAVwindow@@@H@Z 
01:00071AA0 ?onChildDialogMenu@formWindow_class@@SAXQAVformWindow@@@QAVwindow@@@I@Z 
01:00071B44 ?_onFrameNative@formWindow_class@@SAXQAVformWindow@@@QAVwindow@@@IIHPAPAUnativeResponse_struct@window_class@@@Z 
01:00071DE0 ?_onFrameEraseBackground@formWindow_class@@SAXQAVformWindow@@@QAVdrawWindow@@@QAVwindowGDI@@@PAPAUeraseBackgroundResponse_struct@drawWindow_class@@@Z 
01:00071DF4 ?onFrameSize@formWindow_class@@SAXQAVformWindow@@@QAVwindow@@@@Z 
01:00071E64 ?onFrameMove@formWindow_class@@SAXQAVformWindow@@@QAVwindow@@@@Z 
01:00071E70 ?updateUnitRect@formWindow_class@@SAXQAVformWindow@@@@Z 
01:00071EC4 ?tryRestoreRect@formWindow_class@@SAXQAVformWindow@@@@Z 
01:00071F20 ?onFrameFocus@formWindow_class@@SAXQAVformWindow@@@QAVwindow@@@@Z 
01:00072068 ?tryClearPreviousDefaultButton@formWindow_class@@SAXQAVformWindow@@@@Z 
01:00072118 ?onFrameState@formWindow_class@@SAXQAVformWindow@@@QAVwindow@@@PAUstateInfo_struct@vpiDomains_class@@@Z 
01:00072164 ?setModal@formWindow_class@@SAXQAVdialog@@@PAUboolean_struct@_builtIn_class@@@Z 
01:0007216C ?setRect@formWindow_class@@SAXQAVdialog@@@PAUrct_struct@vpiDomains_class@@@Z 
01:000721F4 ?moveFormWindow@formWindow_class@@SAXQAVformWindow@@@@Z 
01:00072274 ?_getRect@formWindow_class@@SAXQAVdialog@@@PAPAUrct_struct@vpiDomains_class@@@Z 
01:00072288 ?suspendLayout@formWindow_class@@SAXQAVdialog@@@@Z 
01:000722BC ?resumeLayout@formWindow_class@@SAXQAVdialog@@@@Z 
01:00072340 ?setCloseResponder@formWindow_class@@SAXQAVframeDecoration@@@X@Z 
01:000723C8 ?_onInternalDialogClose@formWindow_class@@SAXQAVformWindow@@@QAVwindow@@@PAPAUcloseResponse_struct@frameDecoration_class@@@Z 
01:000723EC ?_emulateExtension@formWindow_class@@SAXQAVformWindow@@@PBUwindowHandle@@PAUevent_struct@vpiDomains_class@@PAH@Z 
01:000724AC ?_new@formWindow_class@@SAXPAPAVformWindow@@@@Z  (Idle)
01:000724D4 ?_new@formWindow_class@@SAXQAVwindow@@@PAPAVformWindow@@@@Z  (Idle)
01:00072500 ?_object_facts_initializer@formWindow_class@@SGXQAVformWindow@@@@Z 
01:00072540 ?setMinimized@formWindow_class@@SAXQAVdocumentWindow@@@PAUboolean_struct@_builtIn_class@@@Z 
01:00072560 ?_getMinimized@formWindow_class@@SAXQAVdocumentWindow@@@PAPAUboolean_struct@_builtIn_class@@@Z 
01:00072580 ?isMinimized@formWindow_class@@SAXQAVdocumentWindow@@@@Z 
01:000725A0 ?_mdiGetRestoredRect@formWindow_class@@SAXQAVdocumentWindow@@@PAPAUrct_struct@vpiDomains_class@@@Z 
01:000725C0 ?addActivateListener@formWindow_class@@SAXQAVdocumentWindow@@@X@Z 
01:000725E0 ?removeActivateListener@formWindow_class@@SAXQAVdocumentWindow@@@X@Z 
01:00072600 ?addDeactivateListener@formWindow_class@@SAXQAVdocumentWindow@@@X@Z 
01:00072620 ?removeDeactivateListener@formWindow_class@@SAXQAVdocumentWindow@@@X@Z 
01:00072640 ?menuUpdate@formWindow_class@@SAXQAVdocumentWindow@@@@Z 
01:00072660 ?menuSetText@formWindow_class@@SAXQAVdocumentWindow@@@IPB_W@Z 
01:00072680 ?menuSet@formWindow_class@@SAXQAVdocumentWindow@@@PAUmenu_struct@vpiDomains_class@@@Z 
01:000726A0 ?_menuGet@formWindow_class@@SAXQAVdocumentWindow@@@PAPAUmenu_struct@vpiDomains_class@@@Z 
01:000726C0 ?menuEnable@formWindow_class@@SAXQAVdocumentWindow@@@IPAUboolean_struct@_builtIn_class@@@Z 
01:000726E0 ?menuCheck@formWindow_class@@SAXQAVdocumentWindow@@@IPAUboolean_struct@_builtIn_class@@@Z 
01:00072700 ?addInitMenuListener@formWindow_class@@SAXQAVdocumentWindow@@@X@Z 
01:00072720 ?removeInitMenuListener@formWindow_class@@SAXQAVdocumentWindow@@@X@Z 
01:00072740 ?_getDefaultDocumentWindowExtension@formWindow_class@@SAXQAVdocumentWindow@@@PAPAVdocumentWindowExtension@@@@Z 
01:00072760 ?_getDocumentWindowExtension@formWindow_class@@SAXQAVdocumentWindow@@@PAPAVdocumentWindowExtension@@@@Z 
01:00072780 ?setDocumentWindowExtension@formWindow_class@@SAXQAVdocumentWindow@@@QAVdocumentWindowExtension@@@@Z 
01:000727A0 ?handleActivate@formWindow_class@@SAXQAVdocumentWindowExtension@@@QAVdocumentWindow@@@@Z 
01:000727BC ?handleDeactivate@formWindow_class@@SAXQAVdocumentWindowExtension@@@QAVdocumentWindow@@@@Z 
01:000727D8 ?handleInitMenu@formWindow_class@@SAXQAVdocumentWindowExtension@@@QAVdocumentWindow@@@@Z 
01:000727F4 ?getScrollRange@formWindow_class@@SAXQAVdrawWindow@@@HPAHPAH@Z 
01:00072814 ?setScrollRange@formWindow_class@@SAXQAVdrawWindow@@@HHH@Z 
01:00072834 ?_getScrollPos@formWindow_class@@SAXQAVdrawWindow@@@HPAH@Z 
01:00072854 ?setScrollPos@formWindow_class@@SAXQAVdrawWindow@@@HH@Z 
01:00072874 ?_getScrollProportion@formWindow_class@@SAXQAVdrawWindow@@@HPAI@Z 
01:00072894 ?setScrollProportion@formWindow_class@@SAXQAVdrawWindow@@@HI@Z 
01:000728B4 ?_getScrollBarInfo@formWindow_class@@SAXQAVdrawWindow@@@HPAPAUscrollBarInfo_struct@drawWindow_class@@@Z 
01:000728D4 ?_getScrollInfo@formWindow_class@@SAXQAVdrawWindow@@@HPAPAUscrollInfo_struct@drawWindow_class@@@Z 
01:000728F4 ?addVScrollListener@formWindow_class@@SAXQAVdrawWindow@@@X@Z 
01:00072914 ?removeVScrollListener@formWindow_class@@SAXQAVdrawWindow@@@X@Z 
01:00072934 ?addHScrollListener@formWindow_class@@SAXQAVdrawWindow@@@X@Z 
01:00072954 ?removeHScrollListener@formWindow_class@@SAXQAVdrawWindow@@@X@Z 
01:00072974 ?setDecoration@formWindow_class@@SAXQAVframeDecoration@@@PAUdecoration_struct@frameDecoration_class@@@Z 
01:00072994 ?_getDecoration@formWindow_class@@SAXQAVframeDecoration@@@PAPAUdecoration_struct@frameDecoration_class@@@Z 
01:000729B4 ?setBorder@formWindow_class@@SAXQAVframeDecoration@@@PAUborder_struct@frameDecoration_class@@@Z 
01:000729D4 ?_getBorder@formWindow_class@@SAXQAVframeDecoration@@@PAPAUborder_struct@frameDecoration_class@@@Z 
01:000729F4 ?resetCloseResponder@formWindow_class@@SAXQAVframeDecoration@@@@Z 
01:00072A14 ?handlePaint@formWindow_class@@SAXQAVdrawWindowExtension@@@QAVdrawWindow@@@PAUrct_struct@vpiDomains_class@@QAVwindowGDI@@@@Z 
01:00072A30 ?_handleEraseBackground@formWindow_class@@SAXQAVdrawWindowExtension@@@QAVdrawWindow@@@PAPAUeraseBackgroundResponse_struct@drawWindow_class@@@Z 
01:00072A4C ?handleMouseDown@formWindow_class@@SAXQAVdrawWindowExtension@@@QAVdrawWindow@@@PAUpnt_struct@vpiDomains_class@@IH@Z 
01:00072A68 ?handleMouseUp@formWindow_class@@SAXQAVdrawWindowExtension@@@QAVdrawWindow@@@PAUpnt_struct@vpiDomains_class@@IH@Z 
01:00072A84 ?handleMouseMove@formWindow_class@@SAXQAVdrawWindowExtension@@@QAVdrawWindow@@@PAUpnt_struct@vpiDomains_class@@IPAU?$__list_struct@Uinteger@@@@@Z 
01:00072AA0 ?handleMouseDbl@formWindow_class@@SAXQAVdrawWindowExtension@@@QAVdrawWindow@@@PAUpnt_struct@vpiDomains_class@@IH@Z 
01:00072ABC ?_handleChar@formWindow_class@@SAXQAVdrawWindowExtension@@@QAVdrawWindow@@@HIPAPAUcharResponse_struct@drawWindow_class@@@Z 
01:00072AD8 ?_handleKeyDown@formWindow_class@@SAXQAVdrawWindowExtension@@@QAVdrawWindow@@@HIPAPAUkeyDownResponse_struct@drawWindow_class@@@Z 
01:00072AF4 ?_handleKeyUp@formWindow_class@@SAXQAVdrawWindowExtension@@@QAVdrawWindow@@@HIPAPAUkeyUpResponse_struct@drawWindow_class@@@Z 
01:00072B10 ?handleVScroll@formWindow_class@@SAXQAVdrawWindowExtension@@@QAVdrawWindow@@@HH@Z 
01:00072B2C ?handleHScroll@formWindow_class@@SAXQAVdrawWindowExtension@@@QAVdrawWindow@@@HH@Z 
01:00072B48 ?destroy@formWindow_class@@SAXQAVwindow@@@@Z 
01:00072B64 ?close@formWindow_class@@SAXQAVwindow@@@@Z 
01:00072B80 ?_getParent@formWindow_class@@SAXQAVwindow@@@PAPAV2@@@Z 
01:00072B9C ?setParent@formWindow_class@@SAXQAVwindow@@@0@Z 
01:00072BB8 ?_getText@formWindow_class@@SAXQAVwindow@@@PAPB_W@Z 
01:00072BD4 ?setText@formWindow_class@@SAXQAVwindow@@@PB_W@Z 
01:00072BF0 ?_getOuterRect@formWindow_class@@SAXQAVwindow@@@PAPAUrct_struct@vpiDomains_class@@@Z 
01:00072C0C ?setOuterRect@formWindow_class@@SAXQAVwindow@@@PAUrct_struct@vpiDomains_class@@@Z 
01:00072C28 ?setClientRect@formWindow_class@@SAXQAVwindow@@@PAUrct_struct@vpiDomains_class@@@Z 
01:00072C44 ?_getClientRect@formWindow_class@@SAXQAVwindow@@@PAPAUrct_struct@vpiDomains_class@@@Z 
01:00072C60 ?center@formWindow_class@@SAXQAVwindow@@@@Z 
01:00072C7C ?center@formWindow_class@@SAXQAVwindow@@@PAUrct_struct@vpiDomains_class@@@Z 
01:00072C98 ?centerTo@formWindow_class@@SAXQAVwindow@@@0@Z 
01:00072CB4 ?addMoveListener@formWindow_class@@SAXQAVwindow@@@X@Z 
01:00072CD0 ?removeMoveListener@formWindow_class@@SAXQAVwindow@@@X@Z 
01:00072CEC ?setFocus@formWindow_class@@SAXQAVwindow@@@@Z 
01:00072D0C ?setActive@formWindow_class@@SAXQAVwindow@@@@Z 
01:00072D2C ?setIcon@formWindow_class@@SAXQAVwindow@@@I@Z 
01:00072D4C ?menuPopUp@formWindow_class@@SAXQAVwindow@@@PAUmenu_struct@vpiDomains_class@@PAUpnt_struct@4@H@Z 
01:00072D6C ?addMenuItemListener@formWindow_class@@SAXQAVwindow@@@X@Z 
01:00072D8C ?addMenuItemListener@formWindow_class@@SAXQAVwindow@@@IX@Z 
01:00072DAC ?removeMenuItemListener@formWindow_class@@SAXQAVwindow@@@X@Z 
01:00072DCC ?_getState@formWindow_class@@SAXQAVwindow@@@PAPAU?$__list_struct@Uwsflag@@@@@Z 
01:00072DEC ?setState@formWindow_class@@SAXQAVwindow@@@PAU?$__list_struct@Uwsflag@@@@@Z 
01:00072E0C ?setEnabled@formWindow_class@@SAXQAVwindow@@@@Z 
01:00072E2C ?setEnabled@formWindow_class@@SAXQAVwindow@@@PAUboolean_struct@_builtIn_class@@@Z 
01:00072E4C ?_getEnabled@formWindow_class@@SAXQAVwindow@@@PAPAUboolean_struct@_builtIn_class@@@Z 
01:00072E6C ?setVisible@formWindow_class@@SAXQAVwindow@@@@Z 
01:00072E8C ?setVisible@formWindow_class@@SAXQAVwindow@@@PAUboolean_struct@_builtIn_class@@@Z 
01:00072EAC ?_getVisible@formWindow_class@@SAXQAVwindow@@@PAPAUboolean_struct@_builtIn_class@@@Z 
01:00072ECC ?clearState@formWindow_class@@SAXQAVwindow@@@PAU?$__list_struct@Uwsflag@@@@@Z 
01:00072EEC ?handleShow@formWindow_class@@SAXQAVwindowExtension@@@QAVwindow@@@H@Z 
01:00072F08 ?handleDestroy@formWindow_class@@SAXQAVwindowExtension@@@QAVwindow@@@@Z 
01:00072F24 ?handleSize@formWindow_class@@SAXQAVwindowExtension@@@QAVwindow@@@HH@Z 
01:00072F40 ?handleMove@formWindow_class@@SAXQAVwindowExtension@@@QAVwindow@@@HH@Z 
01:00072F5C ?handleFocus@formWindow_class@@SAXQAVwindowExtension@@@QAVwindow@@@@Z 
01:00072F78 ?handleLoseFocus@formWindow_class@@SAXQAVwindowExtension@@@QAVwindow@@@@Z 
01:00072F94 ?handleMenuCommand@formWindow_class@@SAXQAVwindowExtension@@@QAVwindow@@@I@Z 
01:00072FB0 ?handleTimer@formWindow_class@@SAXQAVwindowExtension@@@QAVwindow@@@PBUtimerId@vpiDomains@@@Z 
01:00072FCC ?_handleNative@formWindow_class@@SAXQAVwindowExtension@@@QAVwindow@@@IIHPAPAUnativeResponse_struct@window_class@@@Z 
01:00072FE8 ?handleUser@formWindow_class@@SAXQAVwindowExtension@@@QAVwindow@@@HH@Z 
01:00073004 ?handleStateChange@formWindow_class@@SAXQAVwindowExtension@@@QAVwindow@@@PAUstateInfo_struct@vpiDomains_class@@@Z 
01:00073020 ?classInfo@applicationWindow_class@@SAXPAPB_W0@Z 
01:0007303C ?new@applicationWindow_class@@SAXQAVapplicationWindow@@@@Z 
01:00073140 ?_getParent@applicationWindow_class@@SAXQAVwindow@@@PAPAV2@@@Z 
01:00073154 ?setParent@applicationWindow_class@@SAXQAVwindow@@@0@Z 
01:00073164 ?_get@applicationWindow_class@@SAXPAPAVapplicationWindow@@@@Z 
01:000731AC ?checkSecondCreation@applicationWindow_class@@SAXXZ 
01:000731E0 ?setMdiProperty@applicationWindow_class@@SAXQAVapplicationWindow@@@PAUboolean_struct@_builtIn_class@@@Z 
01:00073238 ?_getMdiProperty@applicationWindow_class@@SAXQAVapplicationWindow@@@PAPAUboolean_struct@_builtIn_class@@@Z 
01:0007325C ?setMaximized@applicationWindow_class@@SAXQAVapplicationWindow@@@PAUboolean_struct@_builtIn_class@@@Z 
01:00073294 ?_getMaximized@applicationWindow_class@@SAXQAVapplicationWindow@@@PAPAUboolean_struct@_builtIn_class@@@Z 
01:000732F8 ?isMaximized@applicationWindow_class@@SAXQAVapplicationWindow@@@@Z 
01:00073344 ?getMdiClientSize@applicationWindow_class@@SAXQAVapplicationWindow@@@PAHPAH@Z 
01:00073420 ?show@applicationWindow_class@@SAXQAVwindow@@@@Z 
01:00073508 ?_createProcess@applicationWindow_class@@SAXQAVapplicationWindow@@@PB_W1IPAPAX@Z 
01:00073544 ?setErrorResponder@applicationWindow_class@@SAXQAVapplicationWindow@@@X@Z 
01:00073584 ?_getErrorResponder@applicationWindow_class@@SAXQAVapplicationWindow@@@PAX@Z 
01:000735B0 ?defaultErrorResponder@applicationWindow_class@@SAXQAVapplicationWindow@@@0PBUtraceId@exception@@@Z 
01:000735FC ?internalGuiErrorHandler@applicationWindow_class@@SAXQAVapplicationWindow@@@PBUwindowHandle@@PBUtraceId@exception@@@Z 
01:0007364C ?_getEndSessionResponder@applicationWindow_class@@SAXQAVapplicationWindow@@@PAX@Z 
01:00073678 ?setEndSessionResponder@applicationWindow_class@@SAXQAVapplicationWindow@@@X@Z 
01:0007368C ?resetEndSessionResponder@applicationWindow_class@@SAXQAVapplicationWindow@@@@Z 
01:000736BC ?_defaultEndSessionResponder@applicationWindow_class@@SAXQAVapplicationWindow@@@0PAUboolean_struct@_builtIn_class@@PAPAUendSessionResponse_struct@1@@Z 
01:000736D0 ?addEndApplicationListener@applicationWindow_class@@SAXQAVapplicationWindow@@@X@Z 
01:000736F0 ?removeEndApplicationListener@applicationWindow_class@@SAXQAVapplicationWindow@@@X@Z 
01:000737BC ?_dispatchEnd@applicationWindow_class@@SAXQAVapplicationWindow@@@PBUwindowHandle@@PAUevent_struct@vpiDomains_class@@PAH@Z 
01:000738CC ?_new@applicationWindow_class@@SAXPAPAVapplicationWindow@@@@Z 
01:000738F4 ?_object_facts_initializer@applicationWindow_class@@SGXQAVapplicationWindow@@@@Z 
01:00073950 ?classInfo@childWindow_class@@SAXPAPB_W0@Z  (Idle)
01:0007396C ?new@childWindow_class@@SAXQAVchildWindow@@@@Z 
01:00073978 ?new@childWindow_class@@SAXQAVchildWindow@@@QAVwindow@@@@Z 
01:000739A4 ?show@childWindow_class@@SAXQAVwindow@@@@Z 
01:00073A6C ?_new@childWindow_class@@SAXPAPAVchildWindow@@@@Z  (Idle)
01:00073A94 ?_new@childWindow_class@@SAXQAVwindow@@@PAPAVchildWindow@@@@Z  (Idle)
01:00073AC0 ?classInfo@documentWindow_class@@SAXPAPB_W0@Z 
01:00073ADC ?new@documentWindow_class@@SAXQAVdocumentWindow@@@@Z 
01:00073B84 ?new@documentWindow_class@@SAXQAVdocumentWindow@@@QAVwindow@@@@Z 
01:00073BA4 ?_getDefaultDocumentWindowExtension@documentWindow_class@@SAXQAVdocumentWindow@@@PAPAVdocumentWindowExtension@@@@Z 
01:00073BB8 ?_getDocumentWindowExtension@documentWindow_class@@SAXQAVdocumentWindow@@@PAPAVdocumentWindowExtension@@@@Z 
01:00073BCC ?setDocumentWindowExtension@documentWindow_class@@SAXQAVdocumentWindow@@@QAVdocumentWindowExtension@@@@Z 
01:00073BF8 ?setDrawWindowExtension@documentWindow_class@@SAXQAVdrawWindow@@@QAVdrawWindowExtension@@@@Z 
01:00073C1C ?wrapVPIWin@documentWindow_class@@SAXQAVdocumentWindow@@@PBUwindowHandle@vpiDomains@@@Z 
01:00073C9C ?checkTopLevelType@documentWindow_class@@SAXPBUwindowHandle@@@Z 
01:00073D18 ?show@documentWindow_class@@SAXQAVwindow@@@@Z 
01:00073DFC ?_getFullState@documentWindow_class@@SAXQAVdocumentWindow@@@PAUboolean_struct@_builtIn_class@@PAPAU?$__list_struct@Uwsflag@@@@@Z 
01:00073E58 ?setMaximized@documentWindow_class@@SAXPAUboolean_struct@_builtIn_class@@@Z  (Idle)
01:00073ECC ?setMaximized@documentWindow_class@@SAXPAUboolean_struct@_builtIn_class@@PBUwindowHandle@vpiDomains@@@Z 
01:00073F00 ?getStateOfActive@documentWindow_class@@SAXAAUwindowHandle@vpiDomains@@PAPAUboolean_struct@_builtIn_class@@@Z 
--- From 'Obj\messageControl.obj'
01:00073FE8 ?isMaximized@documentWindow_class@@SAXXZ 
--- From 'Obj\gui.obj'
01:00074014 ?_getMaximized@documentWindow_class@@SAXPAPAUboolean_struct@_builtIn_class@@@Z  (Idle)
01:00074054 ?activateNextMDI@documentWindow_class@@SAXXZ  (Idle)
01:0007406C ?activatePreviousMDI@documentWindow_class@@SAXXZ  (Idle)
01:00074088 ?activateNextMDI@documentWindow_class@@SAXH@Z 
01:000740F8 ?setMinimized@documentWindow_class@@SAXQAVdocumentWindow@@@PAUboolean_struct@_builtIn_class@@@Z 
01:00074130 ?isMinimized@documentWindow_class@@SAXQAVdocumentWindow@@@@Z 
01:0007417C ?_getMinimized@documentWindow_class@@SAXQAVdocumentWindow@@@PAPAUboolean_struct@_builtIn_class@@@Z 
01:000741C0 ?_mdiGetRestoredRect@documentWindow_class@@SAXQAVdocumentWindow@@@PAPAUrct_struct@vpiDomains_class@@@Z 
01:000741F0 ?moveTile@documentWindow_class@@SAXPAU?$__list_struct@Uinteger@@@@@Z  (Idle)
01:00074200 ?moveCascade@documentWindow_class@@SAXPAU?$__list_struct@Uinteger@@@@@Z  (Idle)
01:00074210 ?arrangeMinimized@documentWindow_class@@SAXXZ  (Idle)
01:0007421C ?addActivateListener@documentWindow_class@@SAXQAVdocumentWindow@@@X@Z 
01:0007423C ?removeActivateListener@documentWindow_class@@SAXQAVdocumentWindow@@@X@Z 
01:00074308 ?handleActivate@documentWindow_class@@SAXQAVdocumentWindowExtension@@@QAVdocumentWindow@@@@Z 
01:0007438C ?addDeactivateListener@documentWindow_class@@SAXQAVdocumentWindow@@@X@Z 
01:000743AC ?removeDeactivateListener@documentWindow_class@@SAXQAVdocumentWindow@@@X@Z 
01:00074478 ?handleDeactivate@documentWindow_class@@SAXQAVdocumentWindowExtension@@@QAVdocumentWindow@@@@Z 
01:000744FC ?addInitMenuListener@documentWindow_class@@SAXQAVdocumentWindow@@@X@Z 
01:0007451C ?removeInitMenuListener@documentWindow_class@@SAXQAVdocumentWindow@@@X@Z 
01:000745E8 ?handleInitMenu@documentWindow_class@@SAXQAVdocumentWindowExtension@@@QAVdocumentWindow@@@@Z 
01:0007466C ?isEventHandledInDocumentWindow@documentWindow_class@@SAXPAUevent_struct@vpiDomains_class@@@Z 
01:00074694 ?_dispatchAutoHandler@documentWindow_class@@SAXQAVdocumentWindow@@@PBUwindowHandle@@PAUevent_struct@vpiDomains_class@@PAH@Z 
01:000749CC ?getEventHandler@documentWindow_class@@SAXQAVwindow@@@PAX@Z 
01:000749FC ?menuUpdate@documentWindow_class@@SAXQAVdocumentWindow@@@@Z 
01:00074A28 ?menuSetText@documentWindow_class@@SAXQAVdocumentWindow@@@IPB_W@Z 
01:00074A5C ?menuSet@documentWindow_class@@SAXQAVdocumentWindow@@@PAUmenu_struct@vpiDomains_class@@@Z 
01:00074AD0 ?menuGet@documentWindow_class@@SAXQAVdocumentWindow@@@PAPAUmenu_struct@vpiDomains_class@@@Z 
01:00074B58 ?menuEnable@documentWindow_class@@SAXQAVdocumentWindow@@@IPAUboolean_struct@_builtIn_class@@@Z 
01:00074B9C ?menuCheck@documentWindow_class@@SAXQAVdocumentWindow@@@IPAUboolean_struct@_builtIn_class@@@Z 
01:00074BE0 ?addHandler@documentWindow_class@@SAXQAVwindow@@@X@Z 
01:00074C04 ?removeHandler@documentWindow_class@@SAXQAVwindow@@@X@Z 
01:00074CCC ?_new@documentWindow_class@@SAXPAPAVdocumentWindow@@@@Z 
01:00074CF4 ?_new@documentWindow_class@@SAXQAVwindow@@@PAPAVdocumentWindow@@@@Z  (Idle)
01:00074D20 ?_wrapVPIWin@documentWindow_class@@SAXPBUwindowHandle@vpiDomains@@PAPAVdocumentWindow@@@@Z  (Idle)
01:00074D4C ?handlePaint@documentWindow_class@@SAXQAVdrawWindowExtension@@@QAVdrawWindow@@@PAUrct_struct@vpiDomains_class@@QAVwindowGDI@@@@Z 
01:00074D68 ?_handleEraseBackground@documentWindow_class@@SAXQAVdrawWindowExtension@@@QAVdrawWindow@@@PAPAUeraseBackgroundResponse_struct@drawWindow_class@@@Z 
01:00074D84 ?handleMouseDown@documentWindow_class@@SAXQAVdrawWindowExtension@@@QAVdrawWindow@@@PAUpnt_struct@vpiDomains_class@@IH@Z 
01:00074DA0 ?handleMouseUp@documentWindow_class@@SAXQAVdrawWindowExtension@@@QAVdrawWindow@@@PAUpnt_struct@vpiDomains_class@@IH@Z 
01:00074DBC ?handleMouseMove@documentWindow_class@@SAXQAVdrawWindowExtension@@@QAVdrawWindow@@@PAUpnt_struct@vpiDomains_class@@IPAU?$__list_struct@Uinteger@@@@@Z 
01:00074DD8 ?handleMouseDbl@documentWindow_class@@SAXQAVdrawWindowExtension@@@QAVdrawWindow@@@PAUpnt_struct@vpiDomains_class@@IH@Z 
01:00074DF4 ?_handleChar@documentWindow_class@@SAXQAVdrawWindowExtension@@@QAVdrawWindow@@@HIPAPAUcharResponse_struct@drawWindow_class@@@Z 
01:00074E10 ?_handleKeyDown@documentWindow_class@@SAXQAVdrawWindowExtension@@@QAVdrawWindow@@@HIPAPAUkeyDownResponse_struct@drawWindow_class@@@Z 
01:00074E2C ?_handleKeyUp@documentWindow_class@@SAXQAVdrawWindowExtension@@@QAVdrawWindow@@@HIPAPAUkeyUpResponse_struct@drawWindow_class@@@Z 
01:00074E48 ?handleVScroll@documentWindow_class@@SAXQAVdrawWindowExtension@@@QAVdrawWindow@@@HH@Z 
01:00074E64 ?handleHScroll@documentWindow_class@@SAXQAVdrawWindowExtension@@@QAVdrawWindow@@@HH@Z 
01:00074E80 ?handleShow@documentWindow_class@@SAXQAVwindowExtension@@@QAVwindow@@@H@Z 
01:00074E9C ?handleDestroy@documentWindow_class@@SAXQAVwindowExtension@@@QAVwindow@@@@Z 
01:00074EB8 ?handleSize@documentWindow_class@@SAXQAVwindowExtension@@@QAVwindow@@@HH@Z 
01:00074ED4 ?handleMove@documentWindow_class@@SAXQAVwindowExtension@@@QAVwindow@@@HH@Z 
01:00074EF0 ?handleFocus@documentWindow_class@@SAXQAVwindowExtension@@@QAVwindow@@@@Z 
01:00074F0C ?handleLoseFocus@documentWindow_class@@SAXQAVwindowExtension@@@QAVwindow@@@@Z 
01:00074F28 ?handleMenuCommand@documentWindow_class@@SAXQAVwindowExtension@@@QAVwindow@@@I@Z 
01:00074F44 ?handleTimer@documentWindow_class@@SAXQAVwindowExtension@@@QAVwindow@@@PBUtimerId@vpiDomains@@@Z 
01:00074F60 ?_handleNative@documentWindow_class@@SAXQAVwindowExtension@@@QAVwindow@@@IIHPAPAUnativeResponse_struct@window_class@@@Z 
01:00074F7C ?handleUser@documentWindow_class@@SAXQAVwindowExtension@@@QAVwindow@@@HH@Z 
01:00074F98 ?handleStateChange@documentWindow_class@@SAXQAVwindowExtension@@@QAVwindow@@@PAUstateInfo_struct@vpiDomains_class@@@Z 
01:00074FB4 ?classInfo@dialog_class@@SAXPAPB_W0@Z 
01:00074FD0 ?new@dialog_class@@SAXQAVdialog@@@@Z 
01:000750E0 ?_getDialogExtension@dialog_class@@SAXQAVdialog@@@PAPAVdialogExtension@@@@Z 
01:000750F4 ?_getDefaultDialogExtension@dialog_class@@SAXQAVdialog@@@PAPAVdialogExtension@@@@Z 
01:00075108 ?setDialogExtension@dialog_class@@SAXQAVdialog@@@QAVdialogExtension@@@@Z 
01:00075134 ?setDrawWindowExtension@dialog_class@@SAXQAVdrawWindow@@@QAVdrawWindowExtension@@@@Z 
01:00075158 ?new@dialog_class@@SAXQAVdialog@@@QAVwindow@@@@Z 
01:00075178 ?wrapVPIWin@dialog_class@@SAXQAVdialog@@@PBUwindowHandle@vpiDomains@@@Z 
01:00075214 ?addListeners@dialog_class@@SAXQAVdialog@@@@Z 
01:000752B4 ?show@dialog_class@@SAXQAVwindow@@@@Z 
01:0007540C ?onDialogShow@dialog_class@@SAXQAVdialog@@@QAVwindow@@@H@Z 
01:00075428 ?onDialogSize@dialog_class@@SAXQAVdialog@@@QAVwindow@@@@Z 
01:00075434 ?onDialogMove@dialog_class@@SAXQAVdialog@@@QAVwindow@@@@Z 
01:00075440 ?updateDialogUnitRect@dialog_class@@SAXQAVdialog@@@@Z 
01:00075490 ?getEventHandler@dialog_class@@SAXQAVwindow@@@PAX@Z 
01:000754C0 ?_dialogAutoHandler@dialog_class@@SAXQAVdialog@@@PBUwindowHandle@@PAUevent_struct@vpiDomains_class@@PAH@Z 
01:0007567C ?setModal@dialog_class@@SAXQAVdialog@@@PAUboolean_struct@_builtIn_class@@@Z 
01:00075708 ?_getModal@dialog_class@@SAXQAVdialog@@@PAPAUboolean_struct@_builtIn_class@@@Z 
01:00075734 ?suspendLayout@dialog_class@@SAXQAVdialog@@@@Z 
01:0007578C ?isLayoutSuspended@dialog_class@@SAXQAVdialog@@@@Z 
01:000757AC ?resumeLayout@dialog_class@@SAXQAVdialog@@@@Z 
01:000757F0 ?layout@dialog_class@@SAXQAVdialog@@@@Z 
01:0007587C ?moveDialog@dialog_class@@SAXQAVdialog@@@PBUwindowHandle@vpiDomains@@@Z 
01:00075944 ?_adjustRectangleFromParentToScreen@dialog_class@@SAXQAVdialog@@@PBUwindowHandle@vpiDomains@@PAUrct_struct@vpiDomains_class@@PAPAU56@@Z 
01:00075A80 ?movePendedControls@dialog_class@@SAXQAVdialog@@@@Z 
01:00075B38 ?moveControl@dialog_class@@SAXQAVdialog@@@QAVcontrol@@@@Z 
01:00075BE8 ?setUnit@dialog_class@@SAXQAVdialog@@@PAUunit_struct@1@@Z 
01:00075C70 ?_getUnit@dialog_class@@SAXQAVdialog@@@PAPAUunit_struct@1@@Z 
01:00075CA0 ?setPosition@dialog_class@@SAXQAVdialog@@@PAUpnt_struct@vpiDomains_class@@@Z 
01:00075D28 ?setPosition@dialog_class@@SAXQAVdialog@@@HH@Z 
01:00075D5C ?_getPosition@dialog_class@@SAXQAVdialog@@@PAPAUpnt_struct@vpiDomains_class@@@Z 
01:00075DB8 ?getPosition@dialog_class@@SAXQAVdialog@@@PAHPAH@Z 
01:00075DE8 ?setSize@dialog_class@@SAXQAVdialog@@@HH@Z 
01:00075E74 ?getSize@dialog_class@@SAXQAVdialog@@@PAHPAH@Z 
01:00075ED0 ?setWidth@dialog_class@@SAXQAVdialog@@@H@Z 
01:00075F0C ?_getWidth@dialog_class@@SAXQAVdialog@@@PAH@Z 
01:00075F2C ?setHeight@dialog_class@@SAXQAVdialog@@@H@Z 
01:00075F68 ?getHeight@dialog_class@@SAXQAVdialog@@@PAH@Z 
01:00075F88 ?setRect@dialog_class@@SAXQAVdialog@@@PAUrct_struct@vpiDomains_class@@@Z 
01:00075FF0 ?_getRect@dialog_class@@SAXQAVdialog@@@PAPAUrct_struct@vpiDomains_class@@@Z 
01:00076004 ?rectPixel2Unit@dialog_class@@SAXQAVdialog@@@PAUrct_struct@vpiDomains_class@@PAPAU34@@Z 
01:000760DC ?rectUnit2Pixel@dialog_class@@SAXQAVdialog@@@PAUrct_struct@vpiDomains_class@@PAPAU34@@Z 
01:000761B4 ?pntPixel2Unit@dialog_class@@SAXQAVdialog@@@PAUpnt_struct@vpiDomains_class@@PAPAU34@@Z 
01:00076328 ?pntUnit2Pixel@dialog_class@@SAXQAVdialog@@@PAUpnt_struct@vpiDomains_class@@PAPAU34@@Z 
01:0007649C ?_convertVPIWin2dialog@dialog_class@@SAXPBUwindowHandle@vpiDomains@@PAPAV4@@@Z 
01:00076510 ?setDefaultButton@dialog_class@@SAXQAVdialog@@@QAVbutton@@@@Z 
01:000766E4 ?onDefaultButtonShow@dialog_class@@SAXQAVdialog@@@QAVwindow@@@H@Z 
01:00076734 ?onDefaultButtonState@dialog_class@@SAXQAVdialog@@@QAVwindow@@@PAUstateInfo_struct@vpiDomains_class@@@Z 
01:0007689C ?clearAndSetDefaultFlags@dialog_class@@SAXQAVdialog@@@QAVbutton@@@@Z 
01:000769B0 ?buttonSetNativeFlag@dialog_class@@SAXQAVbutton@@@@Z 
01:000769FC ?_tryGetDefaultButton@dialog_class@@SAXQAVdialog@@@PAPAVbutton@@@@Z 
01:00076AB4 ?initFocus@dialog_class@@SAXQAVdialog@@@@Z 
01:00076BD8 ?setInitFocus@dialog_class@@SAXQAVdialog@@@QAVcontrol@@@@Z 
01:00076C4C ?_tryGetInitFocus@dialog_class@@SAXQAVdialog@@@PAPAVcontrol@@@@Z 
01:00076D50 ?addValidateResponder@dialog_class@@SAXQAVdialog@@@X@Z 
01:00076D70 ?removeValidateResponder@dialog_class@@SAXQAVdialog@@@X@Z 
01:00076E3C ?_validate@dialog_class@@SAXQAVdialog@@@PAPAUvalidateResult_struct@1@@Z 
01:00076F78 ?tryValidateWithErrorDialog@dialog_class@@SAXQAVdialog@@@@Z 
01:00076FEC ?_new@dialog_class@@SAXPAPAVdialog@@@@Z  (Idle)
01:00077014 ?_new@dialog_class@@SAXQAVwindow@@@PAPAVdialog@@@@Z  (Idle)
01:00077040 ?_wrapVPIWin@dialog_class@@SAXPBUwindowHandle@vpiDomains@@PAPAVdialog@@@@Z 
01:0007706C ?_object_facts_initializer@dialog_class@@SGXQAVdialog@@@@Z 
01:000770B4 ?handlePaint@dialog_class@@SAXQAVdrawWindowExtension@@@QAVdrawWindow@@@PAUrct_struct@vpiDomains_class@@QAVwindowGDI@@@@Z 
01:000770D0 ?_handleEraseBackground@dialog_class@@SAXQAVdrawWindowExtension@@@QAVdrawWindow@@@PAPAUeraseBackgroundResponse_struct@drawWindow_class@@@Z 
01:000770EC ?handleMouseDown@dialog_class@@SAXQAVdrawWindowExtension@@@QAVdrawWindow@@@PAUpnt_struct@vpiDomains_class@@IH@Z 
01:00077108 ?handleMouseUp@dialog_class@@SAXQAVdrawWindowExtension@@@QAVdrawWindow@@@PAUpnt_struct@vpiDomains_class@@IH@Z 
01:00077124 ?handleMouseMove@dialog_class@@SAXQAVdrawWindowExtension@@@QAVdrawWindow@@@PAUpnt_struct@vpiDomains_class@@IPAU?$__list_struct@Uinteger@@@@@Z 
01:00077140 ?handleMouseDbl@dialog_class@@SAXQAVdrawWindowExtension@@@QAVdrawWindow@@@PAUpnt_struct@vpiDomains_class@@IH@Z 
01:0007715C ?_handleChar@dialog_class@@SAXQAVdrawWindowExtension@@@QAVdrawWindow@@@HIPAPAUcharResponse_struct@drawWindow_class@@@Z 
01:00077178 ?_handleKeyDown@dialog_class@@SAXQAVdrawWindowExtension@@@QAVdrawWindow@@@HIPAPAUkeyDownResponse_struct@drawWindow_class@@@Z 
01:00077194 ?_handleKeyUp@dialog_class@@SAXQAVdrawWindowExtension@@@QAVdrawWindow@@@HIPAPAUkeyUpResponse_struct@drawWindow_class@@@Z 
01:000771B0 ?handleVScroll@dialog_class@@SAXQAVdrawWindowExtension@@@QAVdrawWindow@@@HH@Z 
01:000771CC ?handleHScroll@dialog_class@@SAXQAVdrawWindowExtension@@@QAVdrawWindow@@@HH@Z 
01:000771E8 ?handleShow@dialog_class@@SAXQAVwindowExtension@@@QAVwindow@@@H@Z 
01:00077204 ?handleDestroy@dialog_class@@SAXQAVwindowExtension@@@QAVwindow@@@@Z 
01:00077220 ?handleSize@dialog_class@@SAXQAVwindowExtension@@@QAVwindow@@@HH@Z 
01:0007723C ?handleMove@dialog_class@@SAXQAVwindowExtension@@@QAVwindow@@@HH@Z 
01:00077258 ?handleFocus@dialog_class@@SAXQAVwindowExtension@@@QAVwindow@@@@Z 
01:00077274 ?handleLoseFocus@dialog_class@@SAXQAVwindowExtension@@@QAVwindow@@@@Z 
01:00077290 ?handleMenuCommand@dialog_class@@SAXQAVwindowExtension@@@QAVwindow@@@I@Z 
01:000772AC ?handleTimer@dialog_class@@SAXQAVwindowExtension@@@QAVwindow@@@PBUtimerId@vpiDomains@@@Z 
01:000772C8 ?_handleNative@dialog_class@@SAXQAVwindowExtension@@@QAVwindow@@@IIHPAPAUnativeResponse_struct@window_class@@@Z 
01:000772E4 ?handleUser@dialog_class@@SAXQAVwindowExtension@@@QAVwindow@@@HH@Z 
01:00077300 ?handleStateChange@dialog_class@@SAXQAVwindowExtension@@@QAVwindow@@@PAUstateInfo_struct@vpiDomains_class@@@Z 
01:0007731C ?classInfo@window_class@@SAXPAPB_W0@Z 
--- From 'Obj\controls.obj'
01:00077338 ?new@window_class@@SAXQAVwindow@@@@Z 
--- From 'Obj\gui.obj'
01:00077354 ?new@window_class@@SAXQAVwindow@@@0@Z 
01:000773A4 ?_getDefaultWindowExtension@window_class@@SAXQAVwindow@@@PAPAVwindowExtension@@@@Z 
01:000773B8 ?_getWindowExtension@window_class@@SAXQAVwindow@@@PAPAVwindowExtension@@@@Z 
01:000773CC ?setWindowExtension@window_class@@SAXQAVwindow@@@QAVwindowExtension@@@@Z 
01:000773F0 ?setNewHandler@window_class@@SAXQAVwindow@@@PBUwindowHandle@@X@Z 
01:00077468 ?show@window_class@@SAXQAVwindow@@@@Z 
01:0007747C ?_tryGetVpiWindow@window_class@@SAXQAVwindow@@@AAUwindowHandle@vpiDomains@@@Z 
01:000774A4 ?isShown@window_class@@SAXQAVwindow@@@@Z 
01:000774C4 ?_getVpiWindow@window_class@@SAXQAVwindow@@@AAUwindowHandle@vpiDomains@@@Z 
01:0007750C ?attachVpiWindow@window_class@@SAXQAVwindow@@@PBUwindowHandle@vpiDomains@@@Z 
01:000775F0 ?detachVpiWindow@window_class@@SAXQAVwindow@@@@Z 
01:00077608 ?destroy@window_class@@SAXQAVwindow@@@@Z 
01:00077630 ?isDestroying@window_class@@SAXQAVwindow@@@@Z 
01:00077650 ?close@window_class@@SAXQAVwindow@@@@Z 
01:00077674 ?initialize@window_class@@SAXQAVwindow@@@@Z 
01:00077758 ?isInitializing@window_class@@SAXQAVwindow@@@@Z 
01:00077778 ?initData@window_class@@SAXQAVwindow@@@@Z 
01:000777D4 ?initIcon@window_class@@SAXQAVwindow@@@@Z 
01:00077830 ?initFont@window_class@@SAXQAVwindow@@@@Z 
01:000778CC ?initRect@window_class@@SAXQAVwindow@@@@Z 
01:00077928 ?initHook@window_class@@SAXQAVwindow@@@@Z 
01:0007799C ?initText@window_class@@SAXQAVwindow@@@@Z 
01:000779F8 ?initState@window_class@@SAXQAVwindow@@@@Z 
01:00077A88 ?getParent@window_class@@SAXQAVwindow@@@PAPAV2@@@Z 
01:00077B38 ?setParent@window_class@@SAXQAVwindow@@@0@Z 
01:00077BAC ?_getDialogParent@window_class@@SAXQAVwindow@@@PAPAVdialog@@@@Z 
01:00077C10 ?_getText@window_class@@SAXQAVwindow@@@PAPB_W@Z 
01:00077C90 ?setText@window_class@@SAXQAVwindow@@@PB_W@Z 
01:00077D00 ?_getData@window_class@@SAXQAVwindow@@@PAH@Z 
01:00077D7C ?setData@window_class@@SAXQAVwindow@@@H@Z 
01:00077E00 ?_getOuterRect@window_class@@SAXQAVwindow@@@PAPAUrct_struct@vpiDomains_class@@@Z 
01:00077E30 ?setOuterRect@window_class@@SAXQAVwindow@@@PAUrct_struct@vpiDomains_class@@@Z 
01:00077EA8 ?setClientRect@window_class@@SAXQAVwindow@@@PAUrct_struct@vpiDomains_class@@@Z 
01:00077F24 ?_getClientRect@window_class@@SAXQAVwindow@@@PAPAUrct_struct@vpiDomains_class@@@Z 
01:00078074 ?getClientSize@window_class@@SAXQAVwindow@@@PAHPAH@Z 
01:000780C4 ?adjustRectEx@window_class@@SAXQAVwindow@@@PAUrct_struct@vpiDomains_class@@PAPAU34@@Z 
01:00078278 ?_windowHasMenu@window_class@@SAXPBUwindowHandle@@IPAH@Z 
01:000782C8 ?center@window_class@@SAXQAVwindow@@@@Z 
01:000782F0 ?center@window_class@@SAXQAVwindow@@@PAUrct_struct@vpiDomains_class@@@Z 
01:00078318 ?centerTo@window_class@@SAXQAVwindow@@@0@Z 
01:000784F0 ?_appropriateParent@window_class@@SAXQAVwindow@@@PAPAV2@@@Z 
01:00078538 ?_mapPointsTo@window_class@@SAXQAVwindow@@@0PAU?$__list_struct@Upnt@@@@PAPAU?$__list_struct@U4@@@@Z 
01:00078584 ?_mapPointTo@window_class@@SAXQAVwindow@@@0PAUpnt_struct@vpiDomains_class@@PAPAU45@@Z 
01:000785D0 ?setIcon@window_class@@SAXQAVwindow@@@I@Z 
01:00078654 ?setFocus@window_class@@SAXQAVwindow@@@@Z 
01:000786C0 ?initFocus@window_class@@SAXQAVwindow@@@@Z 
01:00078704 ?bringToTop@window_class@@SAXQAVwindow@@@@Z 
01:00078770 ?initBringToTop@window_class@@SAXQAVwindow@@@@Z 
01:000787B4 ?setActive@window_class@@SAXQAVwindow@@@@Z 
01:00078820 ?initActive@window_class@@SAXQAVwindow@@@@Z 
01:00078864 ?setFont@window_class@@SAXQAVwindow@@@PBUfont@vpiDomains@@@Z 
01:000788D4 ?_getFont@window_class@@SAXQAVwindow@@@AAUfont@vpiDomains@@@Z 
01:00078978 ?getFontMetrics@window_class@@SAXQAVwindow@@@PAHPAHPAH@Z 
01:000789A8 ?addHandler@window_class@@SAXQAVwindow@@@X@Z 
01:000789C8 ?removeHandler@window_class@@SAXQAVwindow@@@X@Z 
01:00078A88 ?setSubClassHandler@window_class@@SAXQAVwindow@@@XPAUboolean_struct@_builtIn_class@@@Z 
01:00078B5C ?attachSpecialHandler@window_class@@SAXQAVwindow@@@PBUwindowHandle@vpiDomains@@@Z 
01:00078D64 ?_getOwnPaint@window_class@@SAXQAVwindow@@@PAH@Z 
01:00078DA8 ?_subclassEH@window_class@@SAXQAVwindow@@@PBUwindowHandle@@PAUevent_struct@vpiDomains_class@@PAH@Z 
01:00078E1C ?sendEvent@window_class@@SAXQAVwindow@@@PAUevent_struct@vpiDomains_class@@PAH@Z 
01:00078E4C ?_sendEvent@window_class@@SAXQAVwindow@@@PAUevent_struct@vpiDomains_class@@PAUboolean_struct@_builtIn_class@@PAH@Z 
01:00078E94 ?postEvent@window_class@@SAXQAVwindow@@@PAUevent_struct@vpiDomains_class@@@Z 
01:00078EEC ?postUserEvent@window_class@@SAXQAVwindow@@@HH@Z 
01:00078F8C ?initPostEvent@window_class@@SAXQAVwindow@@@@Z 
01:00079044 ?_getClassName@window_class@@SAXQAVwindow@@@PAPB_W@Z 
01:00079074 ?_timerSet@window_class@@SAXQAVwindow@@@HAAUtimerId@vpiDomains@@@Z 
01:000790A4 ?timerKill@window_class@@SAXQAVwindow@@@PBUtimerId@vpiDomains@@@Z 
01:000790B4 ?_getAttrVal@window_class@@SAXQAVwindow@@@HPAH@Z 
01:000790DC $getDialogs$window$predicate$(i,o)$c$_m15 
01:00079110 $vpiWinList2DialogList$window$predicate$(i,o)$c$_m62 
01:0007918C $getChildWindows$window$predicate$(i,o)$c$_m16 
01:000791C0 $vpiWinList2WindowList$window$predicate$(i,o)$c$_m63 
01:0007923C ?isChild@window_class@@SAXQAVwindow@@@0@Z 
01:00079284 ?isChild@window_class@@SAXPBUwindowHandle@@0@Z 
01:000792CC ?menuPopUp@window_class@@SAXQAVwindow@@@PAUmenu_struct@vpiDomains_class@@PAUpnt_struct@4@H@Z 
01:000792FC ?cursorSet@window_class@@SAXQAVwindow@@@H@Z 
01:00079380 ?initCursor@window_class@@SAXQAVwindow@@@@Z 
01:000793DC ?cursorSet@window_class@@SAXQAVwindow@@@HPAUboolean_struct@_builtIn_class@@@Z 
01:0007941C ?cursorSet@window_class@@SAXQAVwindow@@@PBUhModule@@HPAUboolean_struct@_builtIn_class@@@Z 
01:0007945C ?_cursorGetPos@window_class@@SAXQAVwindow@@@PAPAUpnt_struct@vpiDomains_class@@@Z 
01:0007948C ?_cursorGet@window_class@@SAXQAVwindow@@@PAH@Z 
01:000794BC ?_checkState@window_class@@SAXQAVwindow@@@IPAPAUboolean_struct@_builtIn_class@@@Z 
01:00079518 ?isFlagSet@window_class@@SAXQAVwindow@@@I@Z 
01:00079548 ?getState@window_class@@SAXQAVwindow@@@PAPAU?$__list_struct@Uwsflag@@@@@Z 
01:0007960C ?setState@window_class@@SAXQAVwindow@@@PAU?$__list_struct@Uwsflag@@@@@Z 
01:00079924 ?windowContinue@window_class@@SAXQAVwindow@@@PAXPAPB_W2@Z 
01:0007994C ?setEnabled@window_class@@SAXQAVwindow@@@@Z 
01:00079974 ?setEnabled@window_class@@SAXQAVwindow@@@PAUboolean_struct@_builtIn_class@@@Z 
01:000799A0 ?_getEnabled@window_class@@SAXQAVwindow@@@PAPAUboolean_struct@_builtIn_class@@@Z 
01:000799D0 ?setVisible@window_class@@SAXQAVwindow@@@@Z 
01:000799F8 ?setVisible@window_class@@SAXQAVwindow@@@PAUboolean_struct@_builtIn_class@@@Z 
01:00079A24 ?_getVisible@window_class@@SAXQAVwindow@@@PAPAUboolean_struct@_builtIn_class@@@Z 
01:00079A54 ?clearState@window_class@@SAXQAVwindow@@@PAU?$__list_struct@Uwsflag@@@@@Z 
01:00079A84 ?addState@window_class@@SAXQAVwindow@@@PAU?$__list_struct@Uwsflag@@@@@Z 
01:00079C2C ?clearStateList@window_class@@SAXQAVwindow@@@PAU?$__list_struct@Uwsflag@@@@@Z 
01:00079D1C ?isDynStateFlagTrigger@window_class@@SAXQAVwindow@@@IPAPAU?$__list_struct@Uwsflag@@@@@Z 
01:00079E04 ?addShowListener@window_class@@SAXQAVwindow@@@X@Z 
01:00079E24 ?removeShowListener@window_class@@SAXQAVwindow@@@X@Z 
01:00079EF0 ?handleShow@window_class@@SAXQAVwindowExtension@@@QAVwindow@@@H@Z 
01:00079F78 ?addDestroyListener@window_class@@SAXQAVwindow@@@X@Z 
01:00079F98 ?removeDestroyListener@window_class@@SAXQAVwindow@@@X@Z 
01:0007A064 ?handleDestroy@window_class@@SAXQAVwindowExtension@@@QAVwindow@@@@Z 
01:0007A108 ?addGetFocusListener@window_class@@SAXQAVwindow@@@X@Z 
01:0007A128 ?removeGetFocusListener@window_class@@SAXQAVwindow@@@X@Z 
01:0007A1FC ?handleFocus@window_class@@SAXQAVwindowExtension@@@QAVwindow@@@@Z 
01:0007A284 ?addLoseFocusListener@window_class@@SAXQAVwindow@@@X@Z 
01:0007A2A4 ?removeLoseFocusListener@window_class@@SAXQAVwindow@@@X@Z 
01:0007A378 ?handleLoseFocus@window_class@@SAXQAVwindowExtension@@@QAVwindow@@@@Z 
01:0007A400 ?addSizeListener@window_class@@SAXQAVwindow@@@X@Z 
01:0007A420 ?removeSizeListener@window_class@@SAXQAVwindow@@@X@Z 
01:0007A4F4 ?handleSize@window_class@@SAXQAVwindowExtension@@@QAVwindow@@@HH@Z 
01:0007A57C ?addMoveListener@window_class@@SAXQAVwindow@@@X@Z 
01:0007A59C ?removeMoveListener@window_class@@SAXQAVwindow@@@X@Z 
01:0007A670 ?handleMove@window_class@@SAXQAVwindowExtension@@@QAVwindow@@@HH@Z 
01:0007A6F8 ?addTimerListener@window_class@@SAXQAVwindow@@@X@Z 
01:0007A718 ?removeTimerListener@window_class@@SAXQAVwindow@@@X@Z 
01:0007A7EC ?handleTimer@window_class@@SAXQAVwindowExtension@@@QAVwindow@@@PBUtimerId@vpiDomains@@@Z 
01:0007A878 ?delayCall@window_class@@SAXQAVwindow@@@HX@Z 
01:0007AA48 ?onDelayCallTimer@window_class@@SAXQAVwindow@@@0PBUtimerId@vpiDomains@@@Z 
01:0007AB38 ?addMenuItemListener@window_class@@SAXQAVwindow@@@X@Z 
01:0007AB58 ?removeMenuItemListener@window_class@@SAXQAVwindow@@@X@Z 
01:0007ADF0 ?addMenuItemListener@window_class@@SAXQAVwindow@@@IX@Z 
01:0007AE30 ?handleMenuCommand@window_class@@SAXQAVwindowExtension@@@QAVwindow@@@I@Z 
01:0007AE90 ?retrieveMenuListener@window_class@@SAXQAVwindow@@@IPAX@Z 
01:0007AF38 ?_getContextMenuResponder@window_class@@SAXQAVwindow@@@PAX@Z 
01:0007AF64 ?setContextMenuResponder@window_class@@SAXQAVwindow@@@X@Z 
01:0007B034 ?resetContextMenuResponder@window_class@@SAXQAVwindow@@@@Z 
01:0007B068 ?_defaultContextMenuResponder@window_class@@SAXQAVwindow@@@0PAUcontextMenuInput_struct@1@PAPAUcontextMenuResponse_struct@1@@Z 
01:0007B07C ?_contextMenuHandler@window_class@@SAXQAVwindow@@@PBUwindowHandle@@PAUevent_struct@vpiDomains_class@@PAH@Z 
01:0007B11C ?_parse_wm_contextmenu_lparam@window_class@@SAXPBUwindowHandle@vpiDomains@@HPAPAUcontextMenuInput_struct@1@@Z 
01:0007B170 ?addNativeMessageHandler@window_class@@SAXQAVwindow@@@X@Z 
01:0007B1A0 ?removeNativeMessageHandler@window_class@@SAXQAVwindow@@@X@Z 
01:0007B274 ?enableHook@window_class@@SAXQAVwindow@@@@Z 
01:0007B2E0 ?_handleNative@window_class@@SAXQAVwindowExtension@@@QAVwindow@@@IIHPAPAUnativeResponse_struct@1@@Z 
01:0007B4CC ?clearMinimizeSize@window_class@@SAXQAVwindow@@@@Z 
01:0007B4E4 ?setMinimizeSize@window_class@@SAXQAVwindow@@@HH@Z 
01:0007B53C ?handleSetMinimizeSize@window_class@@SAXQAVwindow@@@H@Z 
01:0007B5AC ?fixMinimumSize@window_class@@SAXPAXH@Z 
01:0007B5E0 ?addUserListener@window_class@@SAXQAVwindow@@@X@Z 
01:0007B600 ?removeUserListener@window_class@@SAXQAVwindow@@@X@Z 
01:0007B6D4 ?handleUser@window_class@@SAXQAVwindowExtension@@@QAVwindow@@@HH@Z 
01:0007B760 ?addStateListener@window_class@@SAXQAVwindow@@@X@Z 
01:0007B780 ?removeStateListener@window_class@@SAXQAVwindow@@@X@Z 
01:0007B854 ?handleStateChange@window_class@@SAXQAVwindowExtension@@@QAVwindow@@@PAUstateInfo_struct@vpiDomains_class@@@Z 
01:0007B8E0 ?_getEventHandler@window_class@@SAXQAVwindow@@@PAX@Z 
01:0007B93C ?_dispatchAutoHandler@window_class@@SAXQAVwindow@@@PBUwindowHandle@@PAUevent_struct@vpiDomains_class@@PAH@Z 
01:0007C630 ?_dummyEventHandler@window_class@@SAXPBUwindowHandle@@PAUevent_struct@vpiDomains_class@@PAH@Z 
01:0007C63C ?_eventFormat@window_class@@SAXPAUevent_struct@vpiDomains_class@@PAPB_W@Z  (Idle)
01:0007C73C ?pairlist_member@window_class@@SAXPAPB_WPAHPAU?$__list_struct@Ustring@@@@PAU?$__list_struct@Uinteger@@@@@Z 
01:0007C7B4 ?_tryConvertVPIWin2Window@window_class@@SAXPBUwindowHandle@vpiDomains@@PAPAVwindow@@@@Z 
01:0007C7E0 ?_tryConvertVPIWin2Dialog@window_class@@SAXPBUwindowHandle@vpiDomains@@PAPAVdialog@@@@Z  (Idle)
01:0007C80C ?wrapVPIWin@window_class@@SAXQAVwindow@@@PBUwindowHandle@vpiDomains@@@Z 
01:0007C870 ?unwrapVPIWin@window_class@@SAXQAVwindow@@@@Z 
01:0007C908 ?_unwrap_eventHandler@window_class@@SAXQAVwindow@@@PAX@Z 
01:0007C958 ?wrapExtendedInfo@window_class@@SAXQAVwindow@@@PBUwindowHandle@@@Z 
01:0007CA18 ?checkNotWrapped@window_class@@SAXPBUwindowHandle@@@Z 
01:0007CA74 ?_convertVPIWin2Window@window_class@@SAXPBUwindowHandle@vpiDomains@@PAPAVwindow@@@@Z 
01:0007CBF8 ?checkSaveScreenWin@window_class@@SAXPBUwindowHandle@@QAVwindow@@@@Z 
01:0007CCD4 ?saveOldHandler@window_class@@SAXQAVwindow@@@PBUwindowHandle@vpiDomains@@@Z 
01:0007CE20 ?_dispatchWrapHandler@window_class@@SAXQAVwindow@@@PBUwindowHandle@@PAUevent_struct@vpiDomains_class@@PAH@Z 
01:0007CE98 ?memberState@window_class@@SAXIPAU?$__list_struct@Uwsflag@@@@@Z  (Idle)
01:0007CEC8 ?memberState_nd@window_class@@SAXPAIPAU?$__list_struct@Uwsflag@@@@@Z  (Idle)
01:0007CEF8 ?_getProcessWindow@window_class@@SAXPAXPAPAVwindow@@@@Z  (Idle)
01:0007CF18 ?_getScreenWindow@window_class@@SAXPAPAVwindow@@@@Z 
01:0007CF84 ?_tryGetFocusWindow@window_class@@SAXPAPAVwindow@@@@Z 
01:0007CFAC ?_getActiveWindow@window_class@@SAXPAPAVwindow@@@@Z  (Idle)
01:0007CFD4 ?_new@window_class@@SAXPAPAVwindow@@@@Z  (Idle)
01:0007CFFC ?_new@window_class@@SAXQAVwindow@@@PAPAV2@@@Z  (Idle)
01:0007D028 ?_wrapVPIWin@window_class@@SAXPBUwindowHandle@vpiDomains@@PAPAVwindow@@@@Z 
01:0007D054 ?_object_facts_initializer@window_class@@SGXQAVwindow@@@@Z 
01:0007D09C ?classInfo@frameDecoration_class@@SAXPAPB_W0@Z 
01:0007D0B8 ?new@frameDecoration_class@@SAXQAVframeDecoration@@@QAVwindow@@@@Z 
01:0007D10C ?setDecoration@frameDecoration_class@@SAXQAVframeDecoration@@@PAUdecoration_struct@1@@Z 
01:0007D288 ?_buttonListToStateList@frameDecoration_class@@SAXPAU?$__list_struct@UdecorationButton@@@@PAPAU?$__list_struct@Uwsflag@@@@@Z 
01:0007D300 ?button_state@frameDecoration_class@@SAXPAUdecorationButton_struct@1@PAI@Z 
01:0007D334 ?_getDecoration@frameDecoration_class@@SAXQAVframeDecoration@@@PAPAUdecoration_struct@1@@Z 
01:0007D368 ?_getDecoration@frameDecoration_class@@SAXPAU?$__list_struct@Uwsflag@@@@PAPAUdecoration_struct@1@@Z 
01:0007D40C ?_stateListToButtonList@frameDecoration_class@@SAXPAU?$__list_struct@Uwsflag@@@@PAPAU?$__list_struct@UdecorationButton@@@@@Z 
01:0007D4B0 ?setBorder@frameDecoration_class@@SAXQAVframeDecoration@@@PAUborder_struct@1@@Z 
01:0007D54C ?_getBorder@frameDecoration_class@@SAXQAVframeDecoration@@@PAPAUborder_struct@1@@Z 
01:0007D5BC ?border_state@frameDecoration_class@@SAXPAUborder_struct@1@PAI@Z 
01:0007D5F8 ?_defaultCloseResponder@frameDecoration_class@@SAXQAVframeDecoration@@@QAVwindow@@@PAPAUcloseResponse_struct@1@@Z 
01:0007D60C ?setCloseResponder@frameDecoration_class@@SAXQAVframeDecoration@@@X@Z 
01:0007D620 ?_getCloseResponder@frameDecoration_class@@SAXQAVframeDecoration@@@PAX@Z 
01:0007D64C ?resetCloseResponder@frameDecoration_class@@SAXQAVframeDecoration@@@@Z 
01:0007D67C ?_handleClose@frameDecoration_class@@SAXQAVframeDecoration@@@PBUwindowHandle@@PAUevent_struct@vpiDomains_class@@PAH@Z 
01:0007D6EC ?_new@frameDecoration_class@@SAXQAVwindow@@@PAPAVframeDecoration@@@@Z  (Idle)
01:0007D718 ?button_state@frameDecoration_class@@SAXPAPAUdecorationButton_struct@1@I@Z 
01:0007D758 ?border_state@frameDecoration_class@@SAXPAPAUborder_struct@1@I@Z 
01:0007D7AC ?_object_facts_initializer@frameDecoration_class@@SGXQAVframeDecoration@@@@Z 
01:0007E1F4 ?_initObject@pictureCanvas@@QAGXQAV1@H@Z 
01:0007E220 ?@create_object@pictureCanvas_class@@SGQAVpictureCanvas@@@XZ 
01:0007E23C ?_InternalFinalizer@pictureCanvas@@QAGXQAV1@@Z 
--- From 'Obj\controls.obj'
01:0007F494 ?_initObject@drawWindow@@QAGXQAV1@H@Z 
--- From 'Obj\gui.obj'
01:0007F4DC ?@create_object@drawWindow_class@@SGQAVdrawWindow@@@XZ 
--- From 'Obj\controls.obj'
01:0007F4F8 ?_InternalFinalizer@drawWindow@@QAGXQAV1@@Z 
--- From 'Obj\messageControl.obj'
01:00083850 ?_initObject@formWindow@@QAGXQAV1@H@Z 
--- From 'Obj\gui.obj'
01:00083898 ?@create_object@formWindow_class@@SGQAVformWindow@@@XZ 
--- From 'Obj\messageControl.obj'
01:000838B4 ?_InternalFinalizer@formWindow@@QAGXQAV1@@Z 
--- From 'Obj\gui.obj'
01:000844BC ?_initObject@applicationWindow@@QAGXQAV1@H@Z 
01:00084504 ?@create_object@applicationWindow_class@@SGQAVapplicationWindow@@@XZ 
01:00084520 ?_InternalFinalizer@applicationWindow@@QAGXQAV1@@Z 
01:00084F38 ?_initObject@childWindow@@QAGXQAV1@H@Z 
01:00084F60 ?@create_object@childWindow_class@@SGQAVchildWindow@@@XZ 
01:00084F7C ?_InternalFinalizer@childWindow@@QAGXQAV1@@Z 
01:00086760 ?_initObject@documentWindow@@QAGXQAV1@H@Z 
01:000867B4 ?@create_object@documentWindow_class@@SGQAVdocumentWindow@@@XZ 
01:000867D0 ?_InternalFinalizer@documentWindow@@QAGXQAV1@@Z 
01:000896F8 ?_initObject@dialog@@QAGXQAV1@H@Z 
01:00089768 ?@create_object@dialog_class@@SGQAVdialog@@@XZ 
01:00089784 ?_InternalFinalizer@dialog@@QAGXQAV1@@Z 
--- From 'Obj\controls.obj'
01:00089CC4 ?_initObject@window@@QAGXQAV1@H@Z 
--- From 'Obj\gui.obj'
01:00089CF4 ?@create_object@window_class@@SGQAVwindow@@@XZ 
--- From 'Obj\controls.obj'
01:00089D10 ?_InternalFinalizer@window@@QAGXQAV1@@Z 
--- From 'Obj\gui.obj'
01:00089D28 ?_initObject@frameDecoration@@QAGXQAV1@H@Z 
01:00089D48 ?@create_object@frameDecoration_class@@SGQAVframeDecoration@@@XZ 
01:00089D64 ?_InternalFinalizer@frameDecoration@@QAGXQAV1@@Z 
--- From 'Obj\messageControl.obj'
01:00089D70 ?classInfo@messageForm_class@@SAXPAPB_W0@Z 
01:00089D8C ?new@messageForm_class@@SAXQAVmessageForm@@@QAVapplicationWindow@@@@Z 
01:00089F34 ?_display@messageForm_class@@SAXQAVapplicationWindow@@@PAPAVmessageForm@@@@Z 
01:00089F5C ?show@messageForm_class@@SAXQAVwindow@@@@Z 
01:00089F88 ?focusListener@messageForm_class@@SAXQAVmessageForm@@@QAVwindow@@@@Z 
01:00089FD8 ?resizeListener@messageForm_class@@SAXQAVmessageForm@@@QAVwindow@@@@Z 
01:0008A05C ?onParentResize@messageForm_class@@SAXQAVmessageForm@@@QAVwindow@@@@Z 
01:0008A138 ?onUserParentResize@messageForm_class@@SAXQAVmessageForm@@@QAVwindow@@@HH@Z 
01:0008A1A0 ?resizeMessageForm@messageForm_class@@SAXQAVmessageForm@@@HH@Z 
01:0008A22C ?_calculateY@messageForm_class@@SAXPAUverticalSize_struct@1@HPAH@Z 
01:0008A2FC ?setVerticalSize@messageForm_class@@SAXQAVmessageForm@@@PAUverticalSize_struct@1@@Z 
01:0008A398 ?_getVerticalSize@messageForm_class@@SAXQAVmessageForm@@@PAPAUverticalSize_struct@1@@Z 
01:0008A3AC ?onDestroy@messageForm_class@@SAXQAVmessageForm@@@QAVwindow@@@@Z 
01:0008A3FC ?_getOutputStream@messageForm_class@@SAXQAVmessageForm@@@PAPAVoutputStream@@@@Z 
01:0008A41C ?badRatio_exception@messageForm_class@@SAXPAXPAPB_W1@Z 
01:0008A444 ?_getMessageControl@messageForm_class@@SAXQAVmessageForm@@@PAPAVmessageControl@@@@Z 
01:0008A458 ?_new@messageForm_class@@SAXQAVapplicationWindow@@@PAPAVmessageForm@@@@Z 
01:0008A484 ?_object_facts_initializer@messageForm_class@@SGXQAVmessageForm@@@@Z 
01:0008A4C4 ?classInfo@messageControl_class@@SAXPAPB_W0@Z  (Idle)
01:0008A4E0 ?new@messageControl_class@@SAXQAVmessageControl@@@@Z 
01:0008A6B8 ?new@messageControl_class@@SAXQAVmessageControl@@@QAVcontainerWindow@@@@Z 
01:0008A6D4 ?getBuffer@messageControl_class@@SGXQAVbufferSupport@@@PAPAXPAH@Z 
01:0008A718 ?getBufferLocked@messageControl_class@@SGXQAVbufferSupport@@@PAPAXPAH@Z 
01:0008A734 ?show@messageControl_class@@SAXQAVwindow@@@@Z 
01:0008A940 ?setLines@messageControl_class@@SAXQAVmessageControl@@@I@Z 
01:0008A954 ?clear@messageControl_class@@SAXQAVmessageControl@@@@Z 
01:0008A994 ?setReadonly@messageControl_class@@SAXQAVmessageControl@@@PAUboolean_struct@_builtIn_class@@@Z 
01:0008AA0C ?bufferFullCallBack@messageControl_class@@SAXQAVmessageControl@@@PAXHPAPAXPAH@Z 
01:0008AB28 ?writeZero@messageControl_class@@SAXQAVmessageControl@@@PAXH@Z 
01:0008AB6C ?_copy_possible@messageControl_class@@SAXQAVmessageControl@@@PAH@Z 
01:0008ABC4 ?_onControlNative@messageControl_class@@SAXQAVmessageControl@@@QAVwindow@@@IIHPAPAUnativeResponse_struct@window_class@@@Z 
01:0008AD2C ?_onContextMenu@messageControl_class@@SAXQAVmessageControl@@@QAVwindow@@@PAUcontextMenuInput_struct@window_class@@PAPAUcontextMenuResponse_struct@5@@Z 
01:0008AE0C ?onMenu@messageControl_class@@SAXQAVmessageControl@@@QAVwindow@@@I@Z 
01:0008AF0C ?_getOutputStream@messageControl_class@@SAXQAVmessageControl@@@PAPAVoutputStream@@@@Z 
01:0008AF20 ?_new@messageControl_class@@SAXQAVcontainerWindow@@@PAPAVmessageControl@@@@Z 
01:0008AF4C ?_new@messageControl_class@@SAXPAPAVmessageControl@@@@Z  (Idle)
01:0008AF74 ?_object_facts_initializer@messageControl_class@@SGXQAVmessageControl@@@@Z 
01:0008D48C ?_initObject@messageForm@@QAGXQAV1@H@Z 
01:0008D4D0 ?@create_object@messageForm_class@@SGQAVmessageForm@@@XZ 
01:0008D4EC ?_InternalFinalizer@messageForm@@QAGXQAV1@@Z 
01:0008E888 ?_initObject@messageControl@@QAGXQAV1@H@Z 
01:0008E8E0 ?@create_object@messageControl_class@@SGQAVmessageControl@@@XZ 
01:0008E8FC ?_InternalFinalizer@messageControl@@QAGXQAV1@@Z 
--- From 'Obj\controlSupport.obj'
01:0008E920 ?classInfo@nullControlSupport_class@@SAXPAPB_W0@Z  (Idle)
01:0008E93C ?new@nullControlSupport_class@@SAXQAVnullControlSupport@@@QAVcontainerWindow@@@@Z 
01:0008E958 ?new@nullControlSupport_class@@SAXQAVnullControlSupport@@@@Z 
--- From 'Obj\controls.obj'
01:0008E9A8 ?_new@nullControlSupport_class@@SAXQAVcontainerWindow@@@PAPAVnullControlSupport@@@@Z 
--- From 'Obj\controlSupport.obj'
01:0008E9D4 ?_new@nullControlSupport_class@@SAXPAPAVnullControlSupport@@@@Z  (Idle)
01:0008E9FC ?classInfo@controlSupport_class@@SAXPAPB_W0@Z 
--- From 'Obj\controls.obj'
01:0008EA18 ?new@controlSupport_class@@SAXQAVcontrolSupport@@@QAVcontrol@@@@Z 
--- From 'Obj\controlSupport.obj'
01:0008EB30 ?newId@controlSupport_class@@SAXQAVcontrolSupport@@@QAVcontrol@@@H@Z 
01:0008EB54 ?_getDefaultControlExtension@controlSupport_class@@SAXQAVcontrolSupport@@@PAPAVcontrolExtension@@@@Z 
01:0008EB68 ?_getControlExtension@controlSupport_class@@SAXQAVcontrolSupport@@@PAPAVcontrolExtension@@@@Z 
01:0008EB7C ?setControlExtension@controlSupport_class@@SAXQAVcontrolSupport@@@QAVcontrolExtension@@@@Z 
01:0008EBBC ?dispatchEvent@controlSupport_class@@SAXQAVcontrolSupport@@@PAUcontrolInfo_struct@vpiDomains_class@@@Z 
01:0008EBC4 ?_getContainer@controlSupport_class@@SAXQAVcontrolSupport@@@PAPAVcontainerWindow@@@@Z 
01:0008EC14 ?_tryGetContainer@controlSupport_class@@SAXQAVcontrolSupport@@@PAPAVcontainerWindow@@@@Z 
01:0008EC3C ?setContainer@controlSupport_class@@SAXQAVcontrolSupport@@@QAVcontainerWindow@@@@Z 
01:0008ED4C ?resetContainer@controlSupport_class@@SAXQAVcontrolSupport@@@@Z 
01:0008EE90 ?_getCtrlId@controlSupport_class@@SAXQAVcontrolSupport@@@PAH@Z 
01:0008EEA4 ?setCtrlId@controlSupport_class@@SAXQAVcontrolSupport@@@H@Z 
01:0008EEEC ?setRect@controlSupport_class@@SAXQAVcontrolSupport@@@PAUrct_struct@vpiDomains_class@@@Z 
01:0008EF64 ?_getRect@controlSupport_class@@SAXQAVcontrolSupport@@@PAPAUrct_struct@vpiDomains_class@@@Z 
01:0008EF78 ?setPosition@controlSupport_class@@SAXQAVcontrolSupport@@@PAUpnt_struct@vpiDomains_class@@@Z 
01:0008F000 ?setPosition@controlSupport_class@@SAXQAVcontrolSupport@@@HH@Z 
01:0008F034 ?_getPosition@controlSupport_class@@SAXQAVcontrolSupport@@@PAPAUpnt_struct@vpiDomains_class@@@Z 
01:0008F080 ?getPosition@controlSupport_class@@SAXQAVcontrolSupport@@@PAHPAH@Z 
01:0008F0B0 ?setSize@controlSupport_class@@SAXQAVcontrolSupport@@@HH@Z 
01:0008F134 ?getSize@controlSupport_class@@SAXQAVcontrolSupport@@@PAHPAH@Z 
01:0008F184 ?setWidth@controlSupport_class@@SAXQAVcontrolSupport@@@H@Z 
01:0008F1C0 ?_getWidth@controlSupport_class@@SAXQAVcontrolSupport@@@PAH@Z 
01:0008F1E0 ?setHeight@controlSupport_class@@SAXQAVcontrolSupport@@@H@Z 
01:0008F21C ?getHeight@controlSupport_class@@SAXQAVcontrolSupport@@@PAH@Z 
01:0008F23C ?onControlSize@controlSupport_class@@SAXQAVcontrolSupport@@@QAVwindow@@@@Z 
01:0008F248 ?onControlMove@controlSupport_class@@SAXQAVcontrolSupport@@@QAVwindow@@@@Z 
01:0008F254 ?onDestroy@controlSupport_class@@SAXQAVcontrolSupport@@@QAVwindow@@@@Z 
01:0008F270 ?updateControlUnitRect@controlSupport_class@@SAXQAVcontrolSupport@@@@Z 
01:0008F314 ?updateLayout@controlSupport_class@@SAXQAVcontrolSupport@@@@Z 
01:0008F3D8 ?setTabStop@controlSupport_class@@SAXQAVcontrolSupport@@@@Z 
01:0008F400 ?setTabStop@controlSupport_class@@SAXQAVcontrolSupport@@@PAUboolean_struct@_builtIn_class@@@Z 
01:0008F4B0 ?_getTabStop@controlSupport_class@@SAXQAVcontrolSupport@@@PAPAUboolean_struct@_builtIn_class@@@Z 
01:0008F518 ?addValidateResponder@controlSupport_class@@SAXQAVcontrolSupport@@@X@Z 
01:0008F538 ?removeValidateResponder@controlSupport_class@@SAXQAVcontrolSupport@@@X@Z 
01:0008F604 ?_validate@controlSupport_class@@SAXQAVcontrolSupport@@@PAPAUvalidateResult_struct@control_class@@@Z 
01:0008F6A4 ?tryValidateWithErrorDialog@controlSupport_class@@SAXQAVcontrolSupport@@@@Z 
01:0008F724 ?setLabel@controlSupport_class@@SAXQAVcontrolSupport@@@PB_W@Z 
01:0008F75C ?_getLabel@controlSupport_class@@SAXQAVcontrolSupport@@@PAPB_W@Z 
01:0008F7B0 ?setAnchors@controlSupport_class@@SAXQAVcontrolSupport@@@PAU?$__list_struct@UanchorEdge@@@@@Z 
01:0008F8A0 ?checkSizeListenerSet@controlSupport_class@@SAXQAVcontrolSupport@@@@Z 
01:0008F98C ?removeSizeListener@controlSupport_class@@SAXQAVcontrolSupport@@@@Z 
01:0008FA10 ?resetAnchorSize@controlSupport_class@@SAXQAVcontrolSupport@@@@Z 
01:0008FA6C ?onAnchoredControlShow@controlSupport_class@@SAXQAVcontrolSupport@@@QAVwindow@@@H@Z 
01:0008FA78 ?_determineUnitSize@controlSupport_class@@SAXQAVcontrolSupport@@@QAVdialog@@@QAVcontainerWindow@@@PAPAUpnt_struct@vpiDomains_class@@@Z 
01:0008FB20 ?onParentContainerSize@controlSupport_class@@SAXQAVcontrolSupport@@@QAVwindow@@@@Z 
01:0008FD10 ?anchorToContainer@controlSupport_class@@SAXQAVcontrolSupport@@@PAUboolean_struct@_builtIn_class@@1PAUanchorDimension_struct@1@HHHPAHPAH@Z 
01:0008FE70 ?_getPreviousReminder@controlSupport_class@@SAXQAVcontrolSupport@@@PAUanchorDimension_struct@1@PAH@Z 
01:0008FE98 ?fixPreviousReminder@controlSupport_class@@SAXQAVcontrolSupport@@@PAUanchorDimension_struct@1@H@Z 
01:0008FEC0 ?exploreAnchorList@controlSupport_class@@SAXPAU?$__list_struct@UanchorEdge@@@@PAUboolean_struct@_builtIn_class@@111PAPAU34@555@Z 
01:0008FF78 ?_getAnchors@controlSupport_class@@SAXQAVcontrolSupport@@@PAPAU?$__list_struct@UanchorEdge@@@@@Z 
01:0008FF8C ?_new@controlSupport_class@@SAXQAVcontrol@@@PAPAVcontrolSupport@@@@Z  (Idle)
01:0008FFB8 ?_newId@controlSupport_class@@SAXQAVcontrol@@@HPAPAVcontrolSupport@@@@Z  (Idle)
01:0008FFE8 ?_class_facts_initializer@controlSupport_class@@SGXXZ 
01:00090000 ?_object_facts_initializer@controlSupport_class@@SGXQAVcontrolSupport@@@@Z 
01:00090060 ?handleShow@controlSupport_class@@SAXQAVwindowExtension@@@QAVwindow@@@H@Z 
01:0009007C ?handleDestroy@controlSupport_class@@SAXQAVwindowExtension@@@QAVwindow@@@@Z 
01:00090098 ?handleSize@controlSupport_class@@SAXQAVwindowExtension@@@QAVwindow@@@HH@Z 
01:000900B4 ?handleMove@controlSupport_class@@SAXQAVwindowExtension@@@QAVwindow@@@HH@Z 
01:000900D0 ?handleFocus@controlSupport_class@@SAXQAVwindowExtension@@@QAVwindow@@@@Z 
01:000900EC ?handleLoseFocus@controlSupport_class@@SAXQAVwindowExtension@@@QAVwindow@@@@Z 
01:00090108 ?handleMenuCommand@controlSupport_class@@SAXQAVwindowExtension@@@QAVwindow@@@I@Z 
01:00090124 ?handleTimer@controlSupport_class@@SAXQAVwindowExtension@@@QAVwindow@@@PBUtimerId@vpiDomains@@@Z 
01:00090140 ?_handleNative@controlSupport_class@@SAXQAVwindowExtension@@@QAVwindow@@@IIHPAPAUnativeResponse_struct@window_class@@@Z 
01:0009015C ?handleUser@controlSupport_class@@SAXQAVwindowExtension@@@QAVwindow@@@HH@Z 
01:00090178 ?handleStateChange@controlSupport_class@@SAXQAVwindowExtension@@@QAVwindow@@@PAUstateInfo_struct@vpiDomains_class@@@Z 
01:00090194 ?classInfo@standardControlSupport_class@@SAXPAPB_W0@Z  (Idle)
--- From 'Obj\controls.obj'
01:000901B0 ?new@standardControlSupport_class@@SAXQAVstandardControlSupport@@@H@Z 
--- From 'Obj\controlSupport.obj'
01:00090230 ?show@standardControlSupport_class@@SAXQAVwindow@@@@Z 
01:000903F8 ?_new@standardControlSupport_class@@SAXHPAPAVcontrol@@@@Z  (Idle)
01:00090424 ?classInfo@userControlSupport_class@@SAXPAPB_W0@Z 
01:00090440 ?new@userControlSupport_class@@SAXQAVuserControlSupport@@@@Z 
01:00090548 ?new@userControlSupport_class@@SAXQAVuserControlSupport@@@QAVcontainerWindow@@@@Z 
01:00090564 ?setDrawWindowExtension@userControlSupport_class@@SAXQAVdrawWindow@@@QAVdrawWindowExtension@@@@Z 
01:0009057C ?show@userControlSupport_class@@SAXQAVwindow@@@@Z 
01:00090794 ?onBackgroundGetFocus@userControlSupport_class@@SAXQAVuserControlSupport@@@QAVwindow@@@@Z 
01:000907B8 ?_getDrawWindow@userControlSupport_class@@SAXQAVuserControlSupport@@@PAPAVdrawWindow@@@@Z 
01:000907CC ?setContainer@userControlSupport_class@@SAXQAVcontrolSupport@@@QAVcontainerWindow@@@@Z 
01:00090870 ?addToParentContainer@userControlSupport_class@@SAXQAVuserControlSupport@@@QAVcontainerWindow@@@@Z 
01:000908AC ?_tryGetControl@userControlSupport_class@@SAXQAVcontainerWindow@@@PAPAVcontrol@@@@Z 
01:000908D0 ?_validate@userControlSupport_class@@SAXQAVcontrolSupport@@@PAPAUvalidateResult_struct@control_class@@@Z 
01:00090934 ?_onControlEraseBackground@userControlSupport_class@@SAXQAVuserControlSupport@@@QAVdrawWindow@@@QAVwindowGDI@@@PAPAUeraseBackgroundResponse_struct@drawWindow_class@@@Z 
01:00090948 ?onPaint@userControlSupport_class@@SAXQAVuserControlSupport@@@QAVdrawWindow@@@PAUrct_struct@vpiDomains_class@@QAVwindowGDI@@@@Z 
01:00090974 ?setHorizontalScroll@userControlSupport_class@@SAXQAVuserControlSupport@@@@Z 
01:0009099C ?setHorizontalScroll@userControlSupport_class@@SAXQAVuserControlSupport@@@PAUboolean_struct@_builtIn_class@@@Z 
01:000909F8 ?_getHorizontalScroll@userControlSupport_class@@SAXQAVuserControlSupport@@@PAPAUboolean_struct@_builtIn_class@@@Z 
01:00090A0C ?setVerticalScroll@userControlSupport_class@@SAXQAVuserControlSupport@@@@Z 
01:00090A34 ?setVerticalScroll@userControlSupport_class@@SAXQAVuserControlSupport@@@PAUboolean_struct@_builtIn_class@@@Z 
01:00090A90 ?_getVerticalScroll@userControlSupport_class@@SAXQAVuserControlSupport@@@PAPAUboolean_struct@_builtIn_class@@@Z 
01:00090AA4 ?setTransparent@userControlSupport_class@@SAXQAVuserControlSupport@@@@Z 
01:00090ACC ?setTransparent@userControlSupport_class@@SAXQAVuserControlSupport@@@PAUboolean_struct@_builtIn_class@@@Z 
01:00090B28 ?_getTransparent@userControlSupport_class@@SAXQAVuserControlSupport@@@PAPAUboolean_struct@_builtIn_class@@@Z 
01:00090B3C ?setBorder@userControlSupport_class@@SAXQAVuserControlSupport@@@@Z 
01:00090B64 ?setBorder@userControlSupport_class@@SAXQAVuserControlSupport@@@PAUboolean_struct@_builtIn_class@@@Z 
01:00090BC0 ?_getBorder@userControlSupport_class@@SAXQAVuserControlSupport@@@PAPAUboolean_struct@_builtIn_class@@@Z 
01:00090BD4 ?_new@userControlSupport_class@@SAXQAVcontainerWindow@@@PAPAVuserControlSupport@@@@Z  (Idle)
01:00090C00 ?_new@userControlSupport_class@@SAXPAPAVuserControlSupport@@@@Z  (Idle)
01:00090C28 ?_object_facts_initializer@userControlSupport_class@@SGXQAVuserControlSupport@@@@Z 
01:00090C6C ?handlePaint@userControlSupport_class@@SAXQAVdrawWindowExtension@@@QAVdrawWindow@@@PAUrct_struct@vpiDomains_class@@QAVwindowGDI@@@@Z 
01:00090C88 ?_handleEraseBackground@userControlSupport_class@@SAXQAVdrawWindowExtension@@@QAVdrawWindow@@@PAPAUeraseBackgroundResponse_struct@drawWindow_class@@@Z 
01:00090CA4 ?handleMouseDown@userControlSupport_class@@SAXQAVdrawWindowExtension@@@QAVdrawWindow@@@PAUpnt_struct@vpiDomains_class@@IH@Z 
01:00090CC0 ?handleMouseUp@userControlSupport_class@@SAXQAVdrawWindowExtension@@@QAVdrawWindow@@@PAUpnt_struct@vpiDomains_class@@IH@Z 
01:00090CDC ?handleMouseMove@userControlSupport_class@@SAXQAVdrawWindowExtension@@@QAVdrawWindow@@@PAUpnt_struct@vpiDomains_class@@IPAU?$__list_struct@Uinteger@@@@@Z 
01:00090CF8 ?handleMouseDbl@userControlSupport_class@@SAXQAVdrawWindowExtension@@@QAVdrawWindow@@@PAUpnt_struct@vpiDomains_class@@IH@Z 
01:00090D14 ?_handleChar@userControlSupport_class@@SAXQAVdrawWindowExtension@@@QAVdrawWindow@@@HIPAPAUcharResponse_struct@drawWindow_class@@@Z 
01:00090D30 ?_handleKeyDown@userControlSupport_class@@SAXQAVdrawWindowExtension@@@QAVdrawWindow@@@HIPAPAUkeyDownResponse_struct@drawWindow_class@@@Z 
01:00090D4C ?_handleKeyUp@userControlSupport_class@@SAXQAVdrawWindowExtension@@@QAVdrawWindow@@@HIPAPAUkeyUpResponse_struct@drawWindow_class@@@Z 
01:00090D68 ?handleVScroll@userControlSupport_class@@SAXQAVdrawWindowExtension@@@QAVdrawWindow@@@HH@Z 
01:00090D84 ?handleHScroll@userControlSupport_class@@SAXQAVdrawWindowExtension@@@QAVdrawWindow@@@HH@Z 
01:00090DA0 ?handleShow@userControlSupport_class@@SAXQAVwindowExtension@@@QAVwindow@@@H@Z 
01:00090DBC ?handleDestroy@userControlSupport_class@@SAXQAVwindowExtension@@@QAVwindow@@@@Z 
01:00090DD8 ?handleSize@userControlSupport_class@@SAXQAVwindowExtension@@@QAVwindow@@@HH@Z 
01:00090DF4 ?handleMove@userControlSupport_class@@SAXQAVwindowExtension@@@QAVwindow@@@HH@Z 
01:00090E10 ?handleFocus@userControlSupport_class@@SAXQAVwindowExtension@@@QAVwindow@@@@Z 
01:00090E2C ?handleLoseFocus@userControlSupport_class@@SAXQAVwindowExtension@@@QAVwindow@@@@Z 
01:00090E48 ?handleMenuCommand@userControlSupport_class@@SAXQAVwindowExtension@@@QAVwindow@@@I@Z 
01:00090E64 ?handleTimer@userControlSupport_class@@SAXQAVwindowExtension@@@QAVwindow@@@PBUtimerId@vpiDomains@@@Z 
01:00090E80 ?_handleNative@userControlSupport_class@@SAXQAVwindowExtension@@@QAVwindow@@@IIHPAPAUnativeResponse_struct@window_class@@@Z 
01:00090E9C ?handleUser@userControlSupport_class@@SAXQAVwindowExtension@@@QAVwindow@@@HH@Z 
01:00090EB8 ?handleStateChange@userControlSupport_class@@SAXQAVwindowExtension@@@QAVwindow@@@PAUstateInfo_struct@vpiDomains_class@@@Z 
01:00090ED4 ?classInfo@drawControlSupport_class@@SAXPAPB_W0@Z 
01:00090EF0 ?new@drawControlSupport_class@@SAXQAVdrawControlSupport@@@@Z 
01:00091024 ?new@drawControlSupport_class@@SAXQAVdrawControlSupport@@@QAVcontainerWindow@@@@Z 
01:00091040 ?_getDefaultUserControlExtension@drawControlSupport_class@@SAXQAVdrawControlSupport@@@PAPAVdrawControlExtension@@@@Z 
01:00091054 ?_getUserControlExtension@drawControlSupport_class@@SAXQAVdrawControlSupport@@@PAPAVdrawControlExtension@@@@Z 
01:00091068 ?setUserControlExtension@drawControlSupport_class@@SAXQAVdrawControlSupport@@@QAVdrawControlExtension@@@@Z 
01:00091094 ?setDrawWindowExtension@drawControlSupport_class@@SAXQAVdrawWindow@@@QAVdrawWindowExtension@@@@Z 
01:000910AC ?show@drawControlSupport_class@@SAXQAVwindow@@@@Z 
01:000911A0 ?setContainer@drawControlSupport_class@@SAXQAVcontrolSupport@@@QAVcontainerWindow@@@@Z 
01:00091244 ?addToParentContainer@drawControlSupport_class@@SAXQAVdrawControlSupport@@@QAVcontainerWindow@@@@Z 
01:00091280 ?redirectEditEvents@drawControlSupport_class@@SAXQAVdrawControlSupport@@@QAVcontrol@@@@Z 
01:000912CC ?redirectTextEvents@drawControlSupport_class@@SAXQAVdrawControlSupport@@@QAVcontrol@@@@Z 
01:00091318 ?_onControlEraseBackground@drawControlSupport_class@@SAXQAVdrawControlSupport@@@QAVdrawWindow@@@QAVwindowGDI@@@PAPAUeraseBackgroundResponse_struct@drawWindow_class@@@Z 
01:0009132C ?onPaint@drawControlSupport_class@@SAXQAVdrawControlSupport@@@QAVdrawWindow@@@PAUrct_struct@vpiDomains_class@@QAVwindowGDI@@@@Z 
01:00091358 ?_onControlNative@drawControlSupport_class@@SAXQAVdrawControlSupport@@@QAVwindow@@@IIHPAPAUnativeResponse_struct@window_class@@@Z 
01:000914CC ?setHorizontalScroll@drawControlSupport_class@@SAXQAVdrawControlSupport@@@@Z 
01:000914F4 ?setHorizontalScroll@drawControlSupport_class@@SAXQAVdrawControlSupport@@@PAUboolean_struct@_builtIn_class@@@Z 
01:00091560 ?_getHorizontalScroll@drawControlSupport_class@@SAXQAVdrawControlSupport@@@PAPAUboolean_struct@_builtIn_class@@@Z 
01:00091574 ?setVerticalScroll@drawControlSupport_class@@SAXQAVdrawControlSupport@@@@Z 
01:0009159C ?setVerticalScroll@drawControlSupport_class@@SAXQAVdrawControlSupport@@@PAUboolean_struct@_builtIn_class@@@Z 
01:00091608 ?_getVerticalScroll@drawControlSupport_class@@SAXQAVdrawControlSupport@@@PAPAUboolean_struct@_builtIn_class@@@Z 
01:0009161C ?setTransparent@drawControlSupport_class@@SAXQAVdrawControlSupport@@@@Z 
01:00091644 ?setTransparent@drawControlSupport_class@@SAXQAVdrawControlSupport@@@PAUboolean_struct@_builtIn_class@@@Z 
01:000916B0 ?_getTransparent@drawControlSupport_class@@SAXQAVdrawControlSupport@@@PAPAUboolean_struct@_builtIn_class@@@Z 
01:000916C4 ?setBorder@drawControlSupport_class@@SAXQAVdrawControlSupport@@@@Z 
01:000916EC ?setBorder@drawControlSupport_class@@SAXQAVdrawControlSupport@@@PAUboolean_struct@_builtIn_class@@@Z 
01:00091758 ?_getBorder@drawControlSupport_class@@SAXQAVdrawControlSupport@@@PAPAUboolean_struct@_builtIn_class@@@Z 
01:0009176C ?_new@drawControlSupport_class@@SAXQAVcontainerWindow@@@PAPAVdrawControlSupport@@@@Z  (Idle)
01:00091798 ?_new@drawControlSupport_class@@SAXPAPAVdrawControlSupport@@@@Z  (Idle)
01:000917C0 ?_object_facts_initializer@drawControlSupport_class@@SGXQAVdrawControlSupport@@@@Z 
01:00091804 ?handlePaint@drawControlSupport_class@@SAXQAVdrawWindowExtension@@@QAVdrawWindow@@@PAUrct_struct@vpiDomains_class@@QAVwindowGDI@@@@Z 
01:00091820 ?_handleEraseBackground@drawControlSupport_class@@SAXQAVdrawWindowExtension@@@QAVdrawWindow@@@PAPAUeraseBackgroundResponse_struct@drawWindow_class@@@Z 
01:0009183C ?handleMouseDown@drawControlSupport_class@@SAXQAVdrawWindowExtension@@@QAVdrawWindow@@@PAUpnt_struct@vpiDomains_class@@IH@Z 
01:00091858 ?handleMouseUp@drawControlSupport_class@@SAXQAVdrawWindowExtension@@@QAVdrawWindow@@@PAUpnt_struct@vpiDomains_class@@IH@Z 
01:00091874 ?handleMouseMove@drawControlSupport_class@@SAXQAVdrawWindowExtension@@@QAVdrawWindow@@@PAUpnt_struct@vpiDomains_class@@IPAU?$__list_struct@Uinteger@@@@@Z 
01:00091890 ?handleMouseDbl@drawControlSupport_class@@SAXQAVdrawWindowExtension@@@QAVdrawWindow@@@PAUpnt_struct@vpiDomains_class@@IH@Z 
01:000918AC ?_handleChar@drawControlSupport_class@@SAXQAVdrawWindowExtension@@@QAVdrawWindow@@@HIPAPAUcharResponse_struct@drawWindow_class@@@Z 
01:000918C8 ?_handleKeyDown@drawControlSupport_class@@SAXQAVdrawWindowExtension@@@QAVdrawWindow@@@HIPAPAUkeyDownResponse_struct@drawWindow_class@@@Z 
01:000918E4 ?_handleKeyUp@drawControlSupport_class@@SAXQAVdrawWindowExtension@@@QAVdrawWindow@@@HIPAPAUkeyUpResponse_struct@drawWindow_class@@@Z 
01:00091900 ?handleVScroll@drawControlSupport_class@@SAXQAVdrawWindowExtension@@@QAVdrawWindow@@@HH@Z 
01:0009191C ?handleHScroll@drawControlSupport_class@@SAXQAVdrawWindowExtension@@@QAVdrawWindow@@@HH@Z 
01:00091938 ?handleShow@drawControlSupport_class@@SAXQAVwindowExtension@@@QAVwindow@@@H@Z 
01:00091954 ?handleDestroy@drawControlSupport_class@@SAXQAVwindowExtension@@@QAVwindow@@@@Z 
01:00091970 ?handleSize@drawControlSupport_class@@SAXQAVwindowExtension@@@QAVwindow@@@HH@Z 
01:0009198C ?handleMove@drawControlSupport_class@@SAXQAVwindowExtension@@@QAVwindow@@@HH@Z 
01:000919A8 ?handleFocus@drawControlSupport_class@@SAXQAVwindowExtension@@@QAVwindow@@@@Z 
01:000919C4 ?handleLoseFocus@drawControlSupport_class@@SAXQAVwindowExtension@@@QAVwindow@@@@Z 
01:000919E0 ?handleMenuCommand@drawControlSupport_class@@SAXQAVwindowExtension@@@QAVwindow@@@I@Z 
01:000919FC ?handleTimer@drawControlSupport_class@@SAXQAVwindowExtension@@@QAVwindow@@@PBUtimerId@vpiDomains@@@Z 
01:00091A18 ?_handleNative@drawControlSupport_class@@SAXQAVwindowExtension@@@QAVwindow@@@IIHPAPAUnativeResponse_struct@window_class@@@Z 
01:00091A34 ?handleUser@drawControlSupport_class@@SAXQAVwindowExtension@@@QAVwindow@@@HH@Z 
01:00091A50 ?handleStateChange@drawControlSupport_class@@SAXQAVwindowExtension@@@QAVwindow@@@PAUstateInfo_struct@vpiDomains_class@@@Z 
01:00093454 ?_initObject@nullControlSupport@@QAGXQAV1@H@Z 
01:00093478 ?@create_object@nullControlSupport_class@@SGQAVnullControlSupport@@@XZ 
01:00093494 ?_InternalFinalizer@nullControlSupport@@QAGXQAV1@@Z 
--- From 'Obj\controls.obj'
01:000936D4 ?_initObject@controlSupport@@QAGXQAV1@H@Z 
--- From 'Obj\controlSupport.obj'
01:00093704 ?@create_object@controlSupport_class@@SGQAVcontrolSupport@@@XZ 
--- From 'Obj\controls.obj'
01:00093720 ?_InternalFinalizer@controlSupport@@QAGXQAV1@@Z 
01:00094A40 ?_initObject@standardControlSupport@@QAGXQAV1@H@Z 
--- From 'Obj\controlSupport.obj'
01:00094A88 ?@create_object@standardControlSupport_class@@SGQAVstandardControlSupport@@@XZ 
--- From 'Obj\controls.obj'
01:00094AA4 ?_InternalFinalizer@standardControlSupport@@QAGXQAV1@@Z 
--- From 'Obj\controlSupport.obj'
01:00097B48 ?_initObject@userControlSupport@@QAGXQAV1@H@Z 
01:00097BA4 ?@create_object@userControlSupport_class@@SGQAVuserControlSupport@@@XZ 
01:00097BC0 ?_InternalFinalizer@userControlSupport@@QAGXQAV1@@Z 
01:0009ACDC ?_initObject@drawControlSupport@@QAGXQAV1@H@Z 
01:0009AD34 ?@create_object@drawControlSupport_class@@SGQAVdrawControlSupport@@@XZ 
01:0009AD50 ?_InternalFinalizer@drawControlSupport@@QAGXQAV1@@Z 
--- From 'Obj\controls.obj'
01:0009AD70 ?classInfo@timerControl_class@@SAXPAPB_W0@Z 
01:0009AD8C ?new@timerControl_class@@SAXQAVtimerControl@@@@Z 
01:0009ADD0 ?new@timerControl_class@@SAXQAVtimerControl@@@QAVcontainerWindow@@@@Z 
01:0009ADEC ?show@timerControl_class@@SAXQAVwindow@@@@Z 
01:0009AE48 ?initialize@timerControl_class@@SAXQAVwindow@@@@Z 
01:0009AE6C ?_getVpiWindow@timerControl_class@@SAXQAVwindow@@@AAUwindowHandle@vpiDomains@@@Z 
01:0009AE88 ?start@timerControl_class@@SAXQAVtimerControl@@@@Z 
01:0009AF64 ?stop@timerControl_class@@SAXQAVtimerControl@@@@Z 
01:0009AFE4 ?isRunning@timerControl_class@@SAXQAVtimerControl@@@@Z 
01:0009B004 ?setTickDuration@timerControl_class@@SAXQAVtimerControl@@@H@Z 
01:0009B050 ?_getTickDuration@timerControl_class@@SAXQAVtimerControl@@@PAH@Z 
01:0009B064 ?onTickTimer@timerControl_class@@SAXQAVtimerControl@@@QAVwindow@@@PBUtimerId@vpiDomains@@@Z 
01:0009B108 ?addTickListener@timerControl_class@@SAXQAVtimerControl@@@X@Z 
01:0009B128 ?removeTickListener@timerControl_class@@SAXQAVtimerControl@@@X@Z 
01:0009B1F4 ?_new@timerControl_class@@SAXPAPAVtimerControl@@@@Z  (Idle)
01:0009B21C ?_new@timerControl_class@@SAXQAVcontainerWindow@@@PAPAVtimerControl@@@@Z  (Idle)
01:0009B248 ?_object_facts_initializer@timerControl_class@@SGXQAVtimerControl@@@@Z 
01:0009B270 ?classInfo@button_class@@SAXPAPB_W0@Z 
01:0009B28C ?new@button_class@@SAXQAVbutton@@@QAVcontainerWindow@@@@Z 
01:0009B2AC ?new@button_class@@SAXQAVbutton@@@@Z 
01:0009B2F4 ?newOk@button_class@@SAXQAVbutton@@@QAVcontainerWindow@@@@Z 
01:0009B34C ?newCancel@button_class@@SAXQAVbutton@@@QAVcontainerWindow@@@@Z 
01:0009B3E0 ?show@button_class@@SAXQAVwindow@@@@Z 
01:0009B4B0 ?onCancelButtonDestroy@button_class@@SAXQAVbutton@@@QAVwindow@@@@Z 
01:0009B560 ?_getClickResponder@button_class@@SAXQAVbutton@@@PAX@Z 
01:0009B58C ?setClickResponder@button_class@@SAXQAVbutton@@@X@Z 
01:0009B5A0 ?resetClickResponder@button_class@@SAXQAVbutton@@@@Z 
01:0009B5D0 ?_defaultClickResponder@button_class@@SAXQAVbutton@@@0PAPAUactionResponse_struct@1@@Z 
01:0009B5E4 ?dispatchClick@button_class@@SAXQAVbutton@@@@Z 
01:0009B6AC ?invokeDefaultAction@button_class@@SAXQAVbutton@@@@Z 
01:0009B76C ?tryValidateParentContainer@button_class@@SAXQAVbutton@@@@Z 
01:0009B7F0 ?click@button_class@@SAXQAVbutton@@@@Z 
01:0009B7FC ?dispatchEvent@button_class@@SAXQAVcontrol@@@PAUcontrolInfo_struct@vpiDomains_class@@@Z 
01:0009B81C ?setValidateOnClick@button_class@@SAXQAVbutton@@@@Z 
01:0009B844 ?setValidateOnClick@button_class@@SAXQAVbutton@@@PAUboolean_struct@_builtIn_class@@@Z 
01:0009B858 ?_getValidateOnClick@button_class@@SAXQAVbutton@@@PAPAUboolean_struct@_builtIn_class@@@Z 
01:0009B86C ?_new@button_class@@SAXQAVcontainerWindow@@@PAPAVbutton@@@@Z 
01:0009B898 ?_new@button_class@@SAXPAPAVbutton@@@@Z  (Idle)
01:0009B8C0 ?_newOk@button_class@@SAXQAVcontainerWindow@@@PAPAVbutton@@@@Z 
01:0009B8EC ?_newCancel@button_class@@SAXQAVcontainerWindow@@@PAPAVbutton@@@@Z 
01:0009B918 ?_object_facts_initializer@button_class@@SGXQAVbutton@@@@Z 
01:0009B95C ?classInfo@realControl_class@@SAXPAPB_W0@Z 
01:0009B978 ?new@realControl_class@@SAXQAVrealControl@@@@Z 
01:0009B9E0 ?new@realControl_class@@SAXQAVrealControl@@@QAVcontainerWindow@@@@Z 
01:0009BA00 ?_onRealValidate@realControl_class@@SAXQAVrealControl@@@QAVcontrol@@@PAPAUvalidateResult_struct@control_class@@@Z 
01:0009BAAC ?setReal@realControl_class@@SAXQAVrealControl@@@PAN@Z 
01:0009BAD4 ?_getReal@realControl_class@@SAXQAVrealControl@@@PAPAN@Z 
01:0009BB0C ?tryGetReal@realControl_class@@SAXQAVrealControl@@@PAPAN@Z 
01:0009BB58 ?setMaximum@realControl_class@@SAXQAVrealControl@@@PAN@Z 
01:0009BBA4 ?_getMaximum@realControl_class@@SAXQAVrealControl@@@PAPAN@Z 
01:0009BBB8 ?setMinimum@realControl_class@@SAXQAVrealControl@@@PAN@Z 
01:0009BC04 ?_getMinimum@realControl_class@@SAXQAVrealControl@@@PAPAN@Z 
01:0009BC18 ?setMandatory@realControl_class@@SAXQAVrealControl@@@@Z 
01:0009BC40 ?setMandatory@realControl_class@@SAXQAVrealControl@@@PAUboolean_struct@_builtIn_class@@@Z 
01:0009BC54 ?_getMandatory@realControl_class@@SAXQAVrealControl@@@PAPAUboolean_struct@_builtIn_class@@@Z 
01:0009BC68 ?_checkContent@realControl_class@@SAXQAVrealControl@@@PB_WPAPAUvalue_struct@core_class@@@Z 
01:0009BD78 ?_whetherEmptyStringAvailable@realControl_class@@SAXQAVrealControl@@@PAUboolean_struct@_builtIn_class@@PAPAUvalue_struct@core_class@@@Z 
01:0009BE2C ?_checkMinMax@realControl_class@@SAXQAVrealControl@@@PANPAPAUvalue_struct@core_class@@@Z 
01:0009C0B4 ?setIllegalValueMessage@realControl_class@@SAXPB_W@Z  (Idle)
01:0009C0C4 ?setIllegalValueMandatoryMessage@realControl_class@@SAXPB_W@Z  (Idle)
01:0009C0D4 ?setIllegalValueMinimumMaximumMessage@realControl_class@@SAXPB_W@Z  (Idle)
01:0009C0E4 ?setIllegalValueMinimumMessage@realControl_class@@SAXPB_W@Z  (Idle)
01:0009C0F4 ?setIllegalValueMaximumMessage@realControl_class@@SAXPB_W@Z  (Idle)
01:0009C104 ?_new@realControl_class@@SAXQAVcontainerWindow@@@PAPAVrealControl@@@@Z  (Idle)
01:0009C130 ?_new@realControl_class@@SAXPAPAVrealControl@@@@Z  (Idle)
01:0009C158 ?_class_facts_initializer@realControl_class@@SGXXZ 
01:0009C198 ?_object_facts_initializer@realControl_class@@SGXQAVrealControl@@@@Z 
01:0009C1DC ?classInfo@integerControl_class@@SAXPAPB_W0@Z 
01:0009C1F8 ?new@integerControl_class@@SAXQAVintegerControl@@@@Z 
01:0009C260 ?new@integerControl_class@@SAXQAVintegerControl@@@QAVcontainerWindow@@@@Z 
01:0009C280 ?_onIntValidate@integerControl_class@@SAXQAVintegerControl@@@QAVcontrol@@@PAPAUvalidateResult_struct@control_class@@@Z 
01:0009C32C ?setInteger@integerControl_class@@SAXQAVintegerControl@@@H@Z 
01:0009C354 ?_getInteger@integerControl_class@@SAXQAVintegerControl@@@PAH@Z 
01:0009C38C ?tryGetInteger@integerControl_class@@SAXQAVintegerControl@@@PAH@Z 
01:0009C3D8 ?setMaximum@integerControl_class@@SAXQAVintegerControl@@@H@Z 
01:0009C428 ?_getMaximum@integerControl_class@@SAXQAVintegerControl@@@PAH@Z 
01:0009C43C ?setMinimum@integerControl_class@@SAXQAVintegerControl@@@H@Z 
01:0009C48C ?_getMinimum@integerControl_class@@SAXQAVintegerControl@@@PAH@Z 
01:0009C4A0 ?setMandatory@integerControl_class@@SAXQAVintegerControl@@@@Z 
01:0009C4C8 ?setMandatory@integerControl_class@@SAXQAVintegerControl@@@PAUboolean_struct@_builtIn_class@@@Z 
01:0009C4DC ?_getMandatory@integerControl_class@@SAXQAVintegerControl@@@PAPAUboolean_struct@_builtIn_class@@@Z 
01:0009C4F0 ?_checkContent@integerControl_class@@SAXQAVintegerControl@@@PB_WPAPAUvalue_struct@core_class@@@Z 
01:0009C600 ?_whetherEmptyStringAvailable@integerControl_class@@SAXQAVintegerControl@@@PAUboolean_struct@_builtIn_class@@PAPAUvalue_struct@core_class@@@Z 
01:0009C690 ?_checkMinMax@integerControl_class@@SAXQAVintegerControl@@@HPAPAUvalue_struct@core_class@@@Z 
01:0009C894 ?setIllegalValueMessage@integerControl_class@@SAXPB_W@Z  (Idle)
01:0009C8A4 ?setIllegalValueMandatoryMessage@integerControl_class@@SAXPB_W@Z  (Idle)
01:0009C8B4 ?setIllegalValueMinimumMaximumMessage@integerControl_class@@SAXPB_W@Z  (Idle)
01:0009C8C4 ?setIllegalValueMinimumMessage@integerControl_class@@SAXPB_W@Z  (Idle)
01:0009C8D4 ?setIllegalValueMaximumMessage@integerControl_class@@SAXPB_W@Z  (Idle)
01:0009C8E4 ?_new@integerControl_class@@SAXQAVcontainerWindow@@@PAPAVintegerControl@@@@Z  (Idle)
01:0009C910 ?_new@integerControl_class@@SAXPAPAVintegerControl@@@@Z  (Idle)
01:0009C938 ?_class_facts_initializer@integerControl_class@@SGXXZ 
01:0009C978 ?_object_facts_initializer@integerControl_class@@SGXQAVintegerControl@@@@Z 
01:0009C9AC ?classInfo@radioButtonGroup_class@@SAXPAPB_W0@Z 
01:0009C9C8 ?friendAddButton@radioButtonGroup_class@@SAXQAVradioButtonGroup@@@QAVradioButton@@@@Z 
01:0009CA1C ?friendDelButton@radioButtonGroup_class@@SAXQAVradioButtonGroup@@@QAVradioButton@@@@Z 
01:0009CAFC ?_getSelectedButton@radioButtonGroup_class@@SAXQAVradioButtonGroup@@@PAPAVradioButton@@@@Z 
01:0009CB8C ?setSelectedButton@radioButtonGroup_class@@SAXQAVradioButtonGroup@@@QAVradioButton@@@@Z 
01:0009CC28 ?getButton_nd@radioButtonGroup_class@@SAXQAVradioButtonGroup@@@PAPAVradioButton@@@@Z 
01:0009CC74 ?addSelectionChangedListener@radioButtonGroup_class@@SAXQAVradioButtonGroup@@@X@Z 
01:0009CC94 ?removeSelectionChangedListener@radioButtonGroup_class@@SAXQAVradioButtonGroup@@@X@Z 
01:0009CD60 ?addDelayedSelectionChangedListener@radioButtonGroup_class@@SAXQAVradioButtonGroup@@@HX@Z 
01:0009CE38 ?removeDelayedSelectionChangedListener@radioButtonGroup_class@@SAXQAVradioButtonGroup@@@X@Z 
01:0009CF08 ?supportDelayedSelectionChangedListener@radioButtonGroup_class@@SAXQAVradioButtonGroup@@@0QAVradioButton@@@@Z 
01:0009CFB0 ?_firstShownRadioButton@radioButtonGroup_class@@SAXQAVradioButtonGroup@@@PAPAVwindow@@@@Z 
01:0009CFF8 ?delayedSelectionChanged@radioButtonGroup_class@@SAXQAVradioButtonGroup@@@@Z 
01:0009D07C ?buttonStateChanged@radioButtonGroup_class@@SAXQAVradioButtonGroup@@@QAVradioButton@@@PAUstate_struct@radioButton_class@@2@Z 
01:0009D11C ?new@radioButtonGroup_class@@SAXQAVradioButtonGroup@@@@Z 
01:0009D124 ?_new@radioButtonGroup_class@@SAXPAPAVradioButtonGroup@@@@Z 
01:0009D14C ?classInfo@iconControl_class@@SAXPAPB_W0@Z  (Idle)
01:0009D168 ?new@iconControl_class@@SAXQAViconControl@@@@Z 
01:0009D1F8 ?new@iconControl_class@@SAXQAViconControl@@@QAVcontainerWindow@@@@Z 
01:0009D214 ?setIcon@iconControl_class@@SAXQAVwindow@@@I@Z 
01:0009D288 ?_getIcon@iconControl_class@@SAXQAViconControl@@@PAI@Z 
01:0009D2CC ?setHInstance@iconControl_class@@SAXQAViconControl@@@PBUhModule@@@Z 
01:0009D2E0 ?_getHInstance@iconControl_class@@SAXQAViconControl@@@AAUhModule@@@Z 
01:0009D2F4 ?show@iconControl_class@@SAXQAVwindow@@@@Z 
01:0009D420 ?create@iconControl_class@@SAXQAViconControl@@@PBUwindowHandle@vpiDomains@@@Z 
01:0009D528 ?onControlPaint@iconControl_class@@SAXQAViconControl@@@QAVdrawWindow@@@PAUrct_struct@vpiDomains_class@@QAVwindowGDI@@@@Z 
01:0009D554 ?setRect@iconControl_class@@SAXQAVcontrolSupport@@@PAUrct_struct@vpiDomains_class@@@Z 
01:0009D5B4 ?_new@iconControl_class@@SAXQAVcontainerWindow@@@PAPAViconControl@@@@Z 
01:0009D5E0 ?_new@iconControl_class@@SAXPAPAViconControl@@@@Z  (Idle)
01:0009D608 ?classInfo@groupBox_class@@SAXPAPB_W0@Z 
01:0009D624 ?new@groupBox_class@@SAXQAVgroupBox@@@QAVcontainerWindow@@@@Z 
01:0009D644 ?new@groupBox_class@@SAXQAVgroupBox@@@@Z 
01:0009D6B0 ?show@groupBox_class@@SAXQAVwindow@@@@Z 
01:0009D748 ?setClientRect@groupBox_class@@SAXQAVwindow@@@PAUrct_struct@vpiDomains_class@@@Z 
01:0009D840 ?setBorderStyle@groupBox_class@@SAXQAVgroupBox@@@PAUborderStyle_struct@1@@Z 
01:0009D880 ?_getBorderStyle@groupBox_class@@SAXQAVgroupBox@@@PAPAUborderStyle_struct@1@@Z 
01:0009D894 ?_onControlNative@groupBox_class@@SAXQAVgroupBox@@@QAVwindow@@@IIHPAPAUnativeResponse_struct@window_class@@@Z 
01:0009DB08 ?_inflateClientRect@groupBox_class@@SAXQAVgroupBox@@@PAUrct_struct@vpiDomains_class@@PAPAU34@@Z 
01:0009DBF8 ?borderStyle_offsets@groupBox_class@@SAXPAUborderStyle_struct@1@PAHPAHPAHPAHPAPB_W@Z 
01:0009DCB8 ?drawNCBackground@groupBox_class@@SAXQAVgroupBox@@@IPAUrct_struct@vpiDomains_class@@@Z 
01:0009DDC0 ?drawNCBorder@groupBox_class@@SAXQAVgroupBox@@@PAUborderStyle_struct@1@IPAUrct_struct@vpiDomains_class@@H@Z 
01:0009E144 ?drawNCCaption@groupBox_class@@SAXQAVgroupBox@@@IPAUrct_struct@vpiDomains_class@@H@Z 
01:0009E2C4 ?setText@groupBox_class@@SAXQAVwindow@@@PB_W@Z 
01:0009E2E4 ?invalidate@groupBox_class@@SAXQAVgroupBox@@@@Z 
01:0009E334 ?_new@groupBox_class@@SAXQAVcontainerWindow@@@PAPAVgroupBox@@@@Z 
01:0009E360 ?_new@groupBox_class@@SAXPAPAVgroupBox@@@@Z  (Idle)
01:0009E388 ?_object_facts_initializer@groupBox_class@@SGXQAVgroupBox@@@@Z 
01:0009E3A4 ?classInfo@scrollControl_class@@SAXPAPB_W0@Z 
01:0009E3C0 ?newHorizontal@scrollControl_class@@SAXQAVscrollControl@@@QAVcontainerWindow@@@@Z 
01:0009E3E0 ?newHorizontal@scrollControl_class@@SAXQAVscrollControl@@@@Z 
01:0009E434 ?newVertical@scrollControl_class@@SAXQAVscrollControl@@@QAVcontainerWindow@@@@Z 
01:0009E454 ?newVertical@scrollControl_class@@SAXQAVscrollControl@@@@Z 
01:0009E4A8 ?dispatchEvent@scrollControl_class@@SAXQAVcontrol@@@PAUcontrolInfo_struct@vpiDomains_class@@@Z 
01:0009E564 ?setThumbIfThumbTrack@scrollControl_class@@SAXQAVscrollControl@@@HH@Z 
01:0009E598 ?isPosInvalidForCode@scrollControl_class@@SAXH@Z 
01:0009E5C0 ?dispatchScroll@scrollControl_class@@SAXQAVscrollControl@@@HH@Z 
01:0009E64C ?addScrollListener@scrollControl_class@@SAXQAVscrollControl@@@X@Z 
01:0009E66C ?removeScrollListener@scrollControl_class@@SAXQAVscrollControl@@@X@Z 
01:0009E738 ?initialize@scrollControl_class@@SAXQAVwindow@@@@Z 
01:0009E7A4 ?initRange@scrollControl_class@@SAXQAVscrollControl@@@PBUwindowHandle@vpiDomains@@@Z 
01:0009E7F8 ?initPos@scrollControl_class@@SAXQAVscrollControl@@@PBUwindowHandle@vpiDomains@@@Z 
01:0009E844 ?initProportion@scrollControl_class@@SAXQAVscrollControl@@@PBUwindowHandle@vpiDomains@@@Z 
01:0009E890 ?getRange@scrollControl_class@@SAXQAVscrollControl@@@PAHPAH@Z 
01:0009E93C ?setRange@scrollControl_class@@SAXQAVscrollControl@@@HH@Z 
01:0009E9D0 ?getThumbPosition@scrollControl_class@@SAXQAVscrollControl@@@PAH@Z 
01:0009EA74 ?setThumbPosition@scrollControl_class@@SAXQAVscrollControl@@@H@Z 
01:0009EB20 ?_getProportion@scrollControl_class@@SAXQAVscrollControl@@@PAI@Z 
01:0009EBC4 ?setProportion@scrollControl_class@@SAXQAVscrollControl@@@I@Z 
01:0009EC50 ?_newHorizontal@scrollControl_class@@SAXQAVcontainerWindow@@@PAPAVscrollControl@@@@Z  (Idle)
01:0009EC7C ?_newHorizontal@scrollControl_class@@SAXPAPAVscrollControl@@@@Z  (Idle)
01:0009ECA4 ?_newVertical@scrollControl_class@@SAXQAVcontainerWindow@@@PAPAVscrollControl@@@@Z 
01:0009ECD0 ?_newVertical@scrollControl_class@@SAXPAPAVscrollControl@@@@Z  (Idle)
01:0009ECF8 ?classInfo@listEdit_class@@SAXPAPB_W0@Z 
01:0009ED14 ?new@listEdit_class@@SAXQAVlistEdit@@@QAVcontainerWindow@@@@Z 
01:0009ED34 ?new@listEdit_class@@SAXQAVlistEdit@@@@Z 
01:0009ED68 ?addModifiedListener@listEdit_class@@SAXQAVeditControl@@@X@Z 
01:0009ED88 ?removeModifiedListener@listEdit_class@@SAXQAVeditControl@@@X@Z 
01:0009EE54 ?dispatchModified@listEdit_class@@SAXQAVlistEdit@@@@Z 
01:0009EED0 ?dispatchEvent@listEdit_class@@SAXQAVcontrol@@@PAUcontrolInfo_struct@vpiDomains_class@@@Z 
01:0009EF2C ?selectText@listEdit_class@@SAXQAVeditControl@@@HH@Z 
01:0009EF60 ?selectAll@listEdit_class@@SAXQAVeditControl@@@@Z 
01:0009EFA8 ?getTextSelection@listEdit_class@@SAXQAVeditControl@@@PAHPAH@Z 
01:0009EFDC ?setAlignBaseline@listEdit_class@@SAXQAVeditControl@@@PAUboolean_struct@_builtIn_class@@@Z 
01:0009F01C ?_getAlignBaseline@listEdit_class@@SAXQAVeditControl@@@PAPAUboolean_struct@_builtIn_class@@@Z 
01:0009F030 ?setAutoHScroll@listEdit_class@@SAXQAVeditControl@@@@Z 
01:0009F058 ?setAutoHScroll@listEdit_class@@SAXQAVeditControl@@@PAUboolean_struct@_builtIn_class@@@Z 
01:0009F0EC ?_getAutoHScroll@listEdit_class@@SAXQAVeditControl@@@PAPAUboolean_struct@_builtIn_class@@@Z 
01:0009F150 ?setBorder@listEdit_class@@SAXQAVeditControl@@@@Z 
01:0009F178 ?setBorder@listEdit_class@@SAXQAVeditControl@@@PAUboolean_struct@_builtIn_class@@@Z 
01:0009F194 ?_getBorder@listEdit_class@@SAXQAVeditControl@@@PAPAUboolean_struct@_builtIn_class@@@Z 
01:0009F1B0 ?setMultiLine@listEdit_class@@SAXQAVeditControl@@@@Z 
01:0009F1D8 ?setMultiLine@listEdit_class@@SAXQAVeditControl@@@PAUboolean_struct@_builtIn_class@@@Z 
01:0009F1F4 ?_getMultiLine@listEdit_class@@SAXQAVeditControl@@@PAPAUboolean_struct@_builtIn_class@@@Z 
01:0009F210 ?setPassword@listEdit_class@@SAXQAVeditControl@@@@Z 
01:0009F238 ?setPassword@listEdit_class@@SAXQAVeditControl@@@PAUboolean_struct@_builtIn_class@@@Z 
01:0009F254 ?_getPassword@listEdit_class@@SAXQAVeditControl@@@PAPAUboolean_struct@_builtIn_class@@@Z 
01:0009F270 ?setHideSel@listEdit_class@@SAXQAVeditControl@@@@Z 
01:0009F298 ?setHideSel@listEdit_class@@SAXQAVeditControl@@@PAUboolean_struct@_builtIn_class@@@Z 
01:0009F2B4 ?_getHideSel@listEdit_class@@SAXQAVeditControl@@@PAPAUboolean_struct@_builtIn_class@@@Z 
01:0009F2D0 ?setReadOnly@listEdit_class@@SAXQAVeditControl@@@@Z 
01:0009F2F8 ?setReadOnly@listEdit_class@@SAXQAVeditControl@@@PAUboolean_struct@_builtIn_class@@@Z 
01:0009F314 ?_getReadOnly@listEdit_class@@SAXQAVeditControl@@@PAPAUboolean_struct@_builtIn_class@@@Z 
01:0009F330 ?setAlignment@listEdit_class@@SAXQAVeditControl@@@PAUalignment_struct@vpiDomains_class@@@Z 
01:0009F34C ?_getAlignment@listEdit_class@@SAXQAVeditControl@@@PAPAUalignment_struct@vpiDomains_class@@@Z 
01:0009F368 ?setUpperCase@listEdit_class@@SAXQAVeditControl@@@@Z 
01:0009F390 ?setUpperCase@listEdit_class@@SAXQAVeditControl@@@PAUboolean_struct@_builtIn_class@@@Z 
01:0009F3AC ?_getUpperCase@listEdit_class@@SAXQAVeditControl@@@PAPAUboolean_struct@_builtIn_class@@@Z 
01:0009F3C8 ?setLowerCase@listEdit_class@@SAXQAVeditControl@@@@Z 
01:0009F3F0 ?setLowerCase@listEdit_class@@SAXQAVeditControl@@@PAUboolean_struct@_builtIn_class@@@Z 
01:0009F40C ?_getLowerCase@listEdit_class@@SAXQAVeditControl@@@PAPAUboolean_struct@_builtIn_class@@@Z 
01:0009F428 ?setAutoVScroll@listEdit_class@@SAXQAVeditControl@@@@Z 
01:0009F450 ?setAutoVScroll@listEdit_class@@SAXQAVeditControl@@@PAUboolean_struct@_builtIn_class@@@Z 
01:0009F46C ?_getAutoVScroll@listEdit_class@@SAXQAVeditControl@@@PAPAUboolean_struct@_builtIn_class@@@Z 
01:0009F488 ?setHScroll@listEdit_class@@SAXQAVeditControl@@@@Z 
01:0009F4B0 ?setHScroll@listEdit_class@@SAXQAVeditControl@@@PAUboolean_struct@_builtIn_class@@@Z 
01:0009F4CC ?_getHScroll@listEdit_class@@SAXQAVeditControl@@@PAPAUboolean_struct@_builtIn_class@@@Z 
01:0009F4E8 ?setWantReturn@listEdit_class@@SAXQAVeditControl@@@@Z 
01:0009F510 ?setWantReturn@listEdit_class@@SAXQAVeditControl@@@PAUboolean_struct@_builtIn_class@@@Z 
01:0009F52C ?_getWantReturn@listEdit_class@@SAXQAVeditControl@@@PAPAUboolean_struct@_builtIn_class@@@Z 
01:0009F548 ?_new@listEdit_class@@SAXQAVcontainerWindow@@@PAPAVlistEdit@@@@Z  (Idle)
01:0009F574 ?_new@listEdit_class@@SAXPAPAVlistEdit@@@@Z  (Idle)
01:0009F59C ?_object_facts_initializer@listEdit_class@@SGXQAVlistEdit@@@@Z 
01:0009F5B8 ?classInfo@listButton_class@@SAXPAPB_W0@Z 
01:0009F5D4 ?new@listButton_class@@SAXQAVlistButton@@@@Z 
01:0009F5FC ?new@listButton_class@@SAXQAVlistButton@@@QAVcontainerWindow@@@@Z 
01:0009F61C ?setAlignBaseline@listButton_class@@SAXQAVlistButton@@@PAUboolean_struct@_builtIn_class@@@Z 
01:0009F65C ?_getAlignBaseline@listButton_class@@SAXQAVlistButton@@@PAPAUboolean_struct@_builtIn_class@@@Z 
01:0009F670 ?_new@listButton_class@@SAXQAVcontainerWindow@@@PAPAVlistButton@@@@Z  (Idle)
01:0009F69C ?_new@listButton_class@@SAXPAPAVlistButton@@@@Z  (Idle)
01:0009F6C4 ?_object_facts_initializer@listButton_class@@SGXQAVlistButton@@@@Z 
01:0009F6E0 ?classInfo@listControl_class@@SAXPAPB_W0@Z 
01:0009F6FC ?new@listControl_class@@SAXQAVlistControl@@@QAVcontainerWindow@@@H@Z 
01:0009F720 ?new@listControl_class@@SAXQAVlistControl@@@H@Z 
01:0009F788 ?initialize@listControl_class@@SAXQAVwindow@@@@Z 
01:0009F874 ?initSelectAt@listControl_class@@SAXQAVlistControl@@@@Z 
01:0009F934 ?setMaxDropDownRows@listControl_class@@SAXQAVlistControl@@@I@Z 
01:0009F974 ?correctMaxDropDownRows@listControl_class@@SAXQAVlistControl@@@@Z 
01:0009FA54 ?onParentContainerShow@listControl_class@@SAXQAVlistControl@@@QAVwindow@@@H@Z 
01:0009FA60 ?getMaxDropDownRows@listControl_class@@SAXQAVlistControl@@@PAI@Z 
01:0009FA74 ?_getDroppedState@listControl_class@@SAXQAVlistControl@@@PAPAUboolean_struct@_builtIn_class@@@Z 
01:0009FAB4 ?addRow@listControl_class@@SAXQAVlistControl@@@PAU?$__list_struct@Ustring@@@@@Z 
01:0009FADC ?addRowAt@listControl_class@@SAXQAVlistControl@@@HPAU?$__list_struct@Ustring@@@@@Z 
01:0009FB04 $addRowList$listControl$predicate$(i,i)$c$_m5 
01:0009FB2C $addRowListAt$listControl$predicate$(i,i,i)$c$_m6 
01:0009FB54 ?add@listControl_class@@SAXQAVlistControl@@@PB_W@Z 
01:0009FBE0 ?addAt@listControl_class@@SAXQAVlistControl@@@HPB_W@Z 
01:0009FC6C ?addList@listControl_class@@SAXQAVlistControl@@@PAU?$__list_struct@Ustring@@@@@Z 
01:0009FCE4 ?addListAt@listControl_class@@SAXQAVlistControl@@@HPAU?$__list_struct@Ustring@@@@@Z 
01:0009FD5C ?clearAll@listControl_class@@SAXQAVlistControl@@@@Z 
01:0009FEA0 ?delete@listControl_class@@SAXQAVlistControl@@@H@Z 
01:0009FF74 $getAllRows$listControl$predicate$(i,o)$c$_m13 
01:0009FF9C ?getAll@listControl_class@@SAXQAVlistControl@@@PAPAU?$__list_struct@Ustring@@@@@Z 
01:0009FFF0 ?_getCount@listControl_class@@SAXQAVlistControl@@@PAH@Z 
01:000A004C ?_getRowAt@listControl_class@@SAXQAVlistControl@@@HPAPAU?$__list_struct@Ustring@@@@@Z 
01:000A007C ?getAt@listControl_class@@SAXQAVlistControl@@@HPAPB_W@Z 
01:000A00E4 $getAllSelectedRows$listControl$predicate$(i,o,o)$c$_m18 
01:000A0110 ?_toPositiveList@listControl_class@@SAXPAU?$__list_struct@Uinteger@@@@PAPAU?$__list_struct@Upositive@@@@@Z 
01:000A0190 ?getAllSelected@listControl_class@@SAXQAVlistControl@@@PAPAU?$__list_struct@Ustring@@@@PAPAU?$__list_struct@Upositive@@@@@Z 
01:000A028C ?_getSelectedItems@listControl_class@@SAXQAVlistControl@@@PAPAU?$__list_struct@Ustring@@@@@Z 
01:000A02AC ?_getSelectedIndices@listControl_class@@SAXQAVlistControl@@@PAPAU?$__list_struct@Upositive@@@@@Z 
01:000A02CC ?indexesToItemList@listControl_class@@SAXQAVlistControl@@@PAU?$__list_struct@Upositive@@@@PAPAU?$__list_struct@Ustring@@@@@Z 
01:000A0358 ?_tryGetSelectedIndex@listControl_class@@SAXQAVlistControl@@@PAH@Z 
01:000A040C ?isSelectedIndex@listControl_class@@SAXQAVlistControl@@@H@Z 
01:000A04A8 ?selectAt@listControl_class@@SAXQAVlistControl@@@HPAUboolean_struct@_builtIn_class@@@Z 
01:000A0740 ?suspend@listControl_class@@SAXQAVlistControl@@@@Z 
01:000A076C ?resume@listControl_class@@SAXQAVlistControl@@@@Z 
01:000A0798 ?_insertListAt@listControl_class@@SAXHPAU?$__list_struct@Ustring@@@@1PAPAU?$__list_struct@U2@@@@Z 
01:000A0898 ?_deleteListItem@listControl_class@@SAXHPAU?$__list_struct@Ustring@@@@PAPAU?$__list_struct@U2@@@@Z 
01:000A0928 ?_getListLength@listControl_class@@SAXPAU?$__list_struct@Ustring@@@@PAH@Z 
01:000A0970 ?_getListItem@listControl_class@@SAXHPAU?$__list_struct@Ustring@@@@PAPB_W@Z 
01:000A09D0 ?addSelectionChangedListener@listControl_class@@SAXQAVlistControl@@@X@Z 
01:000A09F0 ?removeSelectionChangedListener@listControl_class@@SAXQAVlistControl@@@X@Z 
01:000A0ABC ?addDelayedSelectionChangedListener@listControl_class@@SAXQAVlistControl@@@HX@Z 
01:000A0AF8 ?removeDelayedSelectionChangedListener@listControl_class@@SAXQAVlistControl@@@X@Z 
01:000A0BC8 ?dispatchSelectionChanged@listControl_class@@SAXQAVlistControl@@@PAU?$__list_struct@Upositive@@@@1@Z 
01:000A0C90 ?dispatchBothKindSelectionChanged@listControl_class@@SAXQAVlistControl@@@@Z 
01:000A0DB4 ?delayedDispatchSelectionChanged@listControl_class@@SAXQAVlistControl@@@@Z 
01:000A0E38 ?addCloseUpListener@listControl_class@@SAXQAVlistControl@@@X@Z 
01:000A0E58 ?removeCloseUpListener@listControl_class@@SAXQAVlistControl@@@X@Z 
01:000A0F24 ?dispatchCloseUp@listControl_class@@SAXQAVlistControl@@@@Z 
01:000A0F98 ?addDropDownListener@listControl_class@@SAXQAVlistControl@@@X@Z 
01:000A0FB8 ?removeDropDownListener@listControl_class@@SAXQAVlistControl@@@X@Z 
01:000A1084 ?dispatchDropDown@listControl_class@@SAXQAVlistControl@@@@Z 
01:000A10F8 ?dispatchEvent@listControl_class@@SAXQAVcontrol@@@PAUcontrolInfo_struct@vpiDomains_class@@@Z 
01:000A11E4 ?setVScroll@listControl_class@@SAXQAVlistControl@@@@Z 
01:000A120C ?setVScroll@listControl_class@@SAXQAVlistControl@@@PAUboolean_struct@_builtIn_class@@@Z 
01:000A12A0 ?_getVScroll@listControl_class@@SAXQAVlistControl@@@PAPAUboolean_struct@_builtIn_class@@@Z 
01:000A1304 ?setStaticScrollbar@listControl_class@@SAXQAVlistControl@@@@Z 
01:000A132C ?setStaticScrollbar@listControl_class@@SAXQAVlistControl@@@PAUboolean_struct@_builtIn_class@@@Z 
01:000A1390 ?_getStaticScrollbar@listControl_class@@SAXQAVlistControl@@@PAPAUboolean_struct@_builtIn_class@@@Z 
01:000A13F4 ?setAllowPartialRows@listControl_class@@SAXQAVlistControl@@@@Z 
01:000A141C ?setAllowPartialRows@listControl_class@@SAXQAVlistControl@@@PAUboolean_struct@_builtIn_class@@@Z 
01:000A14B0 ?_getAllowPartialRows@listControl_class@@SAXQAVlistControl@@@PAPAUboolean_struct@_builtIn_class@@@Z 
01:000A1514 ?setSort@listControl_class@@SAXQAVlistControl@@@@Z 
01:000A153C ?setSort@listControl_class@@SAXQAVlistControl@@@PAUboolean_struct@_builtIn_class@@@Z 
01:000A15D0 ?_getSort@listControl_class@@SAXQAVlistControl@@@PAPAUboolean_struct@_builtIn_class@@@Z 
01:000A1634 ?_stringList2tabbedString@listControl_class@@SAXPAU?$__list_struct@Ustring@@@@PAPB_W@Z 
01:000A1664 ?_tabbedString2stringList@listControl_class@@SAXPB_WPAPAU?$__list_struct@Ustring@@@@@Z 
01:000A1694 $stringListList2stringList$listControl$predicate$(i,o)$_c5 
01:000A170C $stringList2stringListList$listControl$predicate$(i,o)$_c6 
01:000A1784 ?_new@listControl_class@@SAXQAVcontainerWindow@@@HPAPAVlistControl@@@@Z  (Idle)
01:000A17B4 ?_new@listControl_class@@SAXHPAPAVlistControl@@@@Z  (Idle)
01:000A17E0 ?_object_facts_initializer@listControl_class@@SGXQAVlistControl@@@@Z 
01:000A1814 ?classInfo@listBox_class@@SAXPAPB_W0@Z 
01:000A1830 ?new@listBox_class@@SAXQAVlistBox@@@QAVcontainerWindow@@@@Z 
01:000A1858 ?new@listBox_class@@SAXQAVlistBox@@@@Z 
01:000A18B4 ?initialize@listBox_class@@SAXQAVwindow@@@@Z 
01:000A18EC ?initTopIndex@listBox_class@@SAXQAVlistBox@@@@Z 
01:000A1948 ?setTopIndex@listBox_class@@SAXQAVlistBox@@@H@Z 
01:000A19D0 ?addDoubleClickListener@listBox_class@@SAXQAVlistBox@@@X@Z 
01:000A19F0 ?removeDoubleClickListener@listBox_class@@SAXQAVlistBox@@@X@Z 
01:000A1ABC ?addDropDownListener@listBox_class@@SAXQAVlistControl@@@X@Z 
01:000A1AD8 ?removeDropDownListener@listBox_class@@SAXQAVlistControl@@@X@Z 
01:000A1AF4 ?addCloseUpListener@listBox_class@@SAXQAVlistControl@@@X@Z 
01:000A1B10 ?removeCloseUpListener@listBox_class@@SAXQAVlistControl@@@X@Z 
01:000A1B2C ?setMaxDropDownRows@listBox_class@@SAXQAVlistControl@@@I@Z 
01:000A1B48 ?_getMaxDropDownRows@listBox_class@@SAXQAVlistControl@@@PAI@Z 
01:000A1B64 ?_getDroppedState@listBox_class@@SAXQAVlistControl@@@PAPAUboolean_struct@_builtIn_class@@@Z 
01:000A1B80 ?dispatchActivated@listBox_class@@SAXQAVlistBox@@@@Z 
01:000A1BF4 ?dispatchEvent@listBox_class@@SAXQAVcontrol@@@PAUcontrolInfo_struct@vpiDomains_class@@@Z 
01:000A1C50 ?setHScroll@listBox_class@@SAXQAVlistBox@@@@Z 
01:000A1C78 ?setHScroll@listBox_class@@SAXQAVlistBox@@@PAUboolean_struct@_builtIn_class@@@Z 
01:000A1D0C ?_getHScroll@listBox_class@@SAXQAVlistBox@@@PAPAUboolean_struct@_builtIn_class@@@Z 
01:000A1D70 ?setBorder@listBox_class@@SAXQAVlistBox@@@@Z 
01:000A1D98 ?setBorder@listBox_class@@SAXQAVlistBox@@@PAUboolean_struct@_builtIn_class@@@Z 
01:000A1DFC ?_getBorder@listBox_class@@SAXQAVlistBox@@@PAPAUboolean_struct@_builtIn_class@@@Z 
01:000A1E84 ?setExtendedSel@listBox_class@@SAXQAVlistBox@@@@Z 
01:000A1EAC ?setExtendedSel@listBox_class@@SAXQAVlistBox@@@PAUboolean_struct@_builtIn_class@@@Z 
01:000A1F40 ?_getExtendedSel@listBox_class@@SAXQAVlistBox@@@PAPAUboolean_struct@_builtIn_class@@@Z 
01:000A1FA4 ?setUseTabStops@listBox_class@@SAXQAVlistBox@@@@Z 
01:000A1FCC ?setUseTabStops@listBox_class@@SAXQAVlistBox@@@PAUboolean_struct@_builtIn_class@@@Z 
01:000A2060 ?_getUseTabStops@listBox_class@@SAXQAVlistBox@@@PAPAUboolean_struct@_builtIn_class@@@Z 
01:000A20C4 ?setMultiSelect@listBox_class@@SAXQAVlistBox@@@@Z 
01:000A20EC ?setMultiSelect@listBox_class@@SAXQAVlistBox@@@PAUboolean_struct@_builtIn_class@@@Z 
01:000A2150 ?_getMultiSelect@listBox_class@@SAXQAVlistBox@@@PAPAUboolean_struct@_builtIn_class@@@Z 
01:000A21B4 ?setAutoNotify@listBox_class@@SAXQAVlistBox@@@@Z 
01:000A21DC ?setAutoNotify@listBox_class@@SAXQAVlistBox@@@PAUboolean_struct@_builtIn_class@@@Z 
01:000A2240 ?_getAutoNotify@listBox_class@@SAXQAVlistBox@@@PAPAUboolean_struct@_builtIn_class@@@Z 
01:000A22C8 ?setMultiColumn@listBox_class@@SAXQAVlistBox@@@@Z 
01:000A22F0 ?setMultiColumn@listBox_class@@SAXQAVlistBox@@@PAUboolean_struct@_builtIn_class@@@Z 
01:000A2354 ?_getMultiColumn@listBox_class@@SAXQAVlistBox@@@PAPAUboolean_struct@_builtIn_class@@@Z 
01:000A23B8 ?setColumnWidth@listBox_class@@SAXQAVlistBox@@@H@Z 
01:000A2440 ?setTabStops@listBox_class@@SAXQAVlistBox@@@PAU?$__list_struct@Uinteger@@@@@Z 
01:000A24B4 ?initColumnWidth@listBox_class@@SAXQAVlistBox@@@@Z 
01:000A2510 ?initTabStops@listBox_class@@SAXQAVlistBox@@@@Z 
01:000A256C ?_new@listBox_class@@SAXQAVcontainerWindow@@@PAPAVlistBox@@@@Z  (Idle)
01:000A2598 ?_new@listBox_class@@SAXPAPAVlistBox@@@@Z  (Idle)
01:000A25C0 ?classInfo@editControl_class@@SAXPAPB_W0@Z 
01:000A25DC ?new@editControl_class@@SAXQAVeditControl@@@QAVcontainerWindow@@@@Z 
01:000A25FC ?new@editControl_class@@SAXQAVeditControl@@@@Z 
01:000A2664 ?show@editControl_class@@SAXQAVwindow@@@@Z 
01:000A2694 ?setOuterRect@editControl_class@@SAXQAVwindow@@@PAUrct_struct@vpiDomains_class@@@Z 
01:000A270C ?_fixEditControlOuterRect@editControl_class@@SAXQAVeditControl@@@PAUboolean_struct@_builtIn_class@@PAUrct_struct@vpiDomains_class@@PAPAU56@@Z 
01:000A27C0 ?setAlignBaseline@editControl_class@@SAXQAVeditControl@@@PAUboolean_struct@_builtIn_class@@@Z 
01:000A2800 ?getAlignBaseline@editControl_class@@SAXQAVeditControl@@@PAPAUboolean_struct@_builtIn_class@@@Z 
01:000A2814 ?addModifiedListener@editControl_class@@SAXQAVeditControl@@@X@Z 
01:000A2834 ?removeModifiedListener@editControl_class@@SAXQAVeditControl@@@X@Z 
01:000A2900 ?dispatchModified@editControl_class@@SAXQAVeditControl@@@@Z 
01:000A29AC ?dispatchEvent@editControl_class@@SAXQAVcontrol@@@PAUcontrolInfo_struct@vpiDomains_class@@@Z 
01:000A2A00 ?selectText@editControl_class@@SAXQAVeditControl@@@HH@Z 
01:000A2A34 ?selectAll@editControl_class@@SAXQAVeditControl@@@@Z 
01:000A2A7C ?getTextSelection@editControl_class@@SAXQAVeditControl@@@PAHPAH@Z 
01:000A2AB0 ?setAutoHScroll@editControl_class@@SAXQAVeditControl@@@@Z 
01:000A2AD8 ?setAutoHScroll@editControl_class@@SAXQAVeditControl@@@PAUboolean_struct@_builtIn_class@@@Z 
01:000A2B6C ?_getAutoHScroll@editControl_class@@SAXQAVeditControl@@@PAPAUboolean_struct@_builtIn_class@@@Z 
01:000A2BD0 ?setAutoVScroll@editControl_class@@SAXQAVeditControl@@@@Z 
01:000A2BF8 ?setAutoVScroll@editControl_class@@SAXQAVeditControl@@@PAUboolean_struct@_builtIn_class@@@Z 
01:000A2C8C ?_getAutoVScroll@editControl_class@@SAXQAVeditControl@@@PAPAUboolean_struct@_builtIn_class@@@Z 
01:000A2CF0 ?setBorder@editControl_class@@SAXQAVeditControl@@@@Z 
01:000A2D18 ?setBorder@editControl_class@@SAXQAVeditControl@@@PAUboolean_struct@_builtIn_class@@@Z 
01:000A2DAC ?getBorder@editControl_class@@SAXQAVeditControl@@@PAPAUboolean_struct@_builtIn_class@@@Z 
01:000A2EB4 ?setMultiLine@editControl_class@@SAXQAVeditControl@@@@Z 
01:000A2EDC ?setMultiLine@editControl_class@@SAXQAVeditControl@@@PAUboolean_struct@_builtIn_class@@@Z 
01:000A2F70 ?_getMultiLine@editControl_class@@SAXQAVeditControl@@@PAPAUboolean_struct@_builtIn_class@@@Z 
01:000A2FD4 ?setVScroll@editControl_class@@SAXQAVeditControl@@@@Z 
01:000A2FFC ?setVScroll@editControl_class@@SAXQAVeditControl@@@PAUboolean_struct@_builtIn_class@@@Z 
01:000A3090 ?_getVScroll@editControl_class@@SAXQAVeditControl@@@PAPAUboolean_struct@_builtIn_class@@@Z 
01:000A30F4 ?setHScroll@editControl_class@@SAXQAVeditControl@@@@Z 
01:000A311C ?setHScroll@editControl_class@@SAXQAVeditControl@@@PAUboolean_struct@_builtIn_class@@@Z 
01:000A31B0 ?_getHScroll@editControl_class@@SAXQAVeditControl@@@PAPAUboolean_struct@_builtIn_class@@@Z 
01:000A3214 ?setWantReturn@editControl_class@@SAXQAVeditControl@@@@Z 
01:000A323C ?setWantReturn@editControl_class@@SAXQAVeditControl@@@PAUboolean_struct@_builtIn_class@@@Z 
01:000A32D0 ?_getWantReturn@editControl_class@@SAXQAVeditControl@@@PAPAUboolean_struct@_builtIn_class@@@Z 
01:000A3334 ?setPassword@editControl_class@@SAXQAVeditControl@@@@Z 
01:000A335C ?setPassword@editControl_class@@SAXQAVeditControl@@@PAUboolean_struct@_builtIn_class@@@Z 
01:000A33F0 ?_getPassword@editControl_class@@SAXQAVeditControl@@@PAPAUboolean_struct@_builtIn_class@@@Z 
01:000A3454 ?setHideSel@editControl_class@@SAXQAVeditControl@@@@Z 
01:000A347C ?setHideSel@editControl_class@@SAXQAVeditControl@@@PAUboolean_struct@_builtIn_class@@@Z 
01:000A3510 ?_getHideSel@editControl_class@@SAXQAVeditControl@@@PAPAUboolean_struct@_builtIn_class@@@Z 
01:000A3598 ?setReadOnly@editControl_class@@SAXQAVeditControl@@@@Z 
01:000A35C0 ?setReadOnly@editControl_class@@SAXQAVeditControl@@@PAUboolean_struct@_builtIn_class@@@Z 
01:000A36A0 ?_getReadOnly@editControl_class@@SAXQAVeditControl@@@PAPAUboolean_struct@_builtIn_class@@@Z 
01:000A3704 ?setAlignment@editControl_class@@SAXQAVeditControl@@@PAUalignment_struct@vpiDomains_class@@@Z 
01:000A382C ?_getAlignment@editControl_class@@SAXQAVeditControl@@@PAPAUalignment_struct@vpiDomains_class@@@Z 
01:000A38DC ?setUpperCase@editControl_class@@SAXQAVeditControl@@@@Z 
01:000A3904 ?setUpperCase@editControl_class@@SAXQAVeditControl@@@PAUboolean_struct@_builtIn_class@@@Z 
01:000A39C0 ?_getUpperCase@editControl_class@@SAXQAVeditControl@@@PAPAUboolean_struct@_builtIn_class@@@Z 
01:000A3A24 ?setLowerCase@editControl_class@@SAXQAVeditControl@@@@Z 
01:000A3A4C ?setLowerCase@editControl_class@@SAXQAVeditControl@@@PAUboolean_struct@_builtIn_class@@@Z 
01:000A3AF8 ?_getLowerCase@editControl_class@@SAXQAVeditControl@@@PAPAUboolean_struct@_builtIn_class@@@Z 
01:000A3B5C ?_new@editControl_class@@SAXQAVcontainerWindow@@@PAPAVeditControl@@@@Z 
01:000A3B88 ?_new@editControl_class@@SAXPAPAVeditControl@@@@Z  (Idle)
01:000A3BB0 ?_object_facts_initializer@editControl_class@@SGXQAVeditControl@@@@Z 
01:000A3BD8 ?classInfo@checkButton_class@@SAXPAPB_W0@Z 
01:000A3BF4 ?new@checkButton_class@@SAXQAVcheckButton@@@QAVcontainerWindow@@@@Z 
01:000A3C14 ?new@checkButton_class@@SAXQAVcheckButton@@@@Z 
01:000A3C70 ?initialize@checkButton_class@@SAXQAVwindow@@@@Z 
01:000A3CA4 ?setOuterRect@checkButton_class@@SAXQAVwindow@@@PAUrct_struct@vpiDomains_class@@@Z 
01:000A3CE4 ?_fixCheckButtonOuterRect@checkButton_class@@SAXQAVcheckButton@@@PAUboolean_struct@_builtIn_class@@PAUrct_struct@vpiDomains_class@@PAPAU56@@Z 
01:000A3DAC ?setAlignBaseline@checkButton_class@@SAXQAVcheckButton@@@PAUboolean_struct@_builtIn_class@@@Z 
01:000A3DEC ?getAlignBaseline@checkButton_class@@SAXQAVcheckButton@@@PAPAUboolean_struct@_builtIn_class@@@Z 
01:000A3E00 ?defaultClickResponder@checkButton_class@@SAXQAVcheckButton@@@@Z 
01:000A3E08 ?setClickResponder@checkButton_class@@SAXQAVcheckButton@@@X@Z 
01:000A3E1C ?_getClickResponder@checkButton_class@@SAXQAVcheckButton@@@PAX@Z 
01:000A3E30 ?resetClickResponder@checkButton_class@@SAXQAVcheckButton@@@@Z 
01:000A3E48 ?addStateChangedListener@checkButton_class@@SAXQAVcheckButton@@@X@Z 
01:000A3E68 ?removeStateChangedListener@checkButton_class@@SAXQAVcheckButton@@@X@Z 
01:000A3F34 ?dispatchActivated@checkButton_class@@SAXQAVcheckButton@@@@Z 
01:000A3FB4 ?dispatchStateChanged@checkButton_class@@SAXQAVcheckButton@@@PAUstate_struct@1@1@Z 
01:000A4074 ?dispatchEvent@checkButton_class@@SAXQAVcontrol@@@PAUcontrolInfo_struct@vpiDomains_class@@@Z 
01:000A4094 ?getCheckedState@checkButton_class@@SAXQAVcheckButton@@@PAPAUstate_struct@1@@Z 
01:000A40F4 ?setCheckedState@checkButton_class@@SAXQAVcheckButton@@@PAUstate_struct@1@@Z 
01:000A4170 ?state2integral@checkButton_class@@SAXPAUstate_struct@1@PAI@Z 
01:000A41A4 ?setChecked@checkButton_class@@SAXQAVcheckButton@@@PAUboolean_struct@_builtIn_class@@@Z 
01:000A41D0 ?_getChecked@checkButton_class@@SAXQAVcheckButton@@@PAPAUboolean_struct@_builtIn_class@@@Z 
01:000A4200 ?setStyle@checkButton_class@@SAXQAVcheckButton@@@PAUboolean_struct@_builtIn_class@@1@Z 
01:000A4378 ?getStyle@checkButton_class@@SAXQAVcheckButton@@@PAPAUboolean_struct@_builtIn_class@@1@Z 
01:000A4498 ?setAuto@checkButton_class@@SAXQAVcheckButton@@@@Z 
01:000A44C0 ?setAuto@checkButton_class@@SAXQAVcheckButton@@@PAUboolean_struct@_builtIn_class@@@Z 
01:000A4500 ?_getAuto@checkButton_class@@SAXQAVcheckButton@@@PAPAUboolean_struct@_builtIn_class@@@Z 
01:000A4520 ?setLeftText@checkButton_class@@SAXQAVcheckButton@@@@Z 
01:000A4548 ?setLeftText@checkButton_class@@SAXQAVcheckButton@@@PAUboolean_struct@_builtIn_class@@@Z 
01:000A45DC ?_getLeftText@checkButton_class@@SAXQAVcheckButton@@@PAPAUboolean_struct@_builtIn_class@@@Z 
01:000A4640 ?_new@checkButton_class@@SAXQAVcontainerWindow@@@PAPAVcheckButton@@@@Z  (Idle)
01:000A466C ?_new@checkButton_class@@SAXPAPAVcheckButton@@@@Z  (Idle)
01:000A4694 ?state2integral@checkButton_class@@SAXPAPAUstate_struct@1@I@Z 
01:000A4714 ?_object_facts_initializer@checkButton_class@@SGXQAVcheckButton@@@@Z 
01:000A4744 ?classInfo@radioButton_class@@SAXPAPB_W0@Z 
01:000A4760 ?new@radioButton_class@@SAXQAVradioButton@@@QAVcontainerWindow@@@@Z 
01:000A477C ?new@radioButton_class@@SAXQAVradioButton@@@@Z 
01:000A47D4 ?initialize@radioButton_class@@SAXQAVwindow@@@@Z 
01:000A482C ?setOuterRect@radioButton_class@@SAXQAVwindow@@@PAUrct_struct@vpiDomains_class@@@Z 
01:000A486C ?_fixRadioButtonOuterRect@radioButton_class@@SAXQAVradioButton@@@PAUboolean_struct@_builtIn_class@@PAUrct_struct@vpiDomains_class@@PAPAU56@@Z 
01:000A4934 ?setAlignBaseline@radioButton_class@@SAXQAVradioButton@@@PAUboolean_struct@_builtIn_class@@@Z 
01:000A4974 ?getAlignBaseline@radioButton_class@@SAXQAVradioButton@@@PAPAUboolean_struct@_builtIn_class@@@Z 
01:000A4988 ?setContainer@radioButton_class@@SAXQAVcontrol@@@QAVcontainerWindow@@@@Z 
01:000A49FC ?resetContainer@radioButton_class@@SAXQAVcontrol@@@@Z 
01:000A4A18 ?clearOldGroup@radioButton_class@@SAXQAVradioButton@@@@Z 
01:000A4A90 ?defaultClickResponder@radioButton_class@@SAXQAVradioButton@@@@Z 
01:000A4A98 ?setClickResponder@radioButton_class@@SAXQAVradioButton@@@X@Z 
01:000A4AAC ?_getClickResponder@radioButton_class@@SAXQAVradioButton@@@PAX@Z 
01:000A4AC0 ?resetClickResponder@radioButton_class@@SAXQAVradioButton@@@@Z 
01:000A4AD8 ?addStateChangedListener@radioButton_class@@SAXQAVradioButton@@@X@Z 
01:000A4AF8 ?removeStateChangedListener@radioButton_class@@SAXQAVradioButton@@@X@Z 
01:000A4BC4 ?dispatchActivated@radioButton_class@@SAXQAVradioButton@@@@Z 
01:000A4C90 ?dispatchStateChanged@radioButton_class@@SAXQAVradioButton@@@PAUstate_struct@1@1@Z 
01:000A4D1C ?notifyNeighbours@radioButton_class@@SAXQAVradioButton@@@@Z 
01:000A4E04 ?dispatchEvent@radioButton_class@@SAXQAVcontrol@@@PAUcontrolInfo_struct@vpiDomains_class@@@Z 
01:000A4E44 ?getRadioState@radioButton_class@@SAXQAVradioButton@@@PAPAUstate_struct@1@@Z 
01:000A4EA8 ?setRadioState@radioButton_class@@SAXQAVradioButton@@@PAUstate_struct@1@@Z 
01:000A50FC ?state2integral@radioButton_class@@SAXQAVradioButton@@@PAUstate_struct@1@PAI@Z 
01:000A5120 ?setAuto@radioButton_class@@SAXQAVradioButton@@@@Z 
01:000A5148 ?setAuto@radioButton_class@@SAXQAVradioButton@@@PAUboolean_struct@_builtIn_class@@@Z 
01:000A51DC ?_getAuto@radioButton_class@@SAXQAVradioButton@@@PAPAUboolean_struct@_builtIn_class@@@Z 
01:000A5240 ?setLeftText@radioButton_class@@SAXQAVradioButton@@@@Z 
01:000A5268 ?setLeftText@radioButton_class@@SAXQAVradioButton@@@PAUboolean_struct@_builtIn_class@@@Z 
01:000A52FC ?_getLeftText@radioButton_class@@SAXQAVradioButton@@@PAPAUboolean_struct@_builtIn_class@@@Z 
01:000A5360 ?_getRadioButtonGroup@radioButton_class@@SAXQAVradioButton@@@PAPAVradioButtonGroup@@@@Z 
01:000A5390 ?_new@radioButton_class@@SAXQAVcontainerWindow@@@PAPAVradioButton@@@@Z  (Idle)
01:000A53BC ?_new@radioButton_class@@SAXPAPAVradioButton@@@@Z  (Idle)
01:000A53E4 ?state2integral@radioButton_class@@SAXQAVradioButton@@@PAPAUstate_struct@1@I@Z 
01:000A5450 ?_object_facts_initializer@radioButton_class@@SGXQAVradioButton@@@@Z 
01:000A5480 ?classInfo@textControl_class@@SAXPAPB_W0@Z 
01:000A549C ?new@textControl_class@@SAXQAVtextControl@@@QAVcontainerWindow@@@@Z 
01:000A54BC ?new@textControl_class@@SAXQAVtextControl@@@@Z 
01:000A5510 ?setOuterRect@textControl_class@@SAXQAVwindow@@@PAUrct_struct@vpiDomains_class@@@Z 
01:000A5550 ?_fixTextControlOuterRect@textControl_class@@SAXQAVtextControl@@@PAUboolean_struct@_builtIn_class@@PAUrct_struct@vpiDomains_class@@PAPAU56@@Z 
01:000A563C ?setAlignBaseline@textControl_class@@SAXQAVtextControl@@@PAUboolean_struct@_builtIn_class@@@Z 
01:000A567C ?getAlignBaseline@textControl_class@@SAXQAVtextControl@@@PAPAUboolean_struct@_builtIn_class@@@Z 
01:000A5690 ?setIgnorePrefix@textControl_class@@SAXQAVtextControl@@@@Z 
01:000A56B8 ?setIgnorePrefix@textControl_class@@SAXQAVtextControl@@@PAUboolean_struct@_builtIn_class@@@Z 
01:000A574C ?_getIgnorePrefix@textControl_class@@SAXQAVtextControl@@@PAPAUboolean_struct@_builtIn_class@@@Z 
01:000A57B0 ?alignment_State@textControl_class@@SAXPAUalignment_struct@vpiDomains_class@@PAI@Z 
01:000A57E4 ?setAlignment@textControl_class@@SAXQAVtextControl@@@PAUalignment_struct@vpiDomains_class@@@Z 
01:000A586C ?_getAlignment@textControl_class@@SAXQAVtextControl@@@PAPAUalignment_struct@vpiDomains_class@@@Z 
01:000A58D8 ?setWrap@textControl_class@@SAXQAVtextControl@@@@Z 
01:000A5900 ?setWrap@textControl_class@@SAXQAVtextControl@@@PAUboolean_struct@_builtIn_class@@@Z 
01:000A597C ?_getWrap@textControl_class@@SAXQAVtextControl@@@PAPAUboolean_struct@_builtIn_class@@@Z 
01:000A5A04 ?setForegroundColor@textControl_class@@SAXQAVtextControl@@@H@Z 
01:000A5A54 ?_onCtlColorStatic@textControl_class@@SAXQAVtextControl@@@QAVwindow@@@IIHPAPAUnativeResponse_struct@window_class@@@Z 
01:000A5B0C ?_updateDC@textControl_class@@SAXQAVtextControl@@@IPAI@Z 
01:000A5B60 ?enableHandleDeviceContext@textControl_class@@SAXQAVtextControl@@@@Z 
01:000A5C10 ?_new@textControl_class@@SAXQAVcontainerWindow@@@PAPAVtextControl@@@@Z 
01:000A5C3C ?_new@textControl_class@@SAXPAPAVtextControl@@@@Z  (Idle)
01:000A5C64 ?alignment_State@textControl_class@@SAXPAPAUalignment_struct@vpiDomains_class@@I@Z 
01:000A5CC0 ?_object_facts_initializer@textControl_class@@SGXQAVtextControl@@@@Z 
01:000A5CDC ?classInfo@containerControl_class@@SAXPAPB_W0@Z  (Idle)
01:000A5CF8 ?new@containerControl_class@@SAXQAVcontainerControl@@@QAVcontainerWindow@@@@Z 
01:000A5D14 ?new@containerControl_class@@SAXQAVcontainerControl@@@@Z 
01:000A5E2C ?show@containerControl_class@@SAXQAVwindow@@@@Z 
01:000A5FDC ?_tryGetControl@containerControl_class@@SAXQAVcontainerWindowSupport@@@PAPAVcontrol@@@@Z 
01:000A6000 ?setContainer@containerControl_class@@SAXQAVcontrolSupport@@@QAVcontainerWindow@@@@Z 
01:000A60B8 ?_onControlEraseBackground@containerControl_class@@SAXQAVcontainerControl@@@QAVdrawWindow@@@QAVwindowGDI@@@PAPAUeraseBackgroundResponse_struct@drawWindow_class@@@Z 
01:000A60CC ?onControlPaint@containerControl_class@@SAXQAVcontainerControl@@@QAVdrawWindow@@@PAUrct_struct@vpiDomains_class@@QAVwindowGDI@@@@Z 
01:000A60F4 ?_onControlNative@containerControl_class@@SAXQAVcontainerControl@@@QAVwindow@@@IIHPAPAUnativeResponse_struct@window_class@@@Z 
01:000A6168 ?_validate@containerControl_class@@SAXQAVcontrolSupport@@@PAPAUvalidateResult_struct@control_class@@@Z 
01:000A61CC ?_new@containerControl_class@@SAXQAVcontainerWindow@@@PAPAVcontainerControl@@@@Z  (Idle)
01:000A61F8 ?_new@containerControl_class@@SAXPAPAVcontainerControl@@@@Z  (Idle)
01:000A6220 ?_object_facts_initializer@containerControl_class@@SGXQAVcontainerControl@@@@Z 
01:000A6238 ?classInfo@control_exception_class@@SAXPAPB_W0@Z 
01:000A6254 ?raise_NoSelectedRadioButtonException@control_exception_class@@SGXX@Z 
01:000A6274 ?raise_WrongRadioButtonException@control_exception_class@@SGXXQAVradioButton@@@@Z 
01:000A62F8 ?raise_IntegerControlIllegalContentException@control_exception_class@@SGXX@Z 
01:000A6318 ?raise_RealControlIllegalContentException@control_exception_class@@SGXX@Z 
01:000A6338 ?raise_MinimumGreaterThanMaximumException@control_exception_class@@SGXXN@Z 
01:000A63C0 ?raise_MaximumLessThanMinimumException@control_exception_class@@SGXXN@Z 
01:000A6448 ?raise_OnlyOneCancelException@control_exception_class@@SGXX@Z 
01:000A6468 ?noSelectedRadioButton_exception@control_exception_class@@SAXPAXPAPB_W1@Z 
01:000A6490 ?wrongRadioButton_exception@control_exception_class@@SAXPAXPAPB_W1@Z 
01:000A64B8 ?integerControlIllegalContent_exception@control_exception_class@@SAXPAXPAPB_W1@Z 
01:000A64E0 ?realControlIllegalContent_exception@control_exception_class@@SAXPAXPAPB_W1@Z 
01:000A6508 ?minimumGreaterThanMaximum_exception@control_exception_class@@SAXPAXPAPB_W1@Z 
01:000A6530 ?maximumLessThanMinimum_exception@control_exception_class@@SAXPAXPAPB_W1@Z 
01:000A6558 ?onlyOneCancel_exception@control_exception_class@@SAXPAXPAPB_W1@Z 
01:000A6580 ?classInfo@versionControl_class@@SAXPAPB_W0@Z  (Idle)
01:000A659C ?parameterTemplate@versionControl_class@@SAXQAVoutputStream@@@PB_W@Z 
01:000A6F64 ?setText@versionControl_class@@SAXQAVwindow@@@PB_W@Z 
01:000A6FC8 ?new@versionControl_class@@SAXQAVversionControl@@@QAVcontainerWindow@@@@Z 
01:000A6FE8 ?new@versionControl_class@@SAXQAVversionControl@@@@Z 
01:000A6FF4 ?_getFileVersionInformation@versionControl_class@@SAXQAEPB_W1PAPB_W@Z 
01:000A7078 ?_getLanguageAndCodePageKey@versionControl_class@@SAXQAEPAPB_W@Z 
01:000A710C ?_tryVerQueryValue@versionControl_class@@SAXQAEPB_WPAPAX@Z 
01:000A7158 ?_tryGetParameterName@versionControl_class@@SAXPB_WPAPB_W@Z 
01:000A720C ?_new@versionControl_class@@SAXPAPAVversionControl@@@@Z  (Idle)
01:000A7234 ?_new@versionControl_class@@SAXQAVcontainerWindow@@@PAPAVversionControl@@@@Z 
01:000A85A0 ?_initObject@timerControl@@QAGXQAV1@H@Z 
01:000A85F8 ?@create_object@timerControl_class@@SGQAVtimerControl@@@XZ 
01:000A8614 ?_InternalFinalizer@timerControl@@QAGXQAV1@@Z 
01:000A8E84 ?_initObject@button@@QAGXQAV1@H@Z 
01:000A8EC8 ?@create_object@button_class@@SGQAVbutton@@@XZ 
01:000A8EE4 ?_InternalFinalizer@button@@QAGXQAV1@@Z 
01:000A9A2C ?_initObject@realControl@@QAGXQAV1@H@Z 
01:000A9A70 ?@create_object@realControl_class@@SGQAVrealControl@@@XZ 
01:000A9A8C ?_InternalFinalizer@realControl@@QAGXQAV1@@Z 
01:000AA5D4 ?_initObject@integerControl@@QAGXQAV1@H@Z 
01:000AA618 ?@create_object@integerControl_class@@SGQAVintegerControl@@@XZ 
01:000AA634 ?_InternalFinalizer@integerControl@@QAGXQAV1@@Z 
01:000AA64C ?_initObject@radioButtonGroup@@QAGXQAV1@H@Z 
01:000AA66C ?@create_object@radioButtonGroup_class@@SGQAVradioButtonGroup@@@XZ 
01:000AA688 ?_InternalFinalizer@radioButtonGroup@@QAGXQAV1@@Z 
01:000AC428 ?_initObject@iconControl@@QAGXQAV1@H@Z 
01:000AC464 ?@create_object@iconControl_class@@SGQAViconControl@@@XZ 
01:000AC480 ?_InternalFinalizer@iconControl@@QAGXQAV1@@Z 
01:000AD4D4 ?_initObject@groupBox@@QAGXQAV1@H@Z 
01:000AD514 ?@create_object@groupBox_class@@SGQAVgroupBox@@@XZ 
01:000AD530 ?_InternalFinalizer@groupBox@@QAGXQAV1@@Z 
01:000ADD98 ?_initObject@scrollControl@@QAGXQAV1@H@Z 
01:000ADDD0 ?@create_object@scrollControl_class@@SGQAVscrollControl@@@XZ 
01:000ADDEC ?_InternalFinalizer@scrollControl@@QAGXQAV1@@Z 
01:000AF3C8 ?_initObject@listEdit@@QAGXQAV1@H@Z 
01:000AF410 ?@create_object@listEdit_class@@SGQAVlistEdit@@@XZ 
01:000AF42C ?_InternalFinalizer@listEdit@@QAGXQAV1@@Z 
01:000AFF94 ?_initObject@listButton@@QAGXQAV1@H@Z 
01:000AFFD0 ?@create_object@listButton_class@@SGQAVlistButton@@@XZ 
01:000AFFEC ?_InternalFinalizer@listButton@@QAGXQAV1@@Z 
01:000B0854 ?_initObject@listControl@@QAGXQAV1@H@Z 
01:000B0898 ?@create_object@listControl_class@@SGQAVlistControl@@@XZ 
01:000B08B4 ?_InternalFinalizer@listControl@@QAGXQAV1@@Z 
01:000B13BC ?_initObject@listBox@@QAGXQAV1@H@Z 
01:000B13F4 ?@create_object@listBox_class@@SGQAVlistBox@@@XZ 
01:000B1410 ?_InternalFinalizer@listBox@@QAGXQAV1@@Z 
01:000B1C78 ?_initObject@editControl@@QAGXQAV1@H@Z 
01:000B1CBC ?@create_object@editControl_class@@SGQAVeditControl@@@XZ 
01:000B1CD8 ?_InternalFinalizer@editControl@@QAGXQAV1@@Z 
01:000B2540 ?_initObject@checkButton@@QAGXQAV1@H@Z 
01:000B2584 ?@create_object@checkButton_class@@SGQAVcheckButton@@@XZ 
01:000B25A0 ?_InternalFinalizer@checkButton@@QAGXQAV1@@Z 
01:000B2E08 ?_initObject@radioButton@@QAGXQAV1@H@Z 
01:000B2E4C ?@create_object@radioButton_class@@SGQAVradioButton@@@XZ 
01:000B2E68 ?_InternalFinalizer@radioButton@@QAGXQAV1@@Z 
01:000B36E0 ?_initObject@textControl@@QAGXQAV1@H@Z 
01:000B3724 ?@create_object@textControl_class@@SGQAVtextControl@@@XZ 
01:000B3740 ?_InternalFinalizer@textControl@@QAGXQAV1@@Z 
01:000B6588 ?_initObject@containerControl@@QAGXQAV1@H@Z 
01:000B65E0 ?@create_object@containerControl_class@@SGQAVcontainerControl@@@XZ 
01:000B65FC ?_InternalFinalizer@containerControl@@QAGXQAV1@@Z 
01:000B6F30 ?_initObject@versionControl@@QAGXQAV1@H@Z 
01:000B6F58 ?@create_object@versionControl_class@@SGQAVversionControl@@@XZ 
01:000B6F74 ?_InternalFinalizer@versionControl@@QAGXQAV1@@Z 
--- From 'Obj\fileSystem.obj'
01:000B6F90 ?classInfo@messageFile_class@@SAXPAPB_W0@Z 
01:000B6FAC ?append@messageFile_class@@SAXQAVmessageFile@@@PB_W@Z 
01:000B6FDC ?append@messageFile_class@@SAXQAVmessageFile@@@PB_WPAUmode_struct@stream_class@@@Z 
01:000B6FFC ?flush@messageFile_class@@SGXQAVoutputStream@@@@Z 
01:000B700C ?write@messageFile_class@@SAXQAVoutputStream@@@@Z 
01:000B70A4 ?writef@messageFile_class@@SAXQAVoutputStream@@@PB_W@Z 
01:000B7140 ?writeQuoted@messageFile_class@@SAXQAVoutputStream@@@@Z 
01:000B71D8 ?nl@messageFile_class@@SGXQAVoutputStream@@@@Z 
01:000B726C ?writeBytes@messageFile_class@@SGXQAVoutputStream@@@PAXH@Z 
01:000B7308 ?save@messageFile_class@@SGXQAVoutputStream@@@PBUfactDB@@@Z 
01:000B73A0 ?setMode@messageFile_class@@SGXQAVstream@@@PAUmode_struct@stream_class@@@Z 
01:000B73B8 ?getMode@messageFile_class@@SGPAUmode_struct@stream_class@@QAVstream@@@@Z 
01:000B73D8 ?getCRLFconversion@messageFile_class@@SGPAUboolean_struct@_builtIn_class@@QAVstream@@@@Z 
01:000B73EC ?setCRLFconversion@messageFile_class@@SGXQAVstream@@@PAUboolean_struct@_builtIn_class@@@Z 
01:000B740C ?close@messageFile_class@@SGXQAVstream@@@@Z 
01:000B741C ?getPosition@messageFile_class@@SGPAUunsigned64_struct@core_class@@QAVstream@@@@Z 
01:000B742C ?setPosition@messageFile_class@@SGXQAVstream@@@PAUunsigned64_struct@core_class@@@Z 
01:000B743C ?_append@messageFile_class@@SAXPB_WPAPAVoutputStream@@@@Z  (Idle)
01:000B7468 ?_append@messageFile_class@@SAXPB_WPAUmode_struct@stream_class@@PAPAVoutputStream@@@@Z  (Idle)
01:000B7498 ?_getPath@fileName_class@@SAXPB_WPAPB_W@Z 
--- From 'Obj\exe.obj'
01:000B74B8 ?getPathAndName@fileName_class@@SAXPB_WPAPB_W1@Z 
--- From 'Obj\fileSystem.obj'
01:000B756C ?_getLastDirectory@fileName_class@@SAXPB_WPAPB_W1@Z  (Idle)
01:000B7634 ?_removeLastSlash@fileName_class@@SAXPB_WPAPB_W@Z 
01:000B76B4 ?isSlashStr@fileName_class@@SAXPB_W@Z 
01:000B76D0 ?_getName@fileName_class@@SAXPB_WPAPB_W@Z  (Idle)
01:000B7708 ?_getExtension@fileName_class@@SAXPB_WPAPB_W@Z  (Idle)
01:000B7740 ?_getExtension@fileName_class@@SAXPB_WPAPB_W1@Z  (Idle)
01:000B7790 ?_setPath@fileName_class@@SAXPB_W0PAPB_W@Z 
01:000B77C4 ?_inverseList@fileName_class@@SAXPAU?$__list_struct@Ustring@@@@0PAPAU?$__list_struct@U2@@@@Z 
01:000B781C ?_setName@fileName_class@@SAXPB_W0PAPB_W@Z  (Idle)
01:000B7878 ?_setExtension@fileName_class@@SAXPB_W0PAPB_W@Z  (Idle)
01:000B78D4 ?_reduce@fileName_class@@SAXPB_W0PAPB_W@Z 
01:000B7A20 ?_reduceToShort@fileName_class@@SAXPB_W0PAPB_W@Z  (Idle)
01:000B7A6C ?getFirstDirectory@fileName_class@@SAXPB_WPAPB_W1@Z 
01:000B7B88 ?getNetName@fileName_class@@SAXPB_W0PAPB_W2@Z 
01:000B7BFC ?_setTrailSlash@fileName_class@@SAXPB_WPAPB_W@Z 
01:000B7C90 ?_tryGetLastChar@fileName_class@@SAXPB_WPA_W@Z 
01:000B7CEC ?getSlashList@fileName_class@@SAXPB_W0HPAPAU?$__list_struct@Uunsigned@@@@@Z 
01:000B7DE4 ?getOrderedList@fileName_class@@SAXPAU?$__list_struct@Uunsigned@@@@0PAPAU?$__list_struct@U2@@@@Z 
01:000B7EE8 ?splitPathString@fileName_class@@SAXPB_WPAU?$__list_struct@Uunsigned@@@@IPAPAU?$__list_struct@Ustring@@@@PAH@Z 
01:000B7FDC ?splitOntoPathAndName@fileName_class@@SAXPB_WPAPAU?$__list_struct@Ustring@@@@PAPB_W@Z 
01:000B80CC ?splitFileName@fileName_class@@SAXPB_WPAPB_W1@Z 
01:000B8148 ?_directoryCompare@fileName_class@@SAXPAU?$__list_struct@Ustring@@@@0PAPB_W@Z 
01:000B81D4 ?_glueRest@fileName_class@@SAXPAU?$__list_struct@Ustring@@@@0PAPB_W@Z 
01:000B8228 ?splitPath@fileName_class@@SAXPB_WPAPAU?$__list_struct@Ustring@@@@PAH@Z 
01:000B82AC ?_nameConcat@fileName_class@@SAXPB_W0PAPB_W@Z 
01:000B82FC ?_createPath@fileName_class@@SAXPB_W0PAPB_W@Z 
01:000B836C ?_reducePath@fileName_class@@SAXPB_WPAPB_W@Z 
01:000B83EC ?_createPath@fileName_class@@SAX_WPB_W11PAPB_W@Z 
01:000B84AC ?_concatWithSlash@fileName_class@@SAXPB_W0PAPB_W@Z 
01:000B854C ?_getTypeOfSlash@fileName_class@@SAXPB_W0PAPB_W@Z 
01:000B85FC ?isSlash@fileName_class@@SAX_W@Z 
01:000B861C ?_checkSecondCharAfterSlash@fileName_class@@SAXPB_W00PAPB_W@Z 
01:000B86F8 ?_checkThirdCharAfterColon@fileName_class@@SAXPB_W_W00PAPB_W@Z 
01:000B87D4 ?_reducePath@fileName_class@@SAX_WPB_WPAPB_W@Z 
01:000B8804 ?_applyFileName@fileName_class@@SAXPB_WPAU?$__list_struct@Ustring@@@@PAPAU?$__list_struct@U2@@@@Z 
01:000B88F8 ?stay_dir@fileName_class@@SAXPB_W@Z 
01:000B8938 ?up_dir@fileName_class@@SAXPB_W@Z 
01:000B8980 ?_reducePath_reversed@fileName_class@@SAXPAU?$__list_struct@Ustring@@@@PAPAU?$__list_struct@U2@@@@Z 
01:000B8A74 ?_upOneDir_reversed@fileName_class@@SAXPAU?$__list_struct@Ustring@@@@PAPAU?$__list_struct@U2@@@@Z 
01:000B8BCC ?notDriveOrNetworkVolume@fileName_class@@SAXPB_W@Z 
01:000B8C8C ?_findLast@fileName_class@@SAXPB_W0PAH@Z 
01:000B8CEC ?_findDirDelimPos@fileName_class@@SAXPB_WPAH@Z 
01:000B8D3C ?up_dir@fileName_class@@SAXPAPB_W@Z 
01:000B8D50 ?classInfo@file_class@@SAXPAPB_W0@Z 
01:000B8D6C ?copy@file_class@@SAXPB_W0@Z  (Idle)
01:000B8D9C ?copy@file_class@@SAXPB_W0PAUoverwrite_struct@1@@Z 
01:000B8E14 ?move@file_class@@SAXPB_W0@Z  (Idle)
01:000B8E44 ?move@file_class@@SAXPB_W0PAUoverwrite_struct@1@@Z 
01:000B8EDC ?delete@file_class@@SAXPB_W@Z  (Idle)
01:000B8F74 ?existExactFile@file_class@@SAXPB_W@Z  (Idle)
01:000B8FB0 ?existFile@file_class@@SAXPB_W@Z  (Idle)
01:000B90C4 ?tryGetFile@file_class@@SAXPBUfileHandle@@PAX@Z 
--- From 'Obj\exceptionDump.obj'
01:000B918C ?_createUniqueName@file_class@@SAXPB_W0PAPB_W@Z 
--- From 'Obj\fileSystem.obj'
01:000B9298 ?_getPhysicalName@file_class@@SAXPB_WPAPB_W@Z  (Idle)
01:000B93D4 ?setAttributes@file_class@@SAXPB_WPAU?$__list_struct@UfileAttributeAtom@@@@PAUboolean_struct@_builtIn_class@@@Z  (Idle)
01:000B964C ?getFileProperties@file_class@@SAXPB_WPAPAU?$__list_struct@UfileAttributeAtom@@@@PAPAUunsigned64_struct@core_class@@222@Z 
01:000B97C4 ?setFileTime@file_class@@SAXPB_WPAUunsigned64_struct@core_class@@11@Z  (Idle)
01:000B99D0 ?moveToRecycleBin@file_class@@SAXPB_W@Z  (Idle)
01:000B9B48 ?_readBinary@file_class@@SAXPB_WQAPAE@Z 
01:000B9C10 ?_readFile@file_class@@SAXPBUfileHandle@@PAXHPAH@Z 
01:000B9C94 ?_readBinary@file_class@@SAXPB_WPAUunsigned64_struct@core_class@@HQAPAE@Z  (Idle)
01:000B9DE0 ?_readString@file_class@@SAXPB_WPAPB_W@Z  (Idle)
01:000B9F28 ?checkUnicodeSignature@file_class@@SAXPB_WHPAPB_WPAH@Z 
01:000B9FA0 ?_readString@file_class@@SAXPB_WPAPAUboolean_struct@_builtIn_class@@PAPB_W@Z  (Idle)
01:000BA0E8 ?_getUnicode@file_class@@SAXPAXHPAPAUboolean_struct@_builtIn_class@@2@Z 
01:000BA15C ?_isUnicode@file_class@@SAXPAXHPAPAUboolean_struct@_builtIn_class@@@Z 
01:000BA1B8 ?_getString@file_class@@SAXHPAXPAUboolean_struct@_builtIn_class@@2PAPB_W@Z 
01:000BA2C8 ?_getFileSize@file_class@@SAXPBUfileHandle@@PB_WPAH@Z 
01:000BA320 ?writeBinary@file_class@@SAXPB_WQAE@Z  (Idle)
01:000BA3CC ?writeFile@file_class@@SAXPBUfileHandle@@PAXH@Z 
01:000BA40C ?writeBinary@file_class@@SAXPB_WPAUunsigned64_struct@core_class@@QAE@Z  (Idle)
01:000BA4D4 ?writeString@file_class@@SAXPB_W0@Z 
01:000BA5CC ?appendString@file_class@@SAXPB_W0PAUboolean_struct@_builtIn_class@@@Z  (Idle)
01:000BA898 ?writeString@file_class@@SAXPB_W0PAUboolean_struct@_builtIn_class@@@Z  (Idle)
01:000BAA2C ?checkResult@file_class@@SAXIPB_W11PAUoverwrite_struct@1@@Z 
01:000BB39C ?fileExists_errorCode@file_class@@SAXI@Z 
01:000BB3B8 ?hideUnicodeSignature@file_class@@SAXQAEHPAPAXPAH@Z 
01:000BB438 ?_setDestination@file_class@@SAXPB_W0PAPB_W@Z 
01:000BB494 ?_toApiAttributes@file_class@@SAXPAU?$__list_struct@UfileAttributeAtom@@@@PAI@Z 
01:000BB4BC ?checkOnLegal@file_class@@SAXI@Z 
01:000BB4F4 ?_mixAttributes@file_class@@SAXPAUboolean_struct@_builtIn_class@@IIPAI@Z 
01:000BB540 ?checkFileHandle@file_class@@SAXPBUfileHandle@@PB_W@Z 
01:000BB584 ?closeFileHandle@file_class@@SAXPBUfileHandle@@@Z 
01:000BB5C0 ?_getStreamCheckUnicode@file_class@@SAXPB_WPAUboolean_struct@_builtIn_class@@PAPAVoutputStream@@@@Z 
01:000BB5E8 ?save@file_class@@SAXPB_WPBUfactDB@@@Z  (Idle)
01:000BB618 ?save@file_class@@SAXPB_WPBUfactDB@@PAUboolean_struct@_builtIn_class@@@Z 
01:000BB6A0 ?_checkSignature@file_class@@SAXQAVinputStream@@@PAPAUboolean_struct@_builtIn_class@@@Z 
01:000BB76C ?consult@file_class@@SAXPB_WPBUfactDB@@@Z  (Idle)
01:000BB78C ?consult@file_class@@SAXPB_WPBUfactDB@@PAPAUboolean_struct@_builtIn_class@@@Z 
01:000BB82C ?reconsult@file_class@@SAXPB_WPBUfactDB@@@Z  (Idle)
01:000BB84C ?reconsult@file_class@@SAXPB_WPBUfactDB@@PAPAUboolean_struct@_builtIn_class@@@Z 
01:000BB860 ?_trySearchFileInPath@file_class@@SAXPB_WPAPB_W@Z  (Idle)
01:000BB8B0 ?classInfo@directory_class@@SAXPAPB_W0@Z 
01:000BB8CC ?deleteDirectory@directory_class@@SAXPB_W@Z  (Idle)
01:000BB958 ?makeDirectory@directory_class@@SAXPB_W@Z 
01:000BB9EC ?makeDirectoryPath@directory_class@@SAXPB_W@Z  (Idle)
01:000BBA3C ?_checkNetPath@directory_class@@SAXPAU?$__list_struct@Ustring@@@@PAPB_WPAPAU?$__list_struct@U2@@@@Z 
01:000BBB34 ?createDirectory_list@directory_class@@SAXPAU?$__list_struct@Ustring@@@@PB_W@Z 
01:000BBC2C ?setCurrentDirectory@directory_class@@SAXPB_W@Z  (Idle)
01:000BBCD0 ?_getCurrentDirectory@directory_class@@SAXPAPB_W@Z 
01:000BBD28 ?expandShortName@directory_class@@SAXPB_W@Z 
01:000BBE44 ?moveDirectory@directory_class@@SAXPB_W0@Z  (Idle)
01:000BBF20 ?setVolumeLabel@directory_class@@SAXPB_W0@Z  (Idle)
01:000BBFFC ?existDirectory@directory_class@@SAXPB_W@Z 
01:000BC110 ?_checkLastChar@directory_class@@SAXPB_WPAPB_W@Z 
01:000BC174 ?getDirectoryProperties@directory_class@@SAXPB_WPAPAU?$__list_struct@UfileAttributeAtom@@@@PAPAUunsigned64_struct@core_class@@22@Z  (Idle)
01:000BC1A0 ?getVolumeProperties@directory_class@@SAXPB_WPAPAUvolumeType_struct@1@PAPAUunsigned64_struct@core_class@@2PAPB_WPAI@Z  (Idle)
01:000BC294 ?_tryGetLogicalDirectory@directory_class@@SAXHPAPB_W@Z  (Idle)
01:000BC2C0 ?_getLogicalDirectory@directory_class@@SAXHPAPB_W@Z  (Idle)
01:000BC2EC ?_getTemporaryDirectory@directory_class@@SAXPAPB_W@Z  (Idle)
01:000BC31C ?_tryCreateLogicalDirectory@directory_class@@SAXHPAPB_W@Z  (Idle)
01:000BC34C ?_getFilesInDirectory_nd@directory_class@@SAXPB_WPAPB_W@Z  (Idle)
01:000BC37C ?_getFilesInDirectory_nd@directory_class@@SAXPB_W0PAPB_W@Z 
01:000BC3B4 ?_getFilesInDirectory_nd@directory_class@@SAXPB_W0PAUboolean_struct@_builtIn_class@@PAPB_W@Z 
01:000BC3F4 ?_getSubDirectories_nd@directory_class@@SAXPB_WPAPB_W@Z 
01:000BC424 ?_getSubDirectories_nd@directory_class@@SAXPB_W0PAPB_W@Z 
01:000BC468 ?_getFilesInDirectoryAndSub_nd@directory_class@@SAXPB_WPAPB_W@Z  (Idle)
01:000BC498 ?_getFilesInDirectoryAndSub_nd@directory_class@@SAXPB_W0PAPB_W@Z 
01:000BC544 ?_find@directory_class@@SAXPB_W0IPAUboolean_struct@_builtIn_class@@PAPB_W@Z 
01:000BC6CC ?_addTrailSlash@directory_class@@SAXPB_WPAPB_W@Z 
01:000BC790 ?checkHiddenOrSystem@directory_class@@SAXPB_WPAUboolean_struct@_builtIn_class@@@Z 
01:000BC7A8 ?isNotHiddenOrSystem@directory_class@@SAXPB_W@Z 
01:000BC7FC ?isSlash@directory_class@@SAX_W@Z 
01:000BC81C ?findNext@directory_class@@SAXPBUfileHandle@@PAXI@Z 
01:000BC8E4 ?_findNext_nd@directory_class@@SAXPBUfileHandle@@PAXIPAPB_W@Z 
01:000BCA20 ?_createFullName@directory_class@@SAXPB_W0PAPB_W@Z 
01:000BCAD0 ?_tryLogicalDirectoryBuff@directory_class@@SAXHHPB_WPAPB_W@Z 
01:000BD130 ?_logicalDirectoryBuff@directory_class@@SAXHHPB_WPAPB_W@Z 
01:000BDAAC ?_tryLogicalDirectory@directory_class@@SAXHHPAPB_W@Z 
01:000BDAF8 ?_logicalDirectory@directory_class@@SAXHHPAPB_W@Z 
01:000BDB44 ?_addNeedCreateIfNecessary@directory_class@@SAXHHPAH@Z 
01:000BDB80 ?_convertToVolumeType@directory_class@@SAXHPAPAUvolumeType_struct@1@@Z 
01:000BDC00 ?checkResult@directory_class@@SAXHPB_WPAU?$__list_struct@UnamedValue@@@@@Z 
01:000BDC64 ?closeSearchHandle@directory_class@@SAXPBUfileHandle@@@Z 
01:000BDCA0 ?_browseForFolder@directory_class@@SAXPBUhwnd@@PB_W1PAUboolean_struct@_builtIn_class@@PAPB_W@Z  (Idle)
01:000BDD54 ?_getBrowseForFolderFlags@directory_class@@SAXPAUboolean_struct@_builtIn_class@@PAI@Z 
01:000BDD78 ?browseForFolderCallback@directory_class@@SGHPAXIII@Z 
01:000BDDB4 ?classInfo@inputStream_file_class@@SAXPAPB_W0@Z 
01:000BDDD0 ?openFile@inputStream_file_class@@SAXQAVinputStream_file@@@PB_W@Z 
01:000BDE0C ?openFile8@inputStream_file_class@@SAXQAVinputStream_file@@@PB_W@Z 
01:000BDE48 ?openFile@inputStream_file_class@@SAXQAVinputStream_file@@@PB_WPAUmode_struct@stream_class@@@Z 
01:000BDE80 ?_halfBufferSize@inputStream_file_class@@SAXQAVinputStream_file@@@PAH@Z 
01:000BDED0 ?commonPartOfConstructors@inputStream_file_class@@SAXQAVinputStream_file@@@PBUfileHandle@@PAUmode_struct@stream_class@@PAUboolean_struct@_builtIn_class@@@Z 
01:000BDF94 ?handlingMode@inputStream_file_class@@SAXQAVinputStream_file@@@PAUmode_struct@stream_class@@PAUboolean_struct@_builtIn_class@@@Z 
01:000BE098 ?openFile@inputStream_file_class@@SAXQAVinputStream_file@@@PB_WPAUmode_struct@stream_class@@PAUaccessPermit_struct@fileSystem_api_class@@@Z 
01:000BE0D8 ?openFile@inputStream_file_class@@SAXQAVinputStream_file@@@PB_WPAUmode_struct@stream_class@@PAUaccessPermit_struct@fileSystem_api_class@@H@Z 
01:000BE130 ?checkBufferSize@inputStream_file_class@@SAXH@Z 
01:000BE184 ?newHandleFile@inputStream_file_class@@SAXQAVinputStream_file@@@PBUfileHandle@@PAUmode_struct@stream_class@@@Z 
01:000BE1D4 ?newHandle@inputStream_file_class@@SAXQAVinputStream_file@@@PBUfileHandle@@PAUmode_struct@stream_class@@@Z 
01:000BE20C ?checkUnicodeSignature@inputStream_file_class@@SAXQAVinputStream_file@@@PAUboolean_struct@_builtIn_class@@@Z 
01:000BE2A8 ?getPosition@inputStream_file_class@@SGPAUunsigned64_struct@core_class@@QAVstream@@@@Z 
01:000BE364 ?_handlingFileMode@inputStream_file_class@@SAXQAVinputStream_file@@@PAUmode_struct@stream_class@@HHPAH@Z 
01:000BE464 ?_handleTextMode@inputStream_file_class@@SAXQAVinputStream_file@@@PAUmode_struct@stream_class@@HIPAH@Z 
01:000BE65C ?_getPassedConv@inputStream_file_class@@SAXPAU?$__list_struct@Uunsigned@@@@IIHPAI@Z 
01:000BE70C ?setPosition@inputStream_file_class@@SGXQAVstream@@@PAUunsigned64_struct@core_class@@@Z 
01:000BE848 ?_checkMovingIsInsideBuffer@inputStream_file_class@@SAXQAVinputStream_file@@@PAUunsigned64_struct@core_class@@1HHPAH@Z 
01:000BEA30 ?_handlingSetPosition@inputStream_file_class@@SAXQAVinputStream_file@@@PAUunsigned64_struct@core_class@@PAPAU34@@Z 
01:000BEAAC ?checkOddness@inputStream_file_class@@SAXQAVinputStream_file@@@PAUunsigned64_struct@core_class@@@Z 
01:000BEAF8 ?endOfStream@inputStream_file_class@@SAXQAVinputStream@@@@Z 
01:000BEB70 ?isEndOfFile@inputStream_file_class@@SAXQAVinputStream_file@@@II@Z 
01:000BEBE8 ?isEndOfFile_WithCurPos@inputStream_file_class@@SAXPAUunsigned64_struct@core_class@@II@Z 
01:000BEC30 ?close@inputStream_file_class@@SGXQAVstream@@@@Z 
01:000BEC6C ?getCRLFconversion@inputStream_file_class@@SGPAUboolean_struct@_builtIn_class@@QAVstream@@@@Z 
01:000BECD8 ?setCRLFconversion@inputStream_file_class@@SGXQAVstream@@@PAUboolean_struct@_builtIn_class@@@Z 
01:000BEDF0 ?setMode@inputStream_file_class@@SGXQAVinputSupport@@@PAUmode_struct@stream_class@@@Z 
01:000BEEA4 ?_checkModeAndPos@inputStream_file_class@@SAXQAVinputStream_file@@@PAUmode_struct@stream_class@@PAUunsigned64_struct@core_class@@PAPAU56@@Z 
01:000BEFD4 ?exTextBufferCB@inputStream_file_class@@SAXQAVinputStream_file@@@PAPAXPAH@Z 
01:000BF03C ?exTextLockBufferCB@inputStream_file_class@@SAXQAVinputStream_file@@@PAPAXPAH@Z 
01:000BF0B4 ?_fillBuffer@inputStream_file_class@@SAXQAVinputStream_file@@@PAUmode_struct@stream_class@@PAH@Z 
01:000BF1A8 ?_convertToUnicode@inputStream_file_class@@SAXQAVinputStream_file@@@HPAUcodepage_struct@core_class@@PAXPAH@Z 
01:000BF210 ?convertCRLFtoLF_ifNeeded@inputStream_file_class@@SAXQAVinputStream_file@@@PAUmode_struct@stream_class@@HPAPAXPAH@Z 
01:000BF32C ?handlingBufferLastChar@inputStream_file_class@@SAXQAVinputStream_file@@@HPAPAXPAH@Z 
01:000BF38C ?readFromFile@inputStream_file_class@@SGHQAVinputStream_file@@@PAXH@Z 
01:000BF3D8 ?getBuffer@inputStream_file_class@@SGXQAVbufferSupport@@@PAPAXPAH@Z 
01:000BF3FC ?getBufferLocked@inputStream_file_class@@SGXQAVbufferSupport@@@PAPAXPAH@Z 
01:000BF420 ?_openFile@inputStream_file_class@@SAXPB_WPAPAVinputStream@@@@Z  (Idle)
01:000BF44C ?_openFile8@inputStream_file_class@@SAXPB_WPAPAVinputStream@@@@Z  (Idle)
01:000BF478 ?_openFile@inputStream_file_class@@SAXPB_WPAUmode_struct@stream_class@@PAPAVinputStream@@@@Z 
01:000BF4A8 ?_openFile@inputStream_file_class@@SAXPB_WPAUmode_struct@stream_class@@PAUaccessPermit_struct@fileSystem_api_class@@PAPAVinputStream@@@@Z 
01:000BF4D8 ?_openFile@inputStream_file_class@@SAXPB_WPAUmode_struct@stream_class@@PAUaccessPermit_struct@fileSystem_api_class@@HPAPAVinputStream@@@@Z  (Idle)
01:000BF50C ?_newHandleFile@inputStream_file_class@@SAXPBUfileHandle@@PAUmode_struct@stream_class@@PAPAVinputStream@@@@Z  (Idle)
01:000BF53C ?_newHandle@inputStream_file_class@@SAXPBUfileHandle@@PAUmode_struct@stream_class@@PAPAVinputStream@@@@Z  (Idle)
01:000BF56C ?_commonPartOfConstructors@inputStream_file_class@@SAXPBUfileHandle@@PAUmode_struct@stream_class@@PAUboolean_struct@_builtIn_class@@PAPAVinputStream@@@@Z  (Idle)
01:000BF59C ?_object_facts_initializer@inputStream_file_class@@SGXQAVinputStream_file@@@@Z 
01:000BF5CC ?classInfo@outputStream_file_class@@SAXPAPB_W0@Z 
01:000BF5E8 ?create@outputStream_file_class@@SAXQAVoutputStream_file@@@PB_W@Z 
01:000BF630 ?create8@outputStream_file_class@@SAXQAVoutputStream_file@@@PB_W@Z 
01:000BF678 ?create@outputStream_file_class@@SAXQAVoutputStream_file@@@PB_WPAUmode_struct@stream_class@@@Z 
01:000BF6BC ?create@outputStream_file_class@@SAXQAVoutputStream_file@@@PB_WPAUmode_struct@stream_class@@PAUaccessPermit_struct@fileSystem_api_class@@@Z 
01:000BF6FC ?create@outputStream_file_class@@SAXQAVoutputStream_file@@@PB_WPAUmode_struct@stream_class@@PAUaccessPermit_struct@fileSystem_api_class@@PAU?$__list_struct@UfileAttributeAtom@@@@@Z 
01:000BF744 ?commonPartOfConstructors@outputStream_file_class@@SAXQAVoutputStream_file@@@PBUfileHandle@@PAUmode_struct@stream_class@@@Z 
01:000BF7C4 ?handleMode_create@outputStream_file_class@@SAXQAVoutputStream_file@@@PAUmode_struct@stream_class@@@Z 
01:000BF82C ?openFile@outputStream_file_class@@SAXQAVoutputStream_file@@@PB_W@Z 
01:000BF868 ?openFile8@outputStream_file_class@@SAXQAVoutputStream_file@@@PB_W@Z 
01:000BF8A4 ?openFile@outputStream_file_class@@SAXQAVoutputStream_file@@@PB_WPAUmode_struct@stream_class@@@Z 
01:000BF8DC ?openFile@outputStream_file_class@@SAXQAVoutputStream_file@@@PB_WPAUmode_struct@stream_class@@PAUaccessPermit_struct@fileSystem_api_class@@@Z 
01:000BF940 ?append@outputStream_file_class@@SAXQAVoutputStream_file@@@PB_W@Z 
01:000BF970 ?append8@outputStream_file_class@@SAXQAVoutputStream_file@@@PB_W@Z 
01:000BF9A0 ?append@outputStream_file_class@@SAXQAVoutputStream_file@@@PB_WPAUmode_struct@stream_class@@@Z 
01:000BFA1C ?newHandleFile@outputStream_file_class@@SAXQAVoutputStream_file@@@PBUfileHandle@@PAUmode_struct@stream_class@@@Z 
01:000BFA68 ?newHandle@outputStream_file_class@@SAXQAVoutputStream_file@@@PBUfileHandle@@PAUmode_struct@stream_class@@@Z 
01:000BFA74 ?checkUnicodeSignature@outputStream_file_class@@SAXQAVoutputStream_file@@@PAUmode_struct@stream_class@@PAUboolean_struct@_builtIn_class@@@Z 
01:000BFB0C ?checkSign@outputStream_file_class@@SAXQAVoutputStream_file@@@HPAUcharPtr_struct@1@PAUboolean_struct@_builtIn_class@@@Z 
01:000BFC68 ?getCRLFconversion@outputStream_file_class@@SGPAUboolean_struct@_builtIn_class@@QAVstream@@@@Z 
01:000BFCA0 ?setCRLFconversion@outputStream_file_class@@SGXQAVstream@@@PAUboolean_struct@_builtIn_class@@@Z 
01:000BFD0C ?getPosition@outputStream_file_class@@SGPAUunsigned64_struct@core_class@@QAVstream@@@@Z 
01:000BFDEC ?_handlingGetPosition@outputStream_file_class@@SAXQAVoutputStream_file@@@PAUunsigned64_struct@core_class@@PAPAU34@@Z 
01:000BFE58 ?setPosition@outputStream_file_class@@SGXQAVstream@@@PAUunsigned64_struct@core_class@@@Z 
01:000BFF38 ?_checkMovingIsInsideBuffer@outputStream_file_class@@SAXQAVoutputStream_file@@@PAUunsigned64_struct@core_class@@1HPAH@Z 
01:000C00BC ?setMaxOffsetUsedInCurrentBuffer@outputStream_file_class@@SAXQAVoutputStream_file@@@H@Z 
01:000C00E4 ?_handlingSetPosition@outputStream_file_class@@SAXQAVoutputStream_file@@@PAUunsigned64_struct@core_class@@PAPAU34@@Z 
01:000C015C ?checkOddness@outputStream_file_class@@SAXPAUunsigned64_struct@core_class@@@Z 
01:000C01A8 ?close@outputStream_file_class@@SGXQAVstream@@@@Z 
01:000C01EC ?flush@outputStream_file_class@@SGXQAVoutputStream@@@@Z 
01:000C0230 ?bufferFullCallBack@outputStream_file_class@@SAXQAVoutputStream_file@@@HPAPAXPAH@Z 
01:000C030C ?convertLFtoCRLF_IfNeeded@outputStream_file_class@@SAXQAVoutputStream_file@@@PAXHPAPAXPAH@Z 
01:000C0380 ?convertToANSI_IfNeeded@outputStream_file_class@@SAXQAVoutputStream_file@@@PAXHPAPAXPAH@Z 
01:000C0458 ?getBuffer@outputStream_file_class@@SGXQAVbufferSupport@@@PAPAXPAH@Z 
01:000C04C4 ?getBufferLocked@outputStream_file_class@@SGXQAVbufferSupport@@@PAPAXPAH@Z 
--- From 'Obj\exceptionDump.obj'
01:000C04E0 ?_create@outputStream_file_class@@SAXPB_WPAPAVoutputStream@@@@Z 
--- From 'Obj\fileSystem.obj'
01:000C050C ?_create8@outputStream_file_class@@SAXPB_WPAPAVoutputStream@@@@Z 
01:000C0538 ?_create@outputStream_file_class@@SAXPB_WPAUmode_struct@stream_class@@PAPAVoutputStream@@@@Z  (Idle)
01:000C0568 ?_create@outputStream_file_class@@SAXPB_WPAUmode_struct@stream_class@@PAUaccessPermit_struct@fileSystem_api_class@@PAPAVoutputStream@@@@Z 
01:000C0598 ?_create@outputStream_file_class@@SAXPB_WPAUmode_struct@stream_class@@PAUaccessPermit_struct@fileSystem_api_class@@PAU?$__list_struct@UfileAttributeAtom@@@@PAPAVoutputStream@@@@Z  (Idle)
01:000C05CC ?_openFile@outputStream_file_class@@SAXPB_WPAPAVoutputStream@@@@Z  (Idle)
01:000C05F8 ?_openFile8@outputStream_file_class@@SAXPB_WPAPAVoutputStream@@@@Z  (Idle)
01:000C0624 ?_openFile@outputStream_file_class@@SAXPB_WPAUmode_struct@stream_class@@PAPAVoutputStream@@@@Z  (Idle)
01:000C0654 ?_openFile@outputStream_file_class@@SAXPB_WPAUmode_struct@stream_class@@PAUaccessPermit_struct@fileSystem_api_class@@PAPAVoutputStream@@@@Z  (Idle)
01:000C0684 ?_append@outputStream_file_class@@SAXPB_WPAPAVoutputStream@@@@Z 
01:000C06B0 ?_append8@outputStream_file_class@@SAXPB_WPAPAVoutputStream@@@@Z  (Idle)
01:000C06DC ?_append@outputStream_file_class@@SAXPB_WPAUmode_struct@stream_class@@PAPAVoutputStream@@@@Z 
01:000C070C ?_newHandleFile@outputStream_file_class@@SAXPBUfileHandle@@PAUmode_struct@stream_class@@PAPAVoutputStream@@@@Z  (Idle)
01:000C073C ?_newHandle@outputStream_file_class@@SAXPBUfileHandle@@PAUmode_struct@stream_class@@PAPAVoutputStream@@@@Z  (Idle)
01:000C076C ?_commonPartOfConstructors@outputStream_file_class@@SAXPBUfileHandle@@PAUmode_struct@stream_class@@PAPAVoutputStream@@@@Z  (Idle)
01:000C079C ?_object_facts_initializer@outputStream_file_class@@SGXQAVoutputStream_file@@@@Z 
01:000C07D4 ?classInfo@fileSystem_exception_class@@SAXPAPB_W0@Z 
01:000C07F0 ?raise_FileAlreadyExists@fileSystem_exception_class@@SGXXPB_W@Z 
01:000C0864 ?raise_WrongAttribute@fileSystem_exception_class@@SGXXI@Z 
01:000C08D8 ?raise_FileTooBig@fileSystem_exception_class@@SGXXPB_W@Z 
01:000C094C ?fileAlreadyExists@fileSystem_exception_class@@SAXPAXPAPB_W1@Z 
01:000C0974 ?wrongAttribute@fileSystem_exception_class@@SAXPAXPAPB_W1@Z 
01:000C099C ?fileTooBig@fileSystem_exception_class@@SAXPAXPAPB_W1@Z 
01:000C09C4 ?checkFileReadResult@fileSystem_exception_class@@SAXXH@Z 
01:000C0A68 ?classInfo@fileVersion_class@@SAXPAPB_W0@Z 
01:000C0A84 ?_tryVerQueryValue@fileVersion_class@@SAXQAEPB_WPAPAX@Z 
01:000C0AD0 ?_getFileVersionInformation@fileVersion_class@@SAXQAEPB_W1PAPB_W@Z 
01:000C0B54 ?_loadVersionInfo@fileVersion_class@@SAXPB_WQAPAE@Z 
01:000C0C4C ?_getLanguageAndCodePageKey@fileVersion_class@@SAXQAEPAPB_W@Z 
01:000C0CE0 ?_getVersionInfo@fileVersion_class@@SAXPB_WPAPAUversionInformation_struct@1@@Z  (Idle)
01:000C0DBC ?_getVersionBuildTime@fileVersion_class@@SAXPB_WPAPB_W@Z  (Idle)
01:000C0E18 ?_getProductVersion@fileVersion_class@@SAXPB_WPAPAUunsigned64_struct@core_class@@@Z  (Idle)
01:000C0E78 ?_getRootKey@fileVersion_class@@SAXQAEPAPAUvs_fixedfileinfo_struct@1@@Z 
01:000C0EC8 ?_getFileVersionInfo@fileVersion_class@@SAXPB_WPAPAUfileVersionInformation_struct@1@@Z  (Idle)
01:000C0F88 ?_initObject@messageFile@@QAGXQAV1@H@Z 
01:000C0F9C ?@create_object@messageFile_class@@SGQAVmessageFile@@@XZ 
01:000C0FB8 ?_InternalFinalizer@messageFile@@QAGXQAV1@@Z 
01:000C1224 ?_initObject@inputStream_file@@QAGXQAV1@H@Z 
01:000C125C ?@create_object@inputStream_file_class@@SGQAVinputStream_file@@@XZ 
01:000C1278 ?_InternalFinalizer@inputStream_file@@QAGXQAV1@@Z 
01:000C1430 ?_initObject@outputStream_file@@QAGXQAV1@H@Z 
01:000C1468 ?@create_object@outputStream_file_class@@SGQAVoutputStream_file@@@XZ 
01:000C1484 ?_InternalFinalizer@outputStream_file@@QAGXQAV1@@Z 
--- From 'Obj\exceptionDump.obj'
01:000C14A0 ?classInfo@exceptionDump_class@@SAXPAPB_W0@Z  (Idle)
01:000C14BC ?dump@exceptionDump_class@@SAXQAVoutputStream@@@PBUtraceId@exception@@@Z 
--- From 'Obj\exe.obj'
01:000C1520 ?dumpToStdOutput@exceptionDump_class@@SAXPBUtraceId@exception@@@Z 
--- From 'Obj\exceptionDump.obj'
01:000C1574 ?dumpToStdOutputInTrap@exceptionDump_class@@SAXPBUtraceId@@@Z 
01:000C161C ?processErrorOnDumpToStdOut@exceptionDump_class@@SAXPBUtraceID@@@Z 
01:000C1694 ?processErrorOnDumpToStdOutTrapped@exceptionDump_class@@SAXPBUtraceID@@@Z 
01:000C16E0 ?_formatTraceInfo@exceptionDump_class@@SAXPAUtraceInfo_struct@exception_class@@PAPB_W@Z  (Idle)
01:000C178C ?_formatDescriptorList@exceptionDump_class@@SAXPAU?$__list_struct@Udescriptor@exception@@@@PAPB_W@Z  (Idle)
01:000C17E4 ?_formatDescriptor@exceptionDump_class@@SAXPAUdescriptor_struct@exception_class@@PAPB_W@Z  (Idle)
01:000C186C ?_formatExtraInfo@exceptionDump_class@@SAXPAU?$__list_struct@UnamedValue@@@@PAPB_W@Z  (Idle)
01:000C18C4 ?_value2String@exceptionDump_class@@SAXPAUvalue_struct@core_class@@PAPB_W@Z 
01:000C1AB4 ?_fillUsrMsgTags@exceptionDump_class@@SAXPB_WPAU?$__list_struct@UnamedValue@@@@PAPB_W@Z 
01:000C1B90 ?_substituteTag@exceptionDump_class@@SAXPB_WPAU?$__list_struct@UnamedValue@@@@PAPB_W@Z 
01:000C1BE0 ?getUserMsgFromNV_dt@exceptionDump_class@@SAXPAU?$__list_struct@UnamedValue@@@@PAPB_W@Z 
01:000C1C88 ?getUserMsg_dt@exceptionDump_class@@SAXPAUdescriptor_struct@exception_class@@PAPB_W@Z 
01:000C1CA4 ?_getUserMsg@exceptionDump_class@@SAXPAU?$__list_struct@Udescriptor@exception@@@@PAPB_W@Z 
01:000C1D54 ?_tryGetUserMessage@exceptionDump_class@@SAXPBUtraceId@exception@@PAPB_W@Z  (Idle)
01:000C1DC0 ?_tryGetUserMessageFromDescriptorList@exceptionDump_class@@SAXPAU?$__list_struct@Udescriptor@exception@@@@PAPB_W@Z 
01:000C1DEC ?writeTraceInfo@exceptionDump_class@@SAXQAVoutputStream@@@PAUtraceInfo_struct@exception_class@@@Z 
01:000C1E38 ?writeDescriptor_list@exceptionDump_class@@SAXQAVoutputStream@@@PAU?$__list_struct@Udescriptor@@@@@Z 
01:000C1EAC ?writeErrorDescriptorInformation@exceptionDump_class@@SAXQAVoutputStream@@@PAUclassInfoDescriptor_struct@exception_class@@PAUexceptionDescriptor_struct@4@PAUkind_struct@4@PAU?$__list_struct@UnamedValue@@@@PAUunsigned64_struct@core_class@@I@Z 
01:000C218C ?section@exceptionDump_class@@SAXQAVoutputStream@@@PB_W@Z 
01:000C21D4 ?writeOSInformation@exceptionDump_class@@SAXQAVoutputStream@@@PB_W@Z 
01:000C224C ?writeLineInfo_list@exceptionDump_class@@SAXQAVoutputStream@@@PAU?$__list_struct@UlineInfo@@@@@Z 
01:000C2290 ?writeLineInfo@exceptionDump_class@@SAXQAVoutputStream@@@PAUlineInfo_struct@exception_class@@@Z 
01:000C2328 ?writeException@exceptionDump_class@@SAXQAVoutputStream@@@PAUexceptionDescriptor_struct@exception_class@@@Z 
01:000C238C ?writeExtraInfo@exceptionDump_class@@SAXQAVoutputStream@@@PAU?$__list_struct@UnamedValue@@@@@Z 
01:000C2408 ?writeClassInfo@exceptionDump_class@@SAXQAVoutputStream@@@PB_W1@Z 
01:000C244C ?writePosition@exceptionDump_class@@SAXQAVoutputStream@@@IPB_W@Z 
01:000C2490 ?_formatDateTime@exceptionDump_class@@SAXPAUunsigned64_struct@core_class@@PAPB_W@Z 
01:000C251C ?writeCurrentDateTime@exceptionDump_class@@SAXQAVoutputStream@@@@Z 
01:000C2574 ?writeNamedValue@exceptionDump_class@@SAXQAVoutputStream@@@PAUnamedValue_struct@core_class@@@Z 
01:000C2630 ?writeValue_or_NULL@exceptionDump_class@@SAXQAVoutputStream@@@PB_W@Z 
01:000C26B0 ?writeValue@exceptionDump_class@@SAXQAVoutputStream@@@PAUvalue_struct@core_class@@@Z 
01:000C29A0 ?writeValue_or_NULL@exceptionDump_class@@SAXQAVoutputStream@@@PAD@Z 
01:000C2A20 ?writeValue_or_NULL@exceptionDump_class@@SAXQAVoutputStream@@@QAE@Z 
01:000C2AA0 ?writeValue_or_NULL@exceptionDump_class@@SAXQAVoutputStream@@@QAVobject@@@@Z 
--- From 'Obj\exception.obj'
01:000C2B20 ?classInfo@exception_class@@SAXPAPB_W0@Z 
01:000C2B3C ?unknownClassInfo@exception_class@@SAXPAPB_W0@Z  (Idle)
01:000C2B58 ?equals@exception_class@@SAXXPAUexceptionDescriptor_struct@1@@Z 
01:000C2BEC ?_tryGetDescriptor@exception_class@@SAXPBUtraceId@@XPAPAUdescriptor_struct@1@@Z 
01:000C2CFC $findException$exception$predicate$(i,i)$_c19 
01:000C2D60 ?_getDescriptor_nd@exception_class@@SAXPBUtraceId@@PAPAUdescriptor_struct@1@@Z 
01:000C2D88 ?_getDescriptorChain_nd@exception_class@@SAXQAVerrorDescriptorInformation@@@PAPAUdescriptor_struct@1@@Z 
01:000C2DF8 ?_getDescriptorChain1_nd@exception_class@@SAXQAVerrorDescriptorInformation@@@PAPAUdescriptor_struct@1@@Z 
01:000C2F30 ?_getDescriptorChainFromPacked_nd@exception_class@@SAXPAU?$__list_struct@UnamedValue@@@@PAPAUdescriptor_struct@1@@Z 
01:000C2FE4 ?_getTraceInfo@exception_class@@SAXPBUtraceId@@PAPAUtraceInfo_struct@1@@Z 
01:000C30DC ?_getStackInfo_nd@exception_class@@SAXQAVtrapInformationObject@@@PAPAUlineInfo_struct@1@@Z 
01:000C31E8 ?_getModuleHandleByAddress@exception_class@@SAXPAXAAUhModule@@@Z 
01:000C3240 ?_getModuleNameByAddress@exception_class@@SAXPAXPAPB_W@Z 
01:000C32A0 ?_tryGetLineInfo@exception_class@@SAXPAXPAPAUlineInfo_struct@1@@Z 
01:000C3360 ?_tryGetExtraInfo@exception_class@@SAXPAUdescriptor_struct@1@PB_WPAPAUvalue_struct@core_class@@@Z 
01:000C337C ?_searchInfoList@exception_class@@SAXPAU?$__list_struct@UnamedValue@@@@PB_WPAPAUvalue_struct@core_class@@@Z 
01:000C33E8 ?getExceptionInformation@exception_class@@SAXPAUexceptionDescriptor_struct@1@PAPAUclassInfoDescriptor_struct@1@PAPB_W2@Z 
01:000C343C ?clear_fail@exception_class@@SAXPBUtraceId@@@Z  (Idle)
01:000C3448 ?clear@exception_class@@SAXPBUtraceId@@@Z  (Idle)
01:000C3450 ?raise@exception_class@@SAXXX@Z 
--- From 'Obj\binary.obj'
01:000C3480 ?raise@exception_class@@SAXXXPAU?$__list_struct@UnamedValue@@@@@Z 
--- From 'Obj\exception.obj'
01:000C34BC ?continue@exception_class@@SAXPBUtraceId@@XX@Z  (Idle)
01:000C34F4 ?continue@exception_class@@SAXPBUtraceId@@XXPAU?$__list_struct@UnamedValue@@@@@Z 
01:000C351C ?continue1@exception_class@@SAXQAVtrapInformationObject@@@XXPAU?$__list_struct@UnamedValue@@@@@Z 
01:000C3638 ?_getTraceID@exception_class@@SAXPAXAAUtraceId@@@Z  (Idle)
01:000C3648 ?_getErrorCode@exception_class@@SAXPBUtraceId@@PAI@Z 
01:000C3690 ?_tryGetErrorDescriptorInformation@exception_class@@SAXPBUtraceId@@PAPAVerrorDescriptorInformation@@@@Z 
01:000C36B8 ?_tryGetErrorDescriptorInformation1@exception_class@@SAXQAVtrapInformationObject@@@PAPAVerrorDescriptorInformation@@@@Z 
01:000C36E8 ?_getTrapInformationObject@exception_class@@SAXPBUtraceId@@PAPAVtrapInformationObject@@@@Z 
01:000C37CC ?_tryGetTrapInformationObject@exception_class@@SAXPBUtraceId@@PAPAVtrapInformationObject@@@@Z 
01:000C387C ?classInfo@common_exception_class@@SAXPAPB_W0@Z 
01:000C3898 ?internal@common_exception_class@@SAXPAXPAPB_W1@Z 
01:000C38C0 ?couldNotCreate@common_exception_class@@SAXPAXPAPB_W1@Z 
01:000C38E8 ?removeListener@common_exception_class@@SAXPAXPAPB_W1@Z 
01:000C3910 ?exceptionInListener@common_exception_class@@SAXPAXPAPB_W1@Z 
01:000C3938 ?nativeCallException@common_exception_class@@SAXPAXPAPB_W1@Z 
01:000C3960 ?unsupportedPredicate@common_exception_class@@SAXPAXPAPB_W1@Z 
01:000C3988 ?unknown@common_exception_class@@SAXPAXPAPB_W1@Z 
01:000C39B0 ?overloadingExpected@common_exception_class@@SAXPAXPAPB_W1@Z 
--- From 'Obj\binary.obj'
01:000C39D8 ?raise_error@common_exception_class@@SAXXPB_W@Z 
--- From 'Obj\exception.obj'
01:000C3AA4 ?raise_user@common_exception_class@@SAXXPB_W1@Z  (Idle)
01:000C3ADC ?raise_user@common_exception_class@@SAXXPB_W1PAU?$__list_struct@UnamedValue@@@@@Z 
01:000C3B1C ?raise_user@common_exception_class@@SAXXXPB_W2PAU?$__list_struct@UnamedValue@@@@@Z 
01:000C3BD0 ?raise_definiteUser@common_exception_class@@SAXXPB_W1@Z  (Idle)
01:000C3C08 ?raise_definiteUser@common_exception_class@@SAXXPB_W1PAU?$__list_struct@UnamedValue@@@@@Z 
01:000C3C48 ?raise_definiteUser@common_exception_class@@SAXXXPB_W2PAU?$__list_struct@UnamedValue@@@@@Z 
01:000C3D14 ?raise_packed@common_exception_class@@SAXPAUtraceInfo_struct@3@XPB_W@Z  (Idle)
01:000C3E48 ?raise_errorf@common_exception_class@@SAXXPB_W1@Z  (Idle)
01:000C3F4C ?raise_CouldNotCreate@common_exception_class@@SAXXPB_WPAU?$__list_struct@UnamedValue@@@@@Z  (Idle)
01:000C3FB8 ?raise_RemoveListener@common_exception_class@@SAXXPB_W@Z 
--- From 'Obj\console.obj'
01:000C4038 ?raise_NativeCallException@common_exception_class@@SAXXPB_WPAU?$__list_struct@UnamedValue@@@@@Z 
--- From 'Obj\exception.obj'
01:000C4044 ?raise_NativeCallExceptionPosition@common_exception_class@@SAXXPB_WPAU?$__list_struct@UnamedValue@@@@@Z 
--- From 'Obj\exe.obj'
01:000C4164 ?raise_NativeCallExceptionPosition@common_exception_class@@SAXXPB_WI1PAU?$__list_struct@UnamedValue@@@@@Z 
--- From 'Obj\exception.obj'
01:000C4270 ?raise_UnsupportedPredicate@common_exception_class@@SAXXPB_W@Z 
01:000C42F0 ?raise_OverloadingExpected@common_exception_class@@SAXX@Z 
01:000C4324 ?continue_ExceptionInListener@common_exception_class@@SAXPBUtraceId@exception@@XPB_W@Z  (Idle)
--- From 'Obj\console.obj'
01:000C43AC ?continue_Unknown@common_exception_class@@SAXPBUtraceId@exception@@XPB_W@Z 
--- From 'Obj\exception.obj'
01:000C4478 ?continue_User@common_exception_class@@SAXPBUtraceId@exception@@XPB_W2@Z  (Idle)
01:000C44B8 ?continue_User@common_exception_class@@SAXPBUtraceId@exception@@XPB_W2PAU?$__list_struct@UnamedValue@@@@@Z 
01:000C4504 ?continue_User@common_exception_class@@SAXPBUtraceId@exception@@XXPB_W3PAU?$__list_struct@UnamedValue@@@@@Z 
01:000C45B8 ?continue_definiteUser@common_exception_class@@SAXPBUtraceId@exception@@XPB_W2@Z  (Idle)
01:000C45F8 ?continue_definiteUser@common_exception_class@@SAXPBUtraceId@exception@@XPB_W2PAU?$__list_struct@UnamedValue@@@@@Z 
01:000C4644 ?continue_definiteUser@common_exception_class@@SAXPBUtraceId@exception@@XXPB_W3PAU?$__list_struct@UnamedValue@@@@@Z 
01:000C4710 ?isDefiniteUserError@common_exception_class@@SAXPBUtraceId@exception@@@Z  (Idle)
--- From 'Obj\exe.obj'
01:000C474C ?checkNonZeroResult@common_exception_class@@SAXXHPB_W@Z 
--- From 'Obj\exception.obj'
01:000C4784 ?checkNonZeroResult@common_exception_class@@SAXXHPB_WPAU?$__list_struct@UnamedValue@@@@@Z 
01:000C47E4 ?checkNoApiException@common_exception_class@@SAXXIPB_W@Z  (Idle)
01:000C481C ?checkNoApiException@common_exception_class@@SAXXIPB_WPAU?$__list_struct@UnamedValue@@@@@Z 
01:000C4878 ?checkNoApiException@common_exception_class@@SAXXIPB_W2PAU?$__list_struct@UnamedValue@@@@@Z 
--- From 'Obj\exe.obj'
01:000C48B4 ?getLastError@common_exception_class@@SAXPAIPAPB_W@Z 
--- From 'Obj\exception.obj'
01:000C4908 ?_getLastErrorDescription@common_exception_class@@SAXIPAPB_W@Z 
01:000C494C ?classInfo@runtime_exception_class@@SAXPAPB_W0@Z 
01:000C4968 ?internalError@runtime_exception_class@@SAXPAXPAPB_W1@Z 
01:000C4990 ?exceptionUnderException@runtime_exception_class@@SAXPAXPAPB_W1@Z 
01:000C49B8 ?fromString@runtime_exception_class@@SAXPAXPAPB_W1@Z 
01:000C49E0 ?fromBinary@runtime_exception_class@@SAXPAXPAPB_W1@Z 
01:000C4A08 ?mismatchVersion@runtime_exception_class@@SAXPAXPAPB_W1@Z 
01:000C4A30 ?ctrlC@runtime_exception_class@@SAXPAXPAPB_W1@Z 
01:000C4A58 ?ctrlBreak@runtime_exception_class@@SAXPAXPAPB_W1@Z 
01:000C4A80 ?closeApplication@runtime_exception_class@@SAXPAXPAPB_W1@Z 
01:000C4AA8 ?logOff@runtime_exception_class@@SAXPAXPAPB_W1@Z 
01:000C4AD0 ?shutDown@runtime_exception_class@@SAXPAXPAPB_W1@Z 
01:000C4AF8 ?expectedSymbolFromToTerm@runtime_exception_class@@SAXPAXPAPB_W1@Z 
01:000C4B20 ?wrongNumberArgumentForFormat@runtime_exception_class@@SAXPAXPAPB_W1@Z 
01:000C4B48 ?notSupport64bits@runtime_exception_class@@SAXPAXPAPB_W1@Z 
01:000C4B70 ?objectConversion@runtime_exception_class@@SAXPAXPAPB_W1@Z 
01:000C4B98 ?invalidFormat@runtime_exception_class@@SAXPAXPAPB_W1@Z 
01:000C4BC0 ?invalidTerm@runtime_exception_class@@SAXPAXPAPB_W1@Z 
01:000C4BE8 ?integerExpected@runtime_exception_class@@SAXPAXPAPB_W1@Z 
01:000C4C10 ?arithmeticOverflow@runtime_exception_class@@SAXPAXPAPB_W1@Z 
01:000C4C38 ?noRangeNumber@runtime_exception_class@@SAXPAXPAPB_W1@Z 
01:000C4C60 ?functorNotFound@runtime_exception_class@@SAXPAXPAPB_W1@Z 
01:000C4C88 ?functorNameExpected@runtime_exception_class@@SAXPAXPAPB_W1@Z 
01:000C4CB0 ?cyclicInheritance@runtime_exception_class@@SAXPAXPAPB_W1@Z 
01:000C4CD8 ?parserUnexpectedEOS@runtime_exception_class@@SAXPAXPAPB_W1@Z 
01:000C4D00 ?determFact@runtime_exception_class@@SAXPAXPAPB_W1@Z 
01:000C4D28 ?realOverflow@runtime_exception_class@@SAXPAXPAPB_W1@Z 
01:000C4D50 ?negZero@runtime_exception_class@@SAXPAXPAPB_W1@Z 
01:000C4D78 ?unGetChar@runtime_exception_class@@SAXPAXPAPB_W1@Z 
01:000C4DA0 ?vip6runInternalError@runtime_exception_class@@SAXPAXPAPB_W1@Z 
01:000C4DC8 ?notSupportFunction@runtime_exception_class@@SAXPAXPAPB_W1@Z 
01:000C4DF0 ?unsupportedFormat@runtime_exception_class@@SAXPAXPAPB_W1@Z 
01:000C4E18 ?invalidTermRepresentation@runtime_exception_class@@SAXPAXPAPB_W1@Z 
01:000C4E40 ?consult_WrongComment@runtime_exception_class@@SAXPAXPAPB_W1@Z 
01:000C4E68 ?consult_WrongUsageOfKeyword@runtime_exception_class@@SAXPAXPAPB_W1@Z 
01:000C4E90 ?retractSingleFact@runtime_exception_class@@SAXPAXPAPB_W1@Z 
01:000C4EB8 ?expectedChar@runtime_exception_class@@SAXPAXPAPB_W1@Z 
01:000C4EE0 ?threadCreation@runtime_exception_class@@SAXPAXPAPB_W1@Z 
01:000C4F08 ?systemException@runtime_exception_class@@SAXPAXPAPB_W1@Z 
01:000C4F30 ?osError@runtime_exception_class@@SAXPAXPAPB_W1@Z 
01:000C4F58 ?gcAbend@runtime_exception_class@@SAXPAXPAPB_W1@Z 
01:000C4F80 ?gcError@runtime_exception_class@@SAXPAXPAPB_W1@Z 
01:000C4FA8 ?heapOverflow@runtime_exception_class@@SAXPAXPAPB_W1@Z 
01:000C4FD0 ?freeVariable@runtime_exception_class@@SAXPAXPAPB_W1@Z 
01:000C4FF8 ?singleFactHasNoValue@runtime_exception_class@@SAXPAXPAPB_W1@Z 
01:000C5020 ?accessToNotInitializedFact@runtime_exception_class@@SAXPAXPAPB_W1@Z 
01:000C5048 ?chainDB_DBAlreadyOpen@runtime_exception_class@@SAXPAXPAPB_W1@Z 
01:000C5070 ?chainDB_InvalidDBFileName@runtime_exception_class@@SAXPAXPAPB_W1@Z 
01:000C5098 ?chainDB_NotOpenDB@runtime_exception_class@@SAXPAXPAPB_W1@Z 
01:000C50C0 ?chainDB_ExistsBTree@runtime_exception_class@@SAXPAXPAPB_W1@Z 
01:000C50E8 ?chainDB_ExistsDBInPlace@runtime_exception_class@@SAXPAXPAPB_W1@Z 
01:000C5110 ?chainDB_InvalidOrderValue@runtime_exception_class@@SAXPAXPAPB_W1@Z 
01:000C5138 ?chainDB_InvalidKeyValue@runtime_exception_class@@SAXPAXPAPB_W1@Z 
01:000C5160 ?chainDB_UnableOpenDB@runtime_exception_class@@SAXPAXPAPB_W1@Z 
01:000C5188 ?chainDB_InvalidDB@runtime_exception_class@@SAXPAXPAPB_W1@Z 
01:000C51B0 ?chainDB_UnableDeleteDB@runtime_exception_class@@SAXPAXPAPB_W1@Z 
01:000C51D8 ?chainDB_InvalidRefVal@runtime_exception_class@@SAXPAXPAPB_W1@Z 
01:000C5200 ?chainDB_AbsentChain@runtime_exception_class@@SAXPAXPAPB_W1@Z 
01:000C5228 ?chainDB_AbsentBTree@runtime_exception_class@@SAXPAXPAPB_W1@Z 
01:000C5250 ?chainDB_InvalidBTreeSel@runtime_exception_class@@SAXPAXPAPB_W1@Z 
01:000C5278 ?chainDB_DeleteOpenBTree@runtime_exception_class@@SAXPAXPAPB_W1@Z 
01:000C52A0 ?chainDB_NotFoundKeyAndRef@runtime_exception_class@@SAXPAXPAPB_W1@Z 
01:000C52C8 ?chainDB_IncorrectDBVersion@runtime_exception_class@@SAXPAXPAPB_W1@Z 
01:000C52F0 ?chainDB_NotInTransaction@runtime_exception_class@@SAXPAXPAPB_W1@Z 
01:000C5318 ?chainDB_WriteROTransaction@runtime_exception_class@@SAXPAXPAPB_W1@Z 
01:000C5340 ?chainDB_AlreadyOpenTransaction@runtime_exception_class@@SAXPAXPAPB_W1@Z 
01:000C5368 ?chainDB_UpdatingROTransaction@runtime_exception_class@@SAXPAXPAPB_W1@Z 
01:000C5390 ?chainDB_TimeOutTransaction@runtime_exception_class@@SAXPAXPAPB_W1@Z 
01:000C53B8 ?chainDB_DuplicateKey@runtime_exception_class@@SAXPAXPAPB_W1@Z 
01:000C53E0 ?chainDB_WrongChainToDeleteTerm@runtime_exception_class@@SAXPAXPAPB_W1@Z 
01:000C5408 ?chainDB_ReadWrongNumberBytes@runtime_exception_class@@SAXPAXPAPB_W1@Z 
01:000C5430 ?chainDB_WriteWrongNumberBytes@runtime_exception_class@@SAXPAXPAPB_W1@Z 
01:000C5458 ?chainDB_OSNativeError@runtime_exception_class@@SAXPAXPAPB_W1@Z 
01:000C5480 ?binary_invalidBlock@runtime_exception_class@@SAXPAXPAPB_W1@Z 
01:000C54A8 ?binary_invalidFormat@runtime_exception_class@@SAXPAXPAPB_W1@Z 
01:000C54D0 ?binary_DecodeInternalError@runtime_exception_class@@SAXPAXPAPB_W1@Z 
01:000C54F8 ?cannotLoadLibrary@runtime_exception_class@@SAXPAXPAPB_W1@Z 
01:000C5520 ?cannotGetProcAddress@runtime_exception_class@@SAXPAXPAPB_W1@Z 
01:000C5548 ?odbc_unidentifiedError@runtime_exception_class@@SAXPAXPAPB_W1@Z 
01:000C5570 ?sql_invalidHandle@runtime_exception_class@@SAXPAXPAPB_W1@Z 
01:000C5598 ?sql_stillExecuting@runtime_exception_class@@SAXPAXPAPB_W1@Z 
01:000C55C0 ?sql_needData@runtime_exception_class@@SAXPAXPAPB_W1@Z 
01:000C55E8 ?sql_noDataFound@runtime_exception_class@@SAXPAXPAPB_W1@Z 
01:000C5610 ?sql_error@runtime_exception_class@@SAXPAXPAPB_W1@Z 
01:000C5638 ?odbc_error@runtime_exception_class@@SAXPAXPAPB_W1@Z 
--- From 'Obj\exe.obj'
01:000C5660 ?runtimeExceptionRaiser@runtime_exception_class@@SAXPBUtraceId@exception@@@Z 
--- From 'Obj\exception.obj'
01:000C5778 ?_exceptionFromErrorCode@runtime_exception_class@@SAXIPAX@Z 
01:000C5FD8 ?notYetHandledError@runtime_exception_class@@SAXPAXPAPB_W1@Z 
01:000C6000 ?classInfo@exception_exception_class@@SAXPAPB_W0@Z 
01:000C601C ?externalError@exception_exception_class@@SAXPAXPAPB_W1@Z 
01:000C6044 ?raise_ExternalError@exception_exception_class@@SGXXIPAU?$__list_struct@UnamedValue@@@@@Z  (Idle)
01:000C60B4 ?new@errorDescriptorInformation_class@@SAXQAVerrorDescriptorInformation@@@PAUclassInfoDescriptor_struct@exception_class@@PAUexceptionDescriptor_struct@4@PAUkind_struct@4@PAU?$__list_struct@UnamedValue@@@@PAUunsigned64_struct@core_class@@PB_WI@Z 
01:000C610C ?_getExceptionDescriptor@errorDescriptorInformation_class@@SAXQAVerrorDescriptorInformation@@@PAPAUexceptionDescriptor_struct@exception_class@@@Z 
01:000C6120 ?_getClassInfoDescriptor@errorDescriptorInformation_class@@SAXQAVerrorDescriptorInformation@@@PAPAUclassInfoDescriptor_struct@exception_class@@@Z 
01:000C6134 ?_getKind@errorDescriptorInformation_class@@SAXQAVerrorDescriptorInformation@@@PAPAUkind_struct@exception_class@@@Z 
01:000C6148 ?_getExtraInfo@errorDescriptorInformation_class@@SAXQAVerrorDescriptorInformation@@@PAPAU?$__list_struct@UnamedValue@@@@@Z 
01:000C615C ?_getGMTTime@errorDescriptorInformation_class@@SAXQAVerrorDescriptorInformation@@@PAPAUunsigned64_struct@core_class@@@Z 
01:000C6170 ?_getGMTTimeFormatted@errorDescriptorInformation_class@@SAXQAVerrorDescriptorInformation@@@PAPB_W@Z 
01:000C618C ?_getExceptionDescription@errorDescriptorInformation_class@@SAXQAVerrorDescriptorInformation@@@PAPB_W@Z 
01:000C61A0 ?_getThreadId@errorDescriptorInformation_class@@SAXQAVerrorDescriptorInformation@@@PAI@Z 
01:000C61B4 ?_tryGetContinueException@errorDescriptorInformation_class@@SAXQAVerrorDescriptorInformation@@@PAPAV2@@@Z 
01:000C61DC ?setContinueException@errorDescriptorInformation_class@@SAXQAVerrorDescriptorInformation@@@0@Z 
01:000C6228 ?_createDescriptorInfo@errorDescriptorInformation_class@@SAXXXPAUkind_struct@exception_class@@PAU?$__list_struct@UnamedValue@@@@PAPAVerrorDescriptorInformation@@@@Z 
01:000C6370 ?_formatDateTime@errorDescriptorInformation_class@@SAXPAUunsigned64_struct@core_class@@PAPB_W@Z 
01:000C63E8 ?_new@errorDescriptorInformation_class@@SAXPAUclassInfoDescriptor_struct@exception_class@@PAUexceptionDescriptor_struct@3@PAUkind_struct@3@PAU?$__list_struct@UnamedValue@@@@PAUunsigned64_struct@core_class@@PB_WIPAPAVerrorDescriptorInformation@@@@Z 
01:000C642C ?_initObject@errorDescriptorInformation@@QAGXQAV1@H@Z 
01:000C6444 ?@create_object@errorDescriptorInformation_class@@SGQAVerrorDescriptorInformation@@@XZ 
01:000C6460 ?_InternalFinalizer@errorDescriptorInformation@@QAGXQAV1@@Z 
--- From 'Obj\environment.obj'
01:000C6470 ?classInfo@environment_class@@SAXPAPB_W0@Z 
01:000C648C ?_expand@environment_class@@SAXPB_WPAPB_W@Z  (Idle)
01:000C6510 ?_getVariable@environment_class@@SAXPB_WPAPB_W@Z 
01:000C65C0 ?_tryGetVariable@environment_class@@SAXPB_WPAPB_W@Z 
01:000C6614 ?setVariable@environment_class@@SAXPB_W0@Z 
01:000C6654 ?deleteVariable@environment_class@@SAXPB_W@Z  (Idle)
01:000C66C8 ?_getAllVariables@environment_class@@SAXPAPAU?$__list_struct@UnamedValue@@@@@Z  (Idle)
01:000C676C ?getVariableList@environment_class@@SAXPB_WPAPAU?$__list_struct@UnamedValue@core@@@@@Z 
01:000C68F4 ?checkGetEnvResult@environment_class@@SAXH@Z 
01:000C6938 ?getOSVersion@environment_class@@SAXPAIPAIPAPAUboolean_struct@_builtIn_class@@PAPB_W@Z  (Idle)
01:000C699C ?_getSystemInfo@environment_class@@SAXPAPB_W@Z 
01:000C6A04 ?undefinedEnvironmentVariable@environment_class@@SAXPAXPAPB_W1@Z 
--- From 'Obj\core.obj'
01:000C6A30 ?_booleanValue@core_class@@SAXPAUvalue_struct@1@PAPAUboolean_struct@_builtIn_class@@@Z 
01:000C6A74 ?_unsigned64Value@core_class@@SAXPAUvalue_struct@1@PAPAUunsigned64_struct@1@@Z 
01:000C6AB8 ?_integer64Value@core_class@@SAXPAUvalue_struct@1@PAPAUinteger64_struct@1@@Z 
01:000C6AFC ?_unsignedValue@core_class@@SAXPAUvalue_struct@1@PAI@Z 
01:000C6B40 ?_integerValue@core_class@@SAXPAUvalue_struct@1@PAH@Z 
01:000C6B84 ?_realValue@core_class@@SAXPAUvalue_struct@1@PAPAN@Z 
01:000C6BC8 ?_charValue@core_class@@SAXPAUvalue_struct@1@PA_W@Z 
01:000C6C10 ?_stringValue@core_class@@SAXPAUvalue_struct@1@PAPB_W@Z 
01:000C6C54 ?_binaryValue@core_class@@SAXPAUvalue_struct@1@QAPAE@Z 
01:000C6C98 ?_objectValue@core_class@@SAXPAUvalue_struct@1@PAPAVobject@@@@Z 
01:000C6CDC ?_gmtTimeValueValue@core_class@@SAXPAUvalue_struct@1@PAPAUunsigned64_struct@1@@Z 
01:000C6D20 ?_localTimeValueValue@core_class@@SAXPAUvalue_struct@1@PAPAUunsigned64_struct@1@@Z  (Idle)
01:000C6D64 ?_pointerValue@core_class@@SAXPAUvalue_struct@1@PAPAX@Z  (Idle)
01:000C6DA8 ?unexpectedValueKind@core_class@@SAXPAXPAPB_W1@Z 
01:000C6DD0 ?classInfo@core_class@@SAXPAPB_W0@Z 
01:000C6DEC $extract$core$predicate$(i,boolean(o),i)$c$_m3 
01:000C6EBC $extract$core$predicate$(i,unsigned64(o),i)$c$_m3 
01:000C6F8C $extract$core$predicate$(i,integer64(o),i)$c$_m3 
01:000C705C $extract$core$predicate$(i,unsigned(o),i)$c$_m3 
01:000C712C $extract$core$predicate$(i,integer(o),i)$c$_m3 
01:000C71FC $extract$core$predicate$(i,real(o),i)$c$_m3 
01:000C72CC $extract$core$predicate$(i,char(o),i)$c$_m3 
01:000C73A0 $extract$core$predicate$(i,string(o),i)$c$_m3 
01:000C7470 $extract$core$predicate$(i,binary(o),i)$c$_m3 
01:000C7540 $extract$core$predicate$(i,object(o),i)$c$_m3 
01:000C7610 $extract$core$predicate$(i,gmttimevalue(o),i)$c$_m3 
01:000C76E0 $extract$core$predicate$(i,localtimevalue(o),i)$c$_m3 
01:000C77B0 $extract$core$predicate$(i,pointer(o),i)$c$_m3 
--- From 'Obj\console.obj'
01:000C7880 ?classInfo@console_class@@SAXPAPB_W0@Z 
01:000C789C ?_readChar@console_class@@SAXPA_W@Z  (Idle)
01:000C78D0 ?_readLine@console_class@@SAXPAPB_W@Z  (Idle)
01:000C7904 ?_read@console_class@@SAXQAVrTypeLibrary@TypeLibraries@RunTime@VIP@@PAPAX@Z  (Idle)
01:000C7940 ?write@console_class@@SAXXZ 
01:000C7974 ?writef@console_class@@SAXPB_W@Z  (Idle)
01:000C79B0 ?nl@console_class@@SAXXZ 
01:000C79D4 ?isModeLine@console_class@@SAXXZ  (Idle)
01:000C7A08 ?setModeLine@console_class@@SAXPAUboolean_struct@_builtIn_class@@@Z  (Idle)
01:000C7A50 ?isModeEcho@console_class@@SAXXZ  (Idle)
01:000C7A84 ?setModeEcho@console_class@@SAXPAUboolean_struct@_builtIn_class@@@Z  (Idle)
01:000C7ACC ?isModeProcessed@console_class@@SAXXZ  (Idle)
01:000C7B24 ?setModeProcessed@console_class@@SAXPAUboolean_struct@_builtIn_class@@@Z  (Idle)
01:000C7B88 ?isModeWrap@console_class@@SAXXZ  (Idle)
01:000C7BBC ?setModeWrap@console_class@@SAXPAUboolean_struct@_builtIn_class@@@Z  (Idle)
01:000C7BFC ?checkConsoleMode@console_class@@SAXPBUfileHandle@@I@Z 
01:000C7C38 ?setConsoleMode@console_class@@SAXPAUboolean_struct@_builtIn_class@@PBUfileHandle@@I@Z 
01:000C7C8C ?_toApiMode@console_class@@SAXPAUboolean_struct@_builtIn_class@@IIPAI@Z 
01:000C7CDC ?clearInput@console_class@@SAXXZ  (Idle)
01:000C7D2C ?clearOutput@console_class@@SAXXZ  (Idle)
01:000C7DEC ?_getLocation@console_class@@SAXPAPAUlocation_struct@1@@Z  (Idle)
01:000C7E44 ?setLocation@console_class@@SAXPAUlocation_struct@1@@Z 
01:000C7EE8 ?_getConsoleInputStream@console_class@@SAXPAPAVinputStream@@@@Z 
01:000C7F68 ?_getConsoleOutputStream@console_class@@SAXPAPAVoutputStream@@@@Z 
01:000C7FEC ?_getErrorStream@console_class@@SAXPAPAVoutputStream@@@@Z 
01:000C8070 ?close@console_class@@SAXXZ  (Idle)
01:000C8098 ?_getConsoleWidth@console_class@@SAXPA_W@Z  (Idle)
01:000C80C0 ?_getConsoleTitle@console_class@@SAXPAPB_W@Z  (Idle)
01:000C810C ?setConsoleTitle@console_class@@SAXPB_W@Z  (Idle)
01:000C813C ?_getConsoleMode@console_class@@SAXPBUfileHandle@@PAI@Z 
01:000C8164 ?_getConsoleScreenBufferInfo@console_class@@SAXPAPAUconsoleScreenBufferInfo_struct@console_native_class@@@Z 
01:000C81C0 ?checkBOOL@console_class@@SAXHPB_W@Z 
01:000C81F0 ?init@console_class@@SAXXZ  (Idle)
01:000C825C ?checkConsolePresence@console_class@@SAXXZ 
01:000C82C8 ?classInfo@inputStream_console_class@@SAXPAPB_W0@Z 
01:000C82E4 ?new@inputStream_console_class@@SAXQAVinputStream_console@@@@Z 
01:000C837C ?getCRLFconversion@inputStream_console_class@@SGPAUboolean_struct@_builtIn_class@@QAVstream@@@@Z 
01:000C83B4 ?setCRLFconversion@inputStream_console_class@@SGXQAVstream@@@PAUboolean_struct@_builtIn_class@@@Z 
01:000C840C ?setMode@inputStream_console_class@@SGXQAVinputSupport@@@PAUmode_struct@stream_class@@@Z 
01:000C84E0 ?exTextBufferCB@inputStream_console_class@@SAXQAVinputStream_console@@@PAPAXPAH@Z 
01:000C8548 ?exTextBufferCBLock@inputStream_console_class@@SAXQAVinputStream_console@@@PAPAXPAH@Z 
01:000C85A4 ?handlingBufferLastChar@inputStream_console_class@@SAXQAVinputStream_console@@@HPAPAXPAH@Z 
01:000C8604 ?converCRLF2LF_ifNeeded@inputStream_console_class@@SAXQAVinputStream_console@@@HPAPAXPAH@Z 
01:000C86BC ?_readFromStdIn@inputStream_console_class@@SAXQAVinputStream_console@@@PAUmode_struct@stream_class@@PBUfileHandle@@PAH@Z 
01:000C88D4 ?_readFromFile@inputStream_console_class@@SAXQAVinputStream_console@@@PBUfileHandle@@PAXHPAH@Z 
01:000C899C ?endOfStream@inputStream_console_class@@SAXQAVinputStream@@@@Z 
01:000C89C4 ?setPosition@inputStream_console_class@@SGXQAVstream@@@PAUunsigned64_struct@core_class@@@Z 
01:000C89D4 ?getPosition@inputStream_console_class@@SGPAUunsigned64_struct@core_class@@QAVstream@@@@Z 
01:000C89E8 ?close@inputStream_console_class@@SGXQAVstream@@@@Z 
01:000C8A1C ?getBuffer@inputStream_console_class@@SGXQAVbufferSupport@@@PAPAXPAH@Z 
01:000C8A40 ?getBufferLocked@inputStream_console_class@@SGXQAVbufferSupport@@@PAPAXPAH@Z 
01:000C8A64 ?_new@inputStream_console_class@@SAXPAPAVinputStream@@@@Z 
01:000C8A8C ?_object_facts_initializer@inputStream_console_class@@SGXQAVinputStream_console@@@@Z 
01:000C8AB4 ?classInfo@outputStream_console_class@@SAXPAPB_W0@Z 
01:000C8AD0 ?new@outputStream_console_class@@SAXQAVoutputStream_console@@@I@Z 
01:000C8B54 ?write@outputStream_console_class@@SAXQAVoutputStream@@@@Z 
01:000C8BB0 ?writeQuoted@outputStream_console_class@@SAXQAVoutputStream@@@@Z 
01:000C8C0C ?writef@outputStream_console_class@@SAXQAVoutputStream@@@PB_W@Z 
01:000C8C6C ?nl@outputStream_console_class@@SGXQAVoutputStream@@@@Z 
01:000C8CAC ?save@outputStream_console_class@@SGXQAVoutputStream@@@PBUfactDB@@@Z 
01:000C8D0C ?writeBytes@outputStream_console_class@@SGXQAVoutputStream@@@PAXH@Z 
01:000C8D6C ?errorHandler@outputStream_console_class@@SGXQAVoutputStream_console@@@PBUtraceId@exception@@@Z 
01:000C8DA8 ?getCRLFconversion@outputStream_console_class@@SGPAUboolean_struct@_builtIn_class@@QAVstream@@@@Z 
01:000C8DE0 ?setCRLFconversion@outputStream_console_class@@SGXQAVstream@@@PAUboolean_struct@_builtIn_class@@@Z 
01:000C8E38 ?bufferFullCB@outputStream_console_class@@SAXQAVoutputStream_console@@@PAPAXPAH@Z 
01:000C8ECC ?convertLF2CRLF_ifNeeded@outputStream_console_class@@SAXQAVoutputStream_console@@@PAXHPAPAXPAH@Z 
01:000C8F40 ?writeToStdDevice@outputStream_console_class@@SAXPAUmode_struct@stream_class@@PBUfileHandle@@PAXH@Z 
01:000C9044 ?convert_ifAnsi@outputStream_console_class@@SAXPAUmode_struct@stream_class@@PAXHPAPAXPAH@Z 
01:000C9118 ?setPosition@outputStream_console_class@@SGXQAVstream@@@PAUunsigned64_struct@core_class@@@Z 
01:000C9128 ?getPosition@outputStream_console_class@@SGPAUunsigned64_struct@core_class@@QAVstream@@@@Z 
01:000C913C ?close@outputStream_console_class@@SGXQAVstream@@@@Z 
01:000C914C ?getBuffer@outputStream_console_class@@SGXQAVbufferSupport@@@PAPAXPAH@Z 
01:000C9170 ?getBufferLocked@outputStream_console_class@@SGXQAVbufferSupport@@@PAPAXPAH@Z 
01:000C918C ?_new@outputStream_console_class@@SAXIPAPAVoutputStream@@@@Z 
01:000C91B8 ?_object_facts_initializer@outputStream_console_class@@SGXQAVoutputStream_console@@@@Z 
01:000C9448 ?_initObject@inputStream_console@@QAGXQAV1@H@Z 
01:000C9480 ?@create_object@inputStream_console_class@@SGQAVinputStream_console@@@XZ 
01:000C949C ?_InternalFinalizer@inputStream_console@@QAGXQAV1@@Z 
01:000C9630 ?_initObject@outputStream_console@@QAGXQAV1@H@Z 
01:000C9668 ?@create_object@outputStream_console_class@@SGQAVoutputStream_console@@@XZ 
01:000C9684 ?_InternalFinalizer@outputStream_console@@QAGXQAV1@@Z 
--- From 'Obj\boolean.obj'
01:000C96A0 ?classInfo@boolean_class@@SAXPAPB_W0@Z  (Idle)
01:000C96BC ?_toBooleanInt@boolean_class@@SAXPAUboolean_struct@_builtIn_class@@PAH@Z 
01:000C96E0 ?_fromBooleanInt@boolean_class@@SAXHPAPAUboolean_struct@_builtIn_class@@@Z 
01:000C9704 ?_logicalNot@boolean_class@@SAXPAUboolean_struct@_builtIn_class@@PAPAU23@@Z 
01:000C9728 ?_logicalAnd@boolean_class@@SAXPAUboolean_struct@_builtIn_class@@0PAPAU23@@Z 
01:000C9760 ?_logicalOr@boolean_class@@SAXPAUboolean_struct@_builtIn_class@@0PAPAU23@@Z  (Idle)
01:000C9798 ?_logicalXor@boolean_class@@SAXPAUboolean_struct@_builtIn_class@@0PAPAU23@@Z  (Idle)
--- From 'Obj\binary.obj'
01:000C97E0 ?classInfo@binary_class@@SAXPAPB_W0@Z 
01:000C97FC ?_create0binary@binary_class@@SAXQAPAE@Z 
01:000C9818 ?_create@binary_class@@SAXHQAPAE@Z 
01:000C98B0 ?_create@binary_class@@SAXHHQAPAE@Z  (Idle)
01:000C98EC ?_createAtomic@binary_class@@SAXHQAPAE@Z 
01:000C9984 ?_createAtomic@binary_class@@SAXHHQAPAE@Z  (Idle)
01:000C99C0 ?_makeBinaryFromPtr@binary_class@@SAXPAXIQAPAE@Z 
01:000C99F4 ?_createCopy@binary_class@@SAXQAEQAPAE@Z  (Idle)
01:000C9A8C ?_createCopyAtomic@binary_class@@SAXQAEQAPAE@Z  (Idle)
01:000C9B24 ?_createFromPointer@binary_class@@SAXPAXHQAPAE@Z 
01:000C9B74 ?_createFromPointerAtomic@binary_class@@SAXPAXHQAPAE@Z  (Idle)
01:000C9BC4 ?_createFromIntegerList@binary_class@@SAXPAU?$__list_struct@Uinteger@@@@QAPAE@Z  (Idle)
01:000C9C3C ?_getSize@binary_class@@SAXQAEPAH@Z 
01:000C9CB8 ?_reSize@binary_class@@SAXQAEHQAPAE@Z 
01:000C9D24 ?_reSizeAtomic@binary_class@@SAXQAEHQAPAE@Z 
01:000C9D90 ?_concat@binary_class@@SAXQAEQAEQAPAE@Z  (Idle)
01:000C9E1C ?_concatAtomic@binary_class@@SAXQAEQAEQAPAE@Z  (Idle)
01:000C9EA8 ?_insert@binary_class@@SAXQAEHQAEQAPAE@Z  (Idle)
01:000C9FAC ?_delete@binary_class@@SAXQAEHHQAPAE@Z  (Idle)
01:000CA09C ?_getIndexed_unsigned8@binary_class@@SAXQAEHPAE@Z 
01:000CA0FC ?_getIndexed_unsigned16@binary_class@@SAXQAEHPA_W@Z 
01:000CA15C ?_getIndexed_unsigned32@binary_class@@SAXQAEHPAI@Z 
01:000CA1C4 ?_getIndexed_unsigned64@binary_class@@SAXQAEHPAPAUunsigned64_struct@core_class@@@Z  (Idle)
01:000CA238 ?_getIndexed_integer8@binary_class@@SAXQAEHPAD@Z  (Idle)
01:000CA298 ?_getIndexed_integer16@binary_class@@SAXQAEHPAF@Z  (Idle)
01:000CA2F8 ?_getIndexed_integer32@binary_class@@SAXQAEHPAH@Z  (Idle)
01:000CA360 ?_getIndexed_integer64@binary_class@@SAXQAEHPAPAUinteger64_struct@core_class@@@Z  (Idle)
01:000CA3D4 ?_getIndexed_unsigned@binary_class@@SAXQAEHPAI@Z 
01:000CA43C ?_getIndexed_integer@binary_class@@SAXQAEHPAH@Z 
01:000CA4A4 ?_getIndexed_real@binary_class@@SAXQAEHPAPAN@Z  (Idle)
01:000CA50C ?_getIndexed_pointer@binary_class@@SAXQAEHPAPAX@Z  (Idle)
01:000CA574 ?setIndexed_unsigned8@binary_class@@SAXQAEHE@Z  (Idle)
01:000CA5D0 ?setIndexed_unsigned16@binary_class@@SAXQAEH_W@Z  (Idle)
01:000CA630 ?setIndexed_unsigned32@binary_class@@SAXQAEHI@Z 
01:000CA690 ?setIndexed_unsigned64@binary_class@@SAXQAEHPAUunsigned64_struct@core_class@@@Z  (Idle)
01:000CA700 ?setIndexed_integer8@binary_class@@SAXQAEHD@Z  (Idle)
01:000CA75C ?setIndexed_integer16@binary_class@@SAXQAEHF@Z  (Idle)
01:000CA7BC ?setIndexed_integer32@binary_class@@SAXQAEHH@Z  (Idle)
01:000CA81C ?setIndexed_integer64@binary_class@@SAXQAEHPAUinteger64_struct@core_class@@@Z  (Idle)
01:000CA88C ?setIndexed_integer@binary_class@@SAXQAEHH@Z 
01:000CA8EC ?setIndexed_unsigned@binary_class@@SAXQAEHI@Z  (Idle)
01:000CA94C ?setIndexed_real@binary_class@@SAXQAEHPAN@Z  (Idle)
01:000CA9B8 ?setIndexed_pointer@binary_class@@SAXQAEHPAX@Z  (Idle)
01:000CAA20 ?_getBinary@binary_class@@SAXQAEHHQAPAE@Z 
01:000CAA9C ?_getBinaryAtomic@binary_class@@SAXQAEHHQAPAE@Z 
01:000CAB18 ?setBinary@binary_class@@SGXQAEHQAE@Z  (Idle)
01:000CAB9C ?setValue@binary_class@@SGXQAEHPAUvalue_struct@core_class@@@Z 
01:000CAFE4 $getValue$binary$predicate$(i,i,unsigned64(o))$_c49  (Idle)
01:000CB034 ?_getString@binary_class@@SAXPAXHPAPB_W@Z 
01:000CB19C ?checkOffsetForSetGetValue@binary_class@@SAXQAEHH@Z 
01:000CB1E0 ?fillFromIntegerList@binary_class@@SAXQAEHPAU?$__list_struct@Uinteger@@@@@Z 
01:000CB250 ?copyTailIfNeeded@binary_class@@SAXQAEHHQAEI@Z 
01:000CB2D8 ?splitBinary@binary_class@@SAXQAEHQAPAE2@Z  (Idle)
01:000CB334 ?splitBinaryAtomic@binary_class@@SAXQAEHQAPAE2@Z  (Idle)
01:000CB390 ?_binaryToStringList@binary_class@@SAXQAEPAPAU?$__list_struct@Ustring@@@@@Z  (Idle)
01:000CB3E0 ?_getStringList@binary_class@@SAXPAXIPAPAU?$__list_struct@Ustring@@@@@Z 
01:000CB610 ?_search@binary_class@@SAXQAEQAEPAH@Z  (Idle)
01:000CB658 ?_binary8ToStringList@binary_class@@SAXQAEPAPAU?$__list_struct@Ustring@@@@@Z  (Idle)
01:000CB694 ?_getStringListForBinary8@binary_class@@SAXPAXHPAPAU?$__list_struct@Ustring@@@@@Z 
01:000CB820 $getValue$binary$predicate$(i,i,unsigned(o))$_c50  (Idle)
01:000CB870 $getValue$binary$predicate$(i,i,integer64(o))$_c51  (Idle)
01:000CB8C0 $getValue$binary$predicate$(i,i,integer(o))$_c52 
01:000CB910 $getValue$binary$predicate$(i,i,real(o))$_c53  (Idle)
01:000CB960 $getValue$binary$predicate$(i,i,pointer(o))$_c54  (Idle)
01:000CB9B4 $getValue$binary$predicate$(i,i,object(o))$_c55  (Idle)
01:000CBA08 $getValue$binary$predicate$(i,i,char(o))$_c56  (Idle)
01:000CBA5C $getValue$binary$predicate$(i,i,string(o))$_c57  (Idle)
01:000CBAE0 $getValue$binary$predicate$(i,i,localtimevalue(o))$_c58  (Idle)
01:000CBB30 $getValue$binary$predicate$(i,i,gmttimevalue(o))$_c59  (Idle)
01:000CBB80 $getValue$binary$predicate$(i,i,binary(o))$_c60  (Idle)
01:000CBBF4 ?classInfo@binary_exception_class@@SAXPAPB_W0@Z 
01:000CBC10 ?invalidCompressionFormat@binary_exception_class@@SAXPAXPAPB_W1@Z 
01:000CBC38 ?internalDecodeError@binary_exception_class@@SAXPAXPAPB_W1@Z 
01:000CBC60 ?wrongBinaryFormat@binary_exception_class@@SAXPAXPAPB_W1@Z 
01:000CBC88 ?indexOutOfRange@binary_exception_class@@SAXPAXPAPB_W1@Z 
01:000CBCB0 ?raise_InvalidCompressionFormat@binary_exception_class@@SGXXQAE@Z  (Idle)
01:000CBD24 ?raise_InternalDecodeError@binary_exception_class@@SGXXQAE@Z  (Idle)
01:000CBD98 ?raise_IndexOutOfRange@binary_exception_class@@SGXXH@Z 
01:000CBE20 ?raise_WrongBinaryFormat@binary_exception_class@@SGXXQAE@Z 
01:000CBE94 ?classInfo@inputStream_binary_class@@SAXPAPB_W0@Z 
01:000CBEB0 ?new@inputStream_binary_class@@SAXQAVinputStream_binary@@@QAE@Z 
01:000CBF48 ?endOfStream@inputStream_binary_class@@SAXQAVinputStream@@@@Z 
01:000CBFB4 ?setMode@inputStream_binary_class@@SGXQAVinputSupport@@@PAUmode_struct@stream_class@@@Z 
01:000CBFF4 ?close@inputStream_binary_class@@SGXQAVstream@@@@Z 
01:000CC010 ?getCRLFconversion@inputStream_binary_class@@SGPAUboolean_struct@_builtIn_class@@QAVstream@@@@Z 
01:000CC024 ?setCRLFconversion@inputStream_binary_class@@SGXQAVstream@@@PAUboolean_struct@_builtIn_class@@@Z 
01:000CC044 ?getPosition@inputStream_binary_class@@SGPAUunsigned64_struct@core_class@@QAVstream@@@@Z 
01:000CC0AC ?setPosition@inputStream_binary_class@@SGXQAVstream@@@PAUunsigned64_struct@core_class@@@Z 
01:000CC18C ?getBuffer@inputStream_binary_class@@SGXQAVbufferSupport@@@PAPAXPAH@Z 
01:000CC1A8 ?getBufferLocked@inputStream_binary_class@@SGXQAVbufferSupport@@@PAPAXPAH@Z 
01:000CC1C4 ?_new@inputStream_binary_class@@SAXQAEPAPAVinputStream@@@@Z  (Idle)
01:000CC1F0 ?_object_facts_initializer@inputStream_binary_class@@SGXQAVinputStream_binary@@@@Z 
01:000CC20C ?classInfo@outputStream_binary_class@@SAXPAPB_W0@Z 
01:000CC228 ?new@outputStream_binary_class@@SAXQAVoutputStream_binary@@@@Z 
01:000CC2F8 ?setMode@outputStream_binary_class@@SGXQAVstream@@@PAUmode_struct@stream_class@@@Z 
01:000CC338 ?flush@outputStream_binary_class@@SGXQAVoutputStream@@@@Z 
01:000CC348 ?close@outputStream_binary_class@@SGXQAVstream@@@@Z 
01:000CC3EC ?bufferFullCallBack@outputStream_binary_class@@SAXQAVoutputStream_binary@@@PAPAXPAH@Z 
01:000CC48C ?get_buffer_from_db@outputStream_binary_class@@SAXQAVoutputStream_binary@@@IPAPAXPAH@Z 
01:000CC504 ?_getBinary@outputStream_binary_class@@SAXQAVoutputStream_binary@@@QAPAE@Z 
01:000CC5E0 ?writeBuffersToBinary@outputStream_binary_class@@SAXQAVoutputStream_binary@@@QAE@Z 
01:000CC65C ?writeSingleBufferToBinary@outputStream_binary_class@@SGXQAVoutputStream_binary@@@IIPAXH@Z 
01:000CC690 ?getPosition@outputStream_binary_class@@SGPAUunsigned64_struct@core_class@@QAVstream@@@@Z 
01:000CC774 ?setPosition@outputStream_binary_class@@SGXQAVstream@@@PAUunsigned64_struct@core_class@@@Z 
01:000CC7C4 ?handleSetOffset@outputStream_binary_class@@SAXQAVoutputStream_binary@@@H@Z 
01:000CC8B4 ?updateCurrentBuffer@outputStream_binary_class@@SAXQAVoutputStream_binary@@@@Z 
01:000CCA3C ?findBufferForOffset@outputStream_binary_class@@SAXQAVoutputStream_binary@@@HPAIPAPAXPAHPAI@Z 
01:000CCB10 ?handleBiggerOffset@outputStream_binary_class@@SAXQAVoutputStream_binary@@@H@Z 
01:000CCCFC ?_newBuffer@outputStream_binary_class@@SAXQAVoutputStream_binary@@@HPAPAX@Z 
01:000CCDBC ?_getSizeBefore@outputStream_binary_class@@SAXQAVoutputStream_binary@@@IPAH@Z 
01:000CCE64 ?bufferNotFound_exception@outputStream_binary_class@@SGXI@Z 
01:000CCEA8 ?checkUsePrevBuff@outputStream_binary_class@@SAXQAVoutputStream_binary@@@@Z 
01:000CCF4C ?getBuffer@outputStream_binary_class@@SGXQAVbufferSupport@@@PAPAXPAH@Z 
01:000CCFEC ?getBufferLocked@outputStream_binary_class@@SGXQAVbufferSupport@@@PAPAXPAH@Z 
01:000CD008 ?_new@outputStream_binary_class@@SAXPAPAVoutputStream_binary@@@@Z  (Idle)
01:000CD030 ?_object_facts_initializer@outputStream_binary_class@@SGXQAVoutputStream_binary@@@@Z 
01:000CD2AC ?_initObject@inputStream_binary@@QAGXQAV1@H@Z 
01:000CD2E4 ?@create_object@inputStream_binary_class@@SGQAVinputStream_binary@@@XZ 
01:000CD300 ?_InternalFinalizer@inputStream_binary@@QAGXQAV1@@Z 
01:000CD584 ?_initObject@outputStream_binary@@QAGXQAV1@H@Z 
01:000CD5BC ?@create_object@outputStream_binary_class@@SGQAVoutputStream_binary@@@XZ 
01:000CD5D8 ?_InternalFinalizer@outputStream_binary@@QAGXQAV1@@Z 
--- From 'Obj\exe.obj'
01:000CD5F0 ?classInfo@mainExe_class@@SAXPAPB_W0@Z 
01:000CD60C ?run@mainExe_class@@SAXX@Z 
01:000CD6E4 ?runCom@mainExe_class@@SAXXPAU?$__list_struct@Ucoinit@@@@@Z 
01:000CD7DC ?runCom@mainExe_class@@SAXX@Z  (Idle)
01:000CD804 ?runOle@mainExe_class@@SAXX@Z  (Idle)
01:000CD890 ?_toCoInitFlag@mainExe_class@@SAXPAU?$__list_struct@Ucoinit@@@@PAI@Z 
01:000CD8F4 ?_coInitMap@mainExe_class@@SAXPAUcoinit_struct@1@PAI@Z 
01:000CD930 ?checkResult@mainExe_class@@SAXIPB_WPAU?$__list_struct@UnamedValue@@@@@Z 
01:000CD9EC ?_getCommandLine@mainExe_class@@SAXPAPB_W@Z  (Idle)
01:000CDA5C ?_parseCommandLine@mainExe_class@@SAXPB_W_W0PAPB_W@Z 
01:000CDBC8 ?_getPosition@mainExe_class@@SAXPB_W0PAH@Z 
01:000CDC08 ?getFileName@mainExe_class@@SAXPAPB_W0@Z  (Idle)
01:000CDC44 ?_getFileName@mainExe_class@@SAXPAPB_W@Z 
01:000CDCA4 ?_getCurrentHinstance@mainExe_class@@SAXAAUhModule@@@Z 
--- From '.\Release\VIPMain.obj'
01:000CDCE0 _VIPStartUp@0  (Idle)
--- From '.\Release\VIPDll.obj'
01:000CDD50 _VIPSetDllHook@4  (Idle)
01:000CDD70 ?tryCallHook@VIPDllHook@RunTime@VIP@@QBEHPAXK0@Z 
01:000CDDC0 ?VIPDllGetHandleModule@RunTime@VIP@@YAPAXXZ 
01:000CDDD0 _VIPDllMain@12  (Idle)
--- From '.\vp_rand___Win32_Release\rand.obj'
01:000CDEB0 ?USeed@@YAXJJ@Z 
01:000CDED0 ?Uniform@@YAJXZ 
01:000CDF90 ?UInitialise@@YAXXZ  (Idle)
01:000CDFB0 ?ULRandom@@YAJI@Z 
01:000CDFC0 ?UFRandom@@YANXZ 
01:000CDFE0 _unsigned_seed 
01:000CE000 _unsigned_rnd 
01:000CE010 _real_rnd 
Frame 0CF000   Size 000170.  Name=< .gcroot>, 	Chars=C0000040h. [IRW]
0CF000:000000 000168   .gcroot::.gcroot::.gcroot F=4
Frame 0D0000   Size 0003C0.  Name=<  PRODBG>, 	Chars=40000040h. [IR]
0D0000:000000 0003C0   PRODBG::PRODBG::PRODBG F=4
Frame 0D1000   Size 08D8F0.  Name=<  .rdata>, 	Chars=40000040h. [IR]
0D1000:000000 0006FA   VIPSymb::VIPSymb::.rdata F=4
--- From 'Obj\user_logic.obj'
04:000D1000 $$symbol$$Universal Overpower$$ 
04:000D1028 $$symbol$$Universal High$$ 
04:000D1046 $$symbol$$Universal Medium$$ 
04:000D1068 $$symbol$$Universal Low$$ 
04:000D1084 $$symbol$$Universal Min$$ 
04:000D10A0 $$symbol$$actLeizure$$ 
04:000D10B6 $$symbol$$studyDancing$$ 
04:000D10D0 $$symbol$$studyArts$$ 
04:000D10E4 $$symbol$$studyEtiquette$$ 
04:000D1102 $$symbol$$studyMagic$$ 
04:000D1118 $$symbol$$studyFencing$$ 
04:000D1132 $$symbol$$studyFighting$$ 
04:000D114E $$symbol$$studyPoetry$$ 
04:000D1166 $$symbol$$studyTeology$$ 
04:000D1180 $$symbol$$studyStrategy$$ 
04:000D119C $$symbol$$studyScience$$ 
04:000D11B6 $$symbol$$jobCabaret$$ 
04:000D11CC $$symbol$$jobBordello$$ 
04:000D11E4 $$symbol$$jobBar$$ 
04:000D11F2 $$symbol$$jobTutor$$ 
04:000D1204 $$symbol$$jobCemetery$$ 
04:000D121C $$symbol$$jobHunter$$ 
04:000D1230 $$symbol$$jobMason$$ 
04:000D1242 $$symbol$$jobSalon$$ 
04:000D1254 $$symbol$$jobLumber$$ 
04:000D1268 $$symbol$$jobRestaurant$$ 
04:000D1284 $$symbol$$jobChurch$$ 
04:000D1298 $$symbol$$jobFarm$$ 
04:000D12A8 $$symbol$$jobInn$$ 
04:000D12B6 $$symbol$$jobBabysitter$$ 
04:000D12D2 $$symbol$$jobMaid$$ 
04:000D12E2 $$symbol$$minimal$$ 
04:000D12F2 $$symbol$$overpower$$ 
04:000D1306 $$symbol$$high$$ 
04:000D1310 $$symbol$$medium$$ 
04:000D131E $$symbol$$low$$ 
04:000D1326 $$symbol$$moneyQt$$ 
04:000D1336 $$symbol$$stressLv$$ 
04:000D1348 $$symbol$$skillMgrDef$$ 
04:000D1360 $$symbol$$skillMgrAtt$$ 
04:000D1378 $$symbol$$skillMgrSkl$$ 
04:000D1390 $$symbol$$skillCombDef$$ 
04:000D13AA $$symbol$$skillCombAtt$$ 
04:000D13C4 $$symbol$$skillCombSkl$$ 
04:000D13DE $$symbol$$skillCook$$ 
04:000D13F2 $$symbol$$skillClean$$ 
04:000D1408 $$symbol$$skillConv$$ 
04:000D141C $$symbol$$skillArt$$ 
04:000D142E $$symbol$$skillDec$$ 
04:000D1440 $$symbol$$attrSEN$$ 
04:000D1450 $$symbol$$attrAMR$$ 
04:000D1460 $$symbol$$attrETH$$ 
04:000D1470 $$symbol$$attrCHA$$ 
04:000D1480 $$symbol$$attrREF$$ 
04:000D1490 $$symbol$$attrINT$$ 
04:000D14A0 $$symbol$$attrCON$$ 
04:000D14B0 $$symbol$$attrSTR$$ 
04:000D14C0 $$symbol$$inclAggr$$ 
04:000D14D2 $$symbol$$inclSex$$ 
04:000D14E2 $$symbol$$inclIntr$$ 
04:000D14F4 $$symbol$$inclFem$$ 
04:000D1504 $$symbol$$inclMasc$$ 
04:000D1516 $$symbol$$inclCreat$$ 
04:000D152A $$symbol$$inclCogn$$ 
04:000D153C $$symbol$$inclPhys$$ 
--- From 'Obj\core_logic.obj'
04:000D154E $$symbol$$default$$ 
--- From 'Obj\genetic.obj'
04:000D155E $$symbol$$genetic$$ 
--- From 'Obj\core_logic.obj'
04:000D156E $$symbol$$fuzzy$$ 
04:000D157A $$symbol$$reality$$ 
04:000D158A $$symbol$$individ$$ 
04:000D159A $$symbol$$error$$ 
04:000D15A6 $$symbol$$warning$$ 
04:000D15B6 $$symbol$$report$$ 
04:000D15C4 $$symbol$$event$$ 
--- From 'Obj\fuzzy.obj'
04:000D15D0 $$symbol$$nonevaluated$$ 
04:000D15EA $$symbol$$ResultOfMaxOperator$$ 
04:000D1612 $$symbol$$InferenceResult$$ 
04:000D1632 $$symbol$$EvaluationResult$$ 
--- From 'Obj\core_logic.obj'
04:000D1654 $$symbol$$ErroneousAction$$ 
--- From 'Obj\interface.obj'
04:000D1674 $$symbol$$ending$$ 
04:000D1682 $$symbol$$unsigned$$ 
04:000D1694 $$symbol$$simple-ending$$ 
04:000D16B0 $$symbol$$Ag$$ 
04:000D16B6 $$symbol$$Sx$$ 
04:000D16BC $$symbol$$In$$ 
04:000D16C2 $$symbol$$Fm$$ 
04:000D16C8 $$symbol$$Ms$$ 
04:000D16CE $$symbol$$Cr$$ 
04:000D16D4 $$symbol$$Cg$$ 
04:000D16DA $$symbol$$Ph$$ 
--- From 'Obj\profile.obj'
04:000D16E0 $$symbol$$<emptystack>$$ 
0D1000:000700 0052C0   VIPInter::VIPInter::.rdata F=4
--- From 'Obj\exe.obj'
04:000D1700 $offsetPtr$bufferSupport$0$domain$$type_library$  (Idle)
04:000D171C $offsetPtr$bufferSupport$0$domain$ 
04:000D1760 $bufferSupport$_global$0$domain$$type_library$  (Idle)
04:000D1770 $bufferSupport$_global$0$domain$ 
04:000D17A0 interface$bufferSupport 
04:000D1810 $outputStream$_global$0$domain$$type_library$ 
04:000D1820 $outputStream$_global$0$domain$ 
04:000D1850 interface$outputStream 
04:000D18C0 $inputStream$_global$0$domain$$type_library$ 
04:000D18D0 $inputStream$_global$0$domain$ 
04:000D1900 interface$inputStream 
04:000D1970 $mode$stream$0$domain$$type_library$ 
04:000D199C $mode$stream$0$domain$ 
04:000D19F0 $stream$_global$0$domain$$type_library$  (Idle)
04:000D1A00 $stream$_global$0$domain$ 
04:000D1A20 interface$stream 
04:000D1A80 $stdIOState$_global$0$domain$$type_library$ 
04:000D1A90 $stdIOState$_global$0$domain$ 
04:000D1AC0 interface$stdIOState 
04:000D1B30 $runtimeLinkNamesRun$_global$0$domain$$type_library$  (Idle)
04:000D1B40 $runtimeLinkNamesRun$_global$0$domain$ 
04:000D1B80 interface$runtimeLinkNamesRun 
04:000D1C00 $errorDescriptorInformation$_global$0$domain$$type_library$ 
04:000D1C10 $errorDescriptorInformation$_global$0$domain$ 
04:000D1C60 interface$errorDescriptorInformation 
04:000D1D10 $trapInformationObject$_global$0$domain$$type_library$  (Idle)
04:000D1D20 $trapInformationObject$_global$0$domain$ 
04:000D1D60 interface$trapInformationObject 
--- From 'Obj\interface.obj'
04:000D1E00 $resourceIdentifiers$_global$0$domain$$type_library$  (Idle)
04:000D1E10 $resourceIdentifiers$_global$0$domain$ 
04:000D1E50 interface$resourceIdentifiers 
04:000D1EC0 $genDraw$_global$0$domain$$type_library$ 
04:000D1ED0 $genDraw$_global$0$domain$ 
04:000D1EF0 interface$genDraw 
04:000D1F60 $geneticAlgorithm$_global$0$domain$$type_library$  (Idle)
04:000D1F70 $geneticAlgorithm$_global$0$domain$ 
04:000D1FB0 interface$geneticAlgorithm 
04:000D2030 $geneticPopulation$_global$0$domain$$type_library$ 
04:000D2040 $geneticPopulation$_global$0$domain$ 
04:000D2080 interface$geneticPopulation 
04:000D2100 $geneticCell$_global$0$domain$$type_library$ 
04:000D2110 $geneticCell$_global$0$domain$ 
04:000D2140 interface$geneticCell 
04:000D21B0 $fset$_global$0$domain$$type_library$ 
04:000D21C0 $fset$_global$0$domain$ 
04:000D21E0 interface$fset 
04:000D2220 $fvar$_global$0$domain$$type_library$ 
04:000D2230 $fvar$_global$0$domain$ 
04:000D2250 interface$fvar 
04:000D2290 $fset_LR$_global$0$domain$$type_library$  (Idle)
04:000D22A0 $fset_LR$_global$0$domain$ 
04:000D22C0 interface$fset_LR 
04:000D2310 $fset_ByArray$_global$0$domain$$type_library$  (Idle)
04:000D2320 $fset_ByArray$_global$0$domain$ 
04:000D2350 interface$fset_ByArray 
04:000D23B0 $fuzzyRule$_global$0$domain$$type_library$ 
04:000D23C0 $fuzzyRule$_global$0$domain$ 
04:000D23F0 interface$fuzzyRule 
04:000D2450 $fuzzyInference$_global$0$domain$$type_library$  (Idle)
04:000D2460 $fuzzyInference$_global$0$domain$ 
04:000D2490 interface$fuzzyInference 
04:000D2500 $logtype$logger$0$domain$$type_library$ 
04:000D2510 $logtype$logger$0$domain$ 
04:000D2560 $logger$_global$0$domain$$type_library$ 
04:000D2570 $logger$_global$0$domain$ 
04:000D2590 interface$logger 
--- From 'Obj\controls.obj'
04:000D25E0 $containerWindowSupport$_global$0$domain$$type_library$  (Idle)
04:000D25F0 $containerWindowSupport$_global$0$domain$ 
04:000D2630 interface$containerWindowSupport 
04:000D26E0 $windowExtension$_global$0$domain$$type_library$ 
04:000D26F0 $windowExtension$_global$0$domain$ 
04:000D2720 interface$windowExtension 
04:000D27B0 $drawWindowExtension$_global$0$domain$$type_library$ 
04:000D27C0 $drawWindowExtension$_global$0$domain$ 
04:000D2800 interface$drawWindowExtension 
04:000D28A0 $documentWindowExtension$_global$0$domain$$type_library$ 
04:000D28B0 $documentWindowExtension$_global$0$domain$ 
04:000D28F0 interface$documentWindowExtension 
04:000D29A0 $dialogExtension$_global$0$domain$$type_library$ 
04:000D29B0 $dialogExtension$_global$0$domain$ 
04:000D29E0 interface$dialogExtension 
04:000D2A70 $formWindowExtension$_global$0$domain$$type_library$ 
04:000D2A80 $formWindowExtension$_global$0$domain$ 
04:000D2AC0 interface$formWindowExtension 
04:000D2B60 $controlExtension$_global$0$domain$$type_library$ 
04:000D2B70 $controlExtension$_global$0$domain$ 
04:000D2BB0 interface$controlExtension 
04:000D2C40 $drawControlExtension$_global$0$domain$$type_library$ 
04:000D2C50 $drawControlExtension$_global$0$domain$ 
04:000D2C90 interface$drawControlExtension 
04:000D2D30 $drawControlSupport$_global$0$domain$$type_library$  (Idle)
04:000D2D40 $drawControlSupport$_global$0$domain$ 
04:000D2D80 interface$drawControlSupport 
04:000D2E30 $userControlSupport$_global$0$domain$$type_library$  (Idle)
04:000D2E40 $userControlSupport$_global$0$domain$ 
04:000D2E80 interface$userControlSupport 
04:000D2F30 $controlSupport$_global$0$domain$$type_library$  (Idle)
04:000D2F40 $controlSupport$_global$0$domain$ 
04:000D2F70 interface$controlSupport 
04:000D3010 $nullControlSupport$_global$0$domain$$type_library$  (Idle)
04:000D3020 $nullControlSupport$_global$0$domain$ 
04:000D3060 interface$nullControlSupport 
--- From 'Obj\interface.obj'
04:000D3110 $cell$_global$0$domain$$type_library$  (Idle)
04:000D3120 $cell$_global$0$domain$ 
04:000D3140 interface$cell 
04:000D3180 $individual$_global$0$domain$$type_library$ 
04:000D3190 $individual$_global$0$domain$ 
04:000D31C0 interface$individual 
04:000D3230 $reality$_global$0$domain$$type_library$ 
04:000D3240 $reality$_global$0$domain$ 
04:000D3260 interface$reality 
--- From 'Obj\controls.obj'
04:000D32C0 $versionControl$_global$0$domain$$type_library$ 
04:000D32D0 $versionControl$_global$0$domain$ 
04:000D3300 interface$versionControl 
04:000D3380 $timerControl$_global$0$domain$$type_library$  (Idle)
04:000D3390 $timerControl$_global$0$domain$ 
04:000D33C0 interface$timerControl 
04:000D3440 $containerControl$_global$0$domain$$type_library$ 
04:000D3450 $containerControl$_global$0$domain$ 
04:000D3490 interface$containerControl 
04:000D3520 $textControl$_global$0$domain$$type_library$  (Idle)
04:000D3530 $textControl$_global$0$domain$ 
04:000D3560 interface$textControl 
04:000D35E0 $state$radioButton$0$domain$$type_library$ 
04:000D35F0 $state$radioButton$0$domain$ 
04:000D3640 $radioButton$_global$0$domain$$type_library$ 
04:000D3650 $radioButton$_global$0$domain$ 
04:000D3680 interface$radioButton 
04:000D3700 $state$checkButton$0$domain$$type_library$ 
04:000D3710 $state$checkButton$0$domain$ 
04:000D3770 $checkButton$_global$0$domain$$type_library$  (Idle)
04:000D3780 $checkButton$_global$0$domain$ 
04:000D37B0 interface$checkButton 
04:000D3830 $editControl$_global$0$domain$$type_library$ 
04:000D3840 $editControl$_global$0$domain$ 
04:000D3870 interface$editControl 
04:000D38F0 $listBox$_global$0$domain$$type_library$  (Idle)
04:000D3900 $listBox$_global$0$domain$ 
04:000D3920 interface$listBox 
04:000D3990 $listControl$_global$0$domain$$type_library$  (Idle)
04:000D39A0 $listControl$_global$0$domain$ 
04:000D39D0 interface$listControl 
04:000D3A50 $listButton$_global$0$domain$$type_library$  (Idle)
04:000D3A60 $listButton$_global$0$domain$ 
04:000D3A90 interface$listButton 
04:000D3B00 $listEdit$_global$0$domain$$type_library$  (Idle)
04:000D3B10 $listEdit$_global$0$domain$ 
04:000D3B40 interface$listEdit 
04:000D3BB0 $scrollControl$_global$0$domain$$type_library$ 
04:000D3BC0 $scrollControl$_global$0$domain$ 
04:000D3BF0 interface$scrollControl 
04:000D3C70 $borderStyle$groupBox$0$domain$$type_library$ 
04:000D3C80 $borderStyle$groupBox$0$domain$ 
04:000D3D30 $groupBox$_global$0$domain$$type_library$  (Idle)
04:000D3D40 $groupBox$_global$0$domain$ 
04:000D3D70 interface$groupBox 
04:000D3DE0 $iconControl$_global$0$domain$$type_library$  (Idle)
04:000D3DF0 $iconControl$_global$0$domain$ 
04:000D3E20 interface$iconControl 
04:000D3EA0 $radioButtonGroup$_global$0$domain$$type_library$ 
04:000D3EB0 $radioButtonGroup$_global$0$domain$ 
04:000D3EF0 interface$radioButtonGroup 
04:000D3F80 $integerControl$_global$0$domain$$type_library$  (Idle)
04:000D3F90 $integerControl$_global$0$domain$ 
04:000D3FC0 interface$integerControl 
04:000D4040 $realControl$_global$0$domain$$type_library$  (Idle)
04:000D4050 $realControl$_global$0$domain$ 
04:000D4080 interface$realControl 
04:000D4100 $actionResponse$button$0$domain$$type_library$  (Idle)
04:000D4110 $actionResponse$button$0$domain$ 
04:000D4180 $button$_global$0$domain$$type_library$ 
04:000D4190 $button$_global$0$domain$ 
04:000D41B0 interface$button 
04:000D4210 $closeResponse$frameDecoration$0$domain$$type_library$  (Idle)
04:000D4220 $closeResponse$frameDecoration$0$domain$ 
04:000D42C0 $border$frameDecoration$0$domain$$type_library$  (Idle)
04:000D42D0 $border$frameDecoration$0$domain$ 
04:000D4360 $decorationButton$frameDecoration$0$domain$$type_library$ 
04:000D4370 $decorationButton$frameDecoration$0$domain$ 
04:000D4410 $decoration$frameDecoration$0$domain$$type_library$  (Idle)
04:000D443C $decoration$frameDecoration$0$domain$ 
04:000D4490 $frameDecoration$_global$0$domain$$type_library$  (Idle)
04:000D44A0 $frameDecoration$_global$0$domain$ 
04:000D44D0 interface$frameDecoration 
04:000D4540 $validateResult$dialog$0$domain$$type_library$  (Idle)
04:000D456C $validateResult$dialog$0$domain$ 
04:000D45E0 $unit$dialog$0$domain$$type_library$  (Idle)
04:000D45F0 $unit$dialog$0$domain$ 
04:000D4650 $dialog$_global$0$domain$$type_library$ 
04:000D4660 $dialog$_global$0$domain$ 
04:000D4680 interface$dialog 
04:000D46D0 $nativeResponse$window$0$domain$$type_library$  (Idle)
04:000D46F4 $nativeResponse$window$0$domain$ 
04:000D4780 $contextMenuInput$window$0$domain$$type_library$  (Idle)
04:000D47A4 $contextMenuInput$window$0$domain$ 
04:000D4800 $contextMenuResponse$window$0$domain$$type_library$  (Idle)
04:000D4810 $contextMenuResponse$window$0$domain$ 
04:000D48B0 $window$_global$0$domain$$type_library$ 
04:000D48C0 $window$_global$0$domain$ 
04:000D48E0 interface$window 
04:000D4930 $containerWindow$_global$0$domain$$type_library$ 
04:000D4940 $containerWindow$_global$0$domain$ 
04:000D4970 interface$containerWindow 
04:000D49E0 $anchorEdge$control$0$domain$$type_library$ 
04:000D49F0 $anchorEdge$control$0$domain$ 
04:000D4A60 $validateResult$control$0$domain$$type_library$  (Idle)
04:000D4A8C $validateResult$control$0$domain$ 
04:000D4B00 $control$_global$0$domain$$type_library$ 
04:000D4B10 $control$_global$0$domain$ 
04:000D4B30 interface$control 
04:000D4B80 $documentWindow$_global$0$domain$$type_library$ 
04:000D4B90 $documentWindow$_global$0$domain$ 
04:000D4BC0 interface$documentWindow 
04:000D4C30 $childWindow$_global$0$domain$$type_library$  (Idle)
04:000D4C40 $childWindow$_global$0$domain$ 
04:000D4C70 interface$childWindow 
04:000D4CD0 $endSessionResponse$applicationWindow$0$domain$$type_library$  (Idle)
04:000D4CE0 $endSessionResponse$applicationWindow$0$domain$ 
04:000D4DA0 $applicationWindow$_global$0$domain$$type_library$ 
04:000D4DB0 $applicationWindow$_global$0$domain$ 
04:000D4DF0 interface$applicationWindow 
04:000D4E70 $formWindow$_global$0$domain$$type_library$  (Idle)
04:000D4E80 $formWindow$_global$0$domain$ 
04:000D4EB0 interface$formWindow 
04:000D4F10 $keyUpResponse$drawWindow$0$domain$$type_library$  (Idle)
04:000D4F20 $keyUpResponse$drawWindow$0$domain$ 
04:000D4FA0 $keyDownResponse$drawWindow$0$domain$$type_library$  (Idle)
04:000D4FB0 $keyDownResponse$drawWindow$0$domain$ 
04:000D5040 $charResponse$drawWindow$0$domain$$type_library$  (Idle)
04:000D5050 $charResponse$drawWindow$0$domain$ 
04:000D50D0 $eraseBackgroundResponse$drawWindow$0$domain$$type_library$  (Idle)
04:000D50E0 $eraseBackgroundResponse$drawWindow$0$domain$ 
04:000D51C0 $scrollInfo$drawWindow$0$domain$$type_library$  (Idle)
04:000D51EC $scrollInfo$drawWindow$0$domain$ 
04:000D5230 $scrollBarInfoRgState$drawWindow$0$domain$$type_library$ 
04:000D5260 $scrollBarInfoRgState$drawWindow$0$domain$ 
04:000D52D0 $scrollBarInfo$drawWindow$0$domain$$type_library$  (Idle)
04:000D52FC $scrollBarInfo$drawWindow$0$domain$ 
04:000D5350 $drawWindow$_global$0$domain$$type_library$ 
04:000D5360 $drawWindow$_global$0$domain$ 
04:000D5390 interface$drawWindow 
04:000D53F0 $windowGDI$_global$0$domain$$type_library$ 
04:000D5400 $windowGDI$_global$0$domain$ 
04:000D5430 interface$windowGDI 
04:000D5490 $pictureCanvas$_global$0$domain$$type_library$  (Idle)
04:000D54A0 $pictureCanvas$_global$0$domain$ 
04:000D54D0 interface$pictureCanvas 
--- From 'Obj\messageControl.obj'
04:000D5540 $messageControl$_global$0$domain$$type_library$ 
04:000D5550 $messageControl$_global$0$domain$ 
04:000D5580 interface$messageControl 
04:000D5620 $verticalSize$messageForm$0$domain$$type_library$ 
04:000D5648 $verticalSize$messageForm$0$domain$ 
04:000D56B0 $messageForm$_global$0$domain$$type_library$ 
04:000D56C0 $messageForm$_global$0$domain$ 
04:000D56F0 interface$messageForm 
--- From 'Obj\interface.obj'
04:000D5780 $formBasic$_global$0$domain$$type_library$  (Idle)
04:000D5790 $formBasic$_global$0$domain$ 
04:000D57C0 interface$formBasic 
04:000D5820 $fmIDList$_global$0$domain$$type_library$  (Idle)
04:000D5830 $fmIDList$_global$0$domain$ 
04:000D5860 interface$fmIDList 
04:000D58C0 $fmMain$_global$0$domain$$type_library$  (Idle)
04:000D58D0 $fmMain$_global$0$domain$ 
04:000D58F0 interface$fmMain 
04:000D5940 $dlgLogProperties$_global$0$domain$$type_library$  (Idle)
04:000D5950 $dlgLogProperties$_global$0$domain$ 
04:000D5990 interface$dlgLogProperties 
04:000D5A10 $corner_value$polygonalMeter$0$domain$$type_library$ 
04:000D5A30 $corner_value$polygonalMeter$0$domain$ 
04:000D5A80 $polygonalMeter$_global$0$domain$$type_library$ 
04:000D5A90 $polygonalMeter$_global$0$domain$ 
04:000D5AC0 interface$polygonalMeter 
04:000D5B30 $paramMeterValue$paramMeter$0$domain$$type_library$ 
04:000D5B68 $paramMeterValue$paramMeter$0$domain$ 
04:000D5BB0 $paramMeter$_global$0$domain$$type_library$ 
04:000D5BC0 $paramMeter$_global$0$domain$ 
04:000D5BF0 interface$paramMeter 
04:000D5C50 $fmViewIndividual$_global$0$domain$$type_library$ 
04:000D5C60 $fmViewIndividual$_global$0$domain$ 
04:000D5CA0 interface$fmViewIndividual 
04:000D5D20 $aboutDialog$_global$0$domain$$type_library$  (Idle)
04:000D5D30 $aboutDialog$_global$0$domain$ 
04:000D5D60 interface$aboutDialog 
04:000D5DD0 $taskWindow$_global$0$domain$$type_library$  (Idle)
04:000D5DE0 $taskWindow$_global$0$domain$ 
04:000D5E10 interface$taskWindow 
--- From 'Obj\exe.obj'
04:000D5E80 $outputStream_string$_global$0$domain$$type_library$ 
04:000D5E90 $outputStream_string$_global$0$domain$ 
04:000D5ED0 interface$outputStream_string 
--- From 'Obj\exceptionDump.obj'
04:000D5F60 $timeInterval$_global$0$domain$$type_library$  (Idle)
04:000D5F70 $timeInterval$_global$0$domain$ 
04:000D5FA0 interface$timeInterval 
04:000D6010 $timeZone$timeFormatter$0$domain$$type_library$ 
04:000D6034 $timeZone$timeFormatter$0$domain$ 
04:000D6070 $daylightSavingScheme$timeFormatter$0$domain$$type_library$ 
04:000D60A4 $daylightSavingScheme$timeFormatter$0$domain$ 
04:000D6130 $transitionDate$timeFormatter$0$domain$$type_library$ 
04:000D6174 $transitionDate$timeFormatter$0$domain$ 
04:000D61F0 $timeFormatter$_global$0$domain$$type_library$ 
04:000D6200 $timeFormatter$_global$0$domain$ 
04:000D6230 interface$timeFormatter 
04:000D62A0 $time$_global$0$domain$$type_library$ 
04:000D62B0 $time$_global$0$domain$ 
04:000D62D0 interface$time 
04:000D6320 $gmtTime$_global$0$domain$$type_library$  (Idle)
04:000D6330 $gmtTime$_global$0$domain$ 
04:000D6350 interface$gmtTime 
04:000D63B0 $calendarInterval$_global$0$domain$$type_library$  (Idle)
04:000D63C0 $calendarInterval$_global$0$domain$ 
04:000D6400 interface$calendarInterval 
--- From 'Obj\core.obj'
04:000D6480 $object$_global$0$domain$$type_library$ 
--- From 'Obj\exceptionDump.obj'
04:000D6490 $object$_global$0$domain$ 
--- From 'Obj\binary.obj'
04:000D64B0 interface$object 
04:000D64F0 $outputStream_binary$_global$0$domain$$type_library$  (Idle)
04:000D6500 $outputStream_binary$_global$0$domain$ 
04:000D6540 interface$outputStream_binary 
04:000D65D0 $outputBuffer$_global$0$domain$$type_library$ 
04:000D65E0 $outputBuffer$_global$0$domain$ 
04:000D6610 interface$outputBuffer 
04:000D66B0 $outputSupport$_global$0$domain$$type_library$  (Idle)
04:000D66C0 $outputSupport$_global$0$domain$ 
04:000D66F0 interface$outputSupport 
04:000D6790 $inputBuffer$_global$0$domain$$type_library$ 
04:000D67A0 $inputBuffer$_global$0$domain$ 
04:000D67D0 interface$inputBuffer 
04:000D6860 $inputSupport$_global$0$domain$$type_library$  (Idle)
04:000D6870 $inputSupport$_global$0$domain$ 
04:000D68A0 interface$inputSupport 
--- From 'Obj\regExp.obj'
04:000D6930 $regExp$_global$0$domain$$type_library$  (Idle)
04:000D6940 $regExp$_global$0$domain$ 
04:000D6960 interface$regExp 
0D1000:0059C0 0247E8   .rdata::.rdata::.rdata F=4
--- From '.\Release\VIPDll.obj'
04:000DFFE8 _VIPStartOfDictionary 
--- From '.\vp_rand___Win32_Release\rand.obj'
04:000FB1A0 __real@8@3fe08000003a88607000 
0D1000:02A1B0 063740   VIPClass::VIPClass::.rdata F=4
--- From 'Obj\Toolbars.obj'
04:000FB1B0 class$statusLine 
--- From 'Obj\TaskWindow.obj'
04:000FB230 class$aboutDialog 
04:000FCEF0 class$aboutDialog$vtable$  (Idle)
04:000FD660 class$taskWindow 
04:000FE9FC class$taskWindow$vtable$  (Idle)
--- From 'Obj\user_logic.obj'
04:000FEEA0 class$reality 
04:000FEF48 class$reality$vtable$ 
04:000FF040 class$individual 
04:000FF1E0 class$individual$vtable$ 
04:000FF390 class$cell 
04:000FF45C class$cell$vtable$ 
--- From 'Obj\log.obj'
04:000FF5A0 class$logger 
04:000FF6D0 class$logger$vtable$ 
04:000FF890 class$errorHandler 
--- From 'Obj\vp_rand.obj'
04:000FF960 class$rnd 
--- From 'Obj\vp_genetic.obj'
04:000FF9C0 class$geneticAlgorithm 
04:000FFA6C class$geneticAlgorithm$vtable$ 
04:000FFBF0 class$geneticPopulation 
04:000FFD3C class$geneticPopulation$vtable$ 
--- From 'Obj\genDraw.obj'
04:000FFF20 class$genDraw 
04:00101CA0 class$genDraw$vtable$  (Idle)
--- From 'Obj\genetic.obj'
04:00102460 class$geneticSettings 
04:00102670 class$geneticProcess 
--- From 'Obj\fuzzy.obj'
04:001027C0 class$fvar 
04:001028A0 class$fvar$vtable$ 
04:001029C0 class$fset_LR 
04:00102A3C class$fset_LR$vtable$ 
04:00102B10 class$fuzzySupport 
--- From 'Obj\interface.obj'
04:00102B3C $fClause$fuzzySupport$0$domain$ 
--- From 'Obj\core_logic.obj'
04:00102B54 $fClause$fuzzySupport$0$domain$$type_library$ 
--- From 'Obj\fuzzy.obj'
04:00102B70 $mf_stored$fuzzySupport$0$domain$ 
04:00102B88 $mf_stored$fuzzySupport$0$domain$$type_library$ 
04:00102C80 class$fset_ByArray 
04:00102D44 class$fset_ByArray$vtable$ 
04:00102E70 class$fuzzyRule 
04:00102F64 class$fuzzyRule$vtable$ 
04:00103100 class$fuzzyInference 
04:00103254 class$fuzzyInference$vtable$ 
--- From 'Obj\core_logic.obj'
04:00103480 class$alife 
04:00103620 class$alifeSettings 
--- From 'Obj\interface.obj'
04:00103654 $ending$alifeSettings$0$domain$ 
--- From 'Obj\core_logic.obj'
04:0010366C $ending$alifeSettings$0$domain$$type_library$ 
--- From 'Obj\main.obj'
04:001039F0 class$_builtIn 
--- From 'Obj\binary.obj'
04:00103A0C $integer$_builtIn$0$domain$ 
--- From 'Obj\core.obj'
04:00103A24 $integer$_builtIn$0$domain$$type_library$ 
--- From 'Obj\binary.obj'
04:00103A28 $unsigned$_builtIn$0$domain$ 
--- From 'Obj\exe.obj'
04:00103A40 $unsigned$_builtIn$0$domain$$type_library$ 
--- From 'Obj\binary.obj'
04:00103A44 $real$_builtIn$0$domain$ 
--- From 'Obj\core.obj'
04:00103A68 $real$_builtIn$0$domain$$type_library$ 
--- From 'Obj\main.obj'
04:00103A6C $$byte$_builtIn$0$domain$ 
04:00103A84 $$byte$_builtIn$0$domain$$type_library$  (Idle)
--- From 'Obj\binary.obj'
04:00103A88 $string$_builtIn$0$domain$ 
--- From 'Obj\core.obj'
04:00103A94 $string$_builtIn$0$domain$$type_library$ 
--- From 'Obj\profile.obj'
04:00103A98 $symbol$_builtIn$0$domain$ 
04:00103AA4 $symbol$_builtIn$0$domain$$type_library$ 
--- From 'Obj\exceptionDump.obj'
04:00103AA8 $string8$_builtIn$0$domain$ 
--- From 'Obj\core.obj'
04:00103AB4 $string8$_builtIn$0$domain$$type_library$ 
--- From 'Obj\exceptionDump.obj'
04:00103AB8 $char$_builtIn$0$domain$ 
--- From 'Obj\console.obj'
04:00103AC4 $char$_builtIn$0$domain$$type_library$ 
--- From 'Obj\exceptionDump.obj'
04:00103AC8 $binary$_builtIn$0$domain$ 
--- From 'Obj\core.obj'
04:00103AD4 $binary$_builtIn$0$domain$$type_library$ 
--- From 'Obj\exceptionDump.obj'
04:00103AD8 $pointer$_builtIn$0$domain$ 
--- From 'Obj\binary.obj'
04:00103AE4 $pointer$_builtIn$0$domain$$type_library$ 
--- From 'Obj\controls.obj'
04:00103AE8 $prolog$arrowtype$$_builtIn$0$domain$ 
04:00103AF4 $prolog$arrowtype$$_builtIn$0$domain$$type_library$ 
--- From 'Obj\main.obj'
04:00103AF8 $arrowtype$$_builtIn$0$domain$ 
--- From 'Obj\programControl.obj'
04:00103B04 $arrowtype$$_builtIn$0$domain$$type_library$ 
--- From 'Obj\main.obj'
04:00103B08 $factdb$_builtIn$0$domain$ 
04:00103B14 $factdb$_builtIn$0$domain$$type_library$  (Idle)
--- From 'Obj\exception.obj'
04:00103B30 $*$_builtIn$1$domain$ 
--- From 'Obj\main.obj'
04:00103B54 $domEmptyTypeLib$_builtIn$0$domain$ 
04:00103B6C $domEmptyTypeLib$_builtIn$0$domain$$type_library$  (Idle)
--- From 'Obj\boolean.obj'
04:00103B70 $boolean$_builtIn$0$domain$ 
--- From 'Obj\console.obj'
04:00103B8C $boolean$_builtIn$0$domain$$type_library$ 
--- From 'Obj\main.obj'
04:00103B90 $compareResult$_builtIn$0$domain$ 
04:00103BB0 $compareResult$_builtIn$0$domain$$type_library$  (Idle)
--- From 'Obj\exe.obj'
04:00103D70 class$_global 
--- From 'Obj\main.obj'
04:00103DB0 class$main 
--- From 'Obj\interface.obj'
04:00103DF0 class$formBasic 
04:001066A4 class$formBasic$vtable$  (Idle)
04:001072B0 class$fmIDList 
04:00109A14 class$fmIDList$vtable$  (Idle)
04:0010A4B0 class$fmMain 
04:0010CCBC class$fmMain$vtable$  (Idle)
04:0010D850 class$dlgLogProperties 
04:0010F510 class$dlgLogProperties$vtable$  (Idle)
04:0010FC90 class$polygonalMeter 
04:001118BC class$polygonalMeter$vtable$  (Idle)
04:00112050 class$paramMeter 
04:00113C78 class$paramMeter$vtable$  (Idle)
04:001143F0 class$fmViewIndividual 
04:00116B84 class$fmViewIndividual$vtable$  (Idle)
--- From 'Obj\windowsAPI.obj'
04:001176D0 class$windowsAPI 
--- From 'Obj\time_api.obj'
04:00117740 class$time_api 
04:001177C0 class$time_native 
--- From 'Obj\time.obj'
04:0011781C $systemTime$time_native$0$domain$ 
--- From 'Obj\time_api.obj'
04:00117834 $systemTime$time_native$0$domain$$type_library$  (Idle)
04:00117978 $timeZoneAPI$time_native$0$domain$ 
04:00117990 $timeZoneAPI$time_native$0$domain$$type_library$  (Idle)
--- From 'Obj\systemInformation_api.obj'
04:00117A60 class$systemInformation_native 
04:00117ACC $system_Info$systemInformation_native$0$domain$ 
04:00117AE4 $system_Info$systemInformation_native$0$domain$$type_library$  (Idle)
04:00117E14 $osVersionInfo$systemInformation_native$0$domain$ 
04:00117E2C $osVersionInfo$systemInformation_native$0$domain$$type_library$  (Idle)
04:0011817C $osVersionInfoEX$systemInformation_native$0$domain$ 
04:00118194 $osVersionInfoEX$systemInformation_native$0$domain$$type_library$  (Idle)
04:00118300 class$systemInformation_api 
--- From 'Obj\string8_api.obj'
04:001183D0 class$string8_native 
04:00118470 class$string8_api 
--- From 'Obj\string_api.obj'
04:00118500 class$string_native 
--- From 'Obj\runTime_api.obj'
04:00118590 class$runtime_api 
--- From 'Obj\registry_api.obj'
04:00118790 class$registry_native 
04:001187B8 $pUnsigned$registry_native$0$domain$ 
04:001187D0 $pUnsigned$registry_native$0$domain$$type_library$  (Idle)
04:001187E8 $securityAttr$registry_native$0$domain$ 
04:00118800 $securityAttr$registry_native$0$domain$$type_library$  (Idle)
04:001188E0 class$registry_api 
--- From 'Obj\memory_api.obj'
04:001189C0 class$memory_native 
04:00118A0C $process_memory_counters$memory_native$0$domain$ 
04:00118A24 $process_memory_counters$memory_native$0$domain$$type_library$  (Idle)
04:00118A4C $memory_basic_information$memory_native$0$domain$ 
04:00118A64 $memory_basic_information$memory_native$0$domain$$type_library$  (Idle)
04:00118AB0 $memoryStatusEx$memory_native$0$domain$ 
04:00118AC8 $memoryStatusEx$memory_native$0$domain$$type_library$  (Idle)
--- From 'Obj\locale_api.obj'
04:00118BF0 class$locale_api 
04:00118C80 class$locale_native 
--- From 'Obj\gui_api.obj'
04:00118D10 class$gui_api 
04:00118D80 class$gui_Native 
04:00118DB4 $mouseMovePoint$gui_Native$0$domain$ 
04:00118DCC $mouseMovePoint$gui_Native$0$domain$$type_library$  (Idle)
04:00118DE4 $security_attributes$gui_Native$0$domain$ 
04:00118DFC $security_attributes$gui_Native$0$domain$$type_library$  (Idle)
04:00118E38 $security_descriptor$gui_Native$0$domain$ 
04:00118E50 $security_descriptor$gui_Native$0$domain$$type_library$  (Idle)
04:00118E80 $acl$gui_Native$0$domain$ 
04:00118E98 $acl$gui_Native$0$domain$$type_library$ 
04:00118EB4 $trackMouseEvent$gui_Native$0$domain$ 
04:00118ECC $trackMouseEvent$gui_Native$0$domain$$type_library$  (Idle)
04:00118EF4 $msg$gui_Native$0$domain$ 
04:00118F0C $msg$gui_Native$0$domain$$type_library$  (Idle)
04:00118F40 $wndClass$gui_Native$0$domain$ 
04:00118F58 $wndClass$gui_Native$0$domain$$type_library$  (Idle)
04:00118F80 $windowPos$gui_Native$0$domain$ 
04:00118F98 $windowPos$gui_Native$0$domain$$type_library$  (Idle)
04:00118FD0 $windowPlacement$gui_Native$0$domain$ 
04:00118FE8 $windowPlacement$gui_Native$0$domain$$type_library$  (Idle)
04:0011905C $windowInfo$gui_Native$0$domain$ 
04:00119074 $windowInfo$gui_Native$0$domain$$type_library$  (Idle)
04:001190B0 $dlgTemplate$gui_Native$0$domain$ 
04:001190C8 $dlgTemplate$gui_Native$0$domain$$type_library$  (Idle)
04:001190EC $accel$gui_Native$0$domain$ 
04:00119104 $accel$gui_Native$0$domain$$type_library$  (Idle)
04:0011913C $menuItemInfo$gui_Native$0$domain$ 
04:00119154 $menuItemInfo$gui_Native$0$domain$$type_library$  (Idle)
04:00119174 $drawTextParams$gui_Native$0$domain$ 
04:0011918C $drawTextParams$gui_Native$0$domain$$type_library$  (Idle)
04:001191C4 $paintStruct$gui_Native$0$domain$ 
04:001191DC $paintStruct$gui_Native$0$domain$$type_library$  (Idle)
04:001191FC $iconInfo$gui_Native$0$domain$ 
04:00119214 $iconInfo$gui_Native$0$domain$$type_library$  (Idle)
04:0011923C $scrollInfo$gui_Native$0$domain$ 
04:00119254 $scrollInfo$gui_Native$0$domain$$type_library$  (Idle)
04:0011929C $scrollBarInfo$gui_Native$0$domain$ 
04:001192B4 $scrollBarInfo$gui_Native$0$domain$$type_library$  (Idle)
--- From 'Obj\controls.obj'
04:001192CC $logbrush$gui_Native$0$domain$ 
--- From 'Obj\gui_api.obj'
04:001192E4 $logbrush$gui_Native$0$domain$$type_library$  (Idle)
04:001192F8 $tagInitCommonControlsEx$gui_Native$0$domain$ 
04:00119310 $tagInitCommonControlsEx$gui_Native$0$domain$$type_library$  (Idle)
--- From 'Obj\fileSystem_api.obj'
04:001196E0 class$fileSystem_native 
04:00119708 $pointerToI32$fileSystem_native$0$domain$ 
04:00119720 $pointerToI32$fileSystem_native$0$domain$$type_library$  (Idle)
04:00119738 $securityAttributes$fileSystem_native$0$domain$ 
04:00119750 $securityAttributes$fileSystem_native$0$domain$$type_library$  (Idle)
04:00119790 $fileInfo$fileSystem_native$0$domain$ 
04:001197A8 $fileInfo$fileSystem_native$0$domain$$type_library$  (Idle)
04:001197D8 $fileAttributesInfo$fileSystem_native$0$domain$ 
04:001197F0 $fileAttributesInfo$fileSystem_native$0$domain$$type_library$  (Idle)
--- From 'Obj\fileSystem.obj'
04:0011981C $shFileOpStruct$fileSystem_native$0$domain$ 
--- From 'Obj\fileSystem_api.obj'
04:00119834 $shFileOpStruct$fileSystem_native$0$domain$$type_library$  (Idle)
--- From 'Obj\fileSystem.obj'
04:00119860 $browseinfo$fileSystem_native$0$domain$ 
--- From 'Obj\fileSystem_api.obj'
04:00119878 $browseinfo$fileSystem_native$0$domain$$type_library$  (Idle)
04:00119894 $file_notify_information$fileSystem_native$0$domain$ 
04:001198AC $file_notify_information$fileSystem_native$0$domain$$type_library$  (Idle)
04:001198CC $overlapped$fileSystem_native$0$domain$ 
04:001198E4 $overlapped$fileSystem_native$0$domain$$type_library$  (Idle)
04:00119B00 class$fileSystem_api 
04:00119B1C $fileAttributeAtom$fileSystem_api$0$domain$ 
04:00119B54 $fileAttributeAtom$fileSystem_api$0$domain$$type_library$  (Idle)
04:00119B58 $accessPermit$fileSystem_api$0$domain$ 
04:00119B7C $accessPermit$fileSystem_api$0$domain$$type_library$  (Idle)
--- From 'Obj\exe_api.obj'
04:00119D90 class$exe_native 
04:00119DF0 $shellExecuteInfo$exe_native$0$domain$ 
04:00119E08 $shellExecuteInfo$exe_native$0$domain$$type_library$  (Idle)
04:00119EB0 class$exe_api 
--- From 'Obj\environment_api.obj'
04:00119F20 class$environment_native 
--- From 'Obj\console_api.obj'
04:00119FD0 class$console_api 
04:0011A060 class$console_native 
04:0011A0CC $consoleScreenBufferInfo$console_native$0$domain$ 
04:0011A0E4 $consoleScreenBufferInfo$console_native$0$domain$$type_library$  (Idle)
--- From 'Obj\vpitoolbar.obj'
04:0011A1B0 class$vpiToolbar 
04:0011A208 $style$vpiToolbar$0$domain$ 
04:0011A234 $style$vpiToolbar$0$domain$$type_library$ 
04:0011A238 $control_style$vpiToolbar$0$domain$ 
04:0011A254 $control_style$vpiToolbar$0$domain$$type_library$ 
04:0011A258 $text_style$vpiToolbar$0$domain$ 
04:0011A274 $text_style$vpiToolbar$0$domain$$type_library$ 
04:0011A2F4 $control$vpiToolbar$0$domain$ 
04:0011A31C $control$vpiToolbar$0$domain$$type_library$ 
04:0011A354 $value$vpiToolbar$0$domain$ 
04:0011A378 $value$vpiToolbar$0$domain$$type_library$  (Idle)
--- From 'Obj\vpiEditor.obj'
04:0011AA90 class$vpiEditor 
04:0011AAC4 $hyper_event$vpiEditor$0$domain$ 
04:0011AAE0 $hyper_event$vpiEditor$0$domain$$type_library$  (Idle)
04:0011AAF4 $assoc$vpiEditor$0$domain$ 
04:0011AB0C $assoc$vpiEditor$0$domain$$type_library$  (Idle)
04:0011AB24 $leftMargin$vpiEditor$0$domain$ 
04:0011AB3C $leftMargin$vpiEditor$0$domain$$type_library$  (Idle)
04:0011AB40 $colorType$vpiEditor$0$domain$ 
04:0011ABAC $colorType$vpiEditor$0$domain$$type_library$ 
04:0011ABC4 $colorSettings$vpiEditor$0$domain$ 
04:0011ABDC $colorSettings$vpiEditor$0$domain$$type_library$ 
04:0011ABF4 $colorOption$vpiEditor$0$domain$ 
04:0011AC0C $colorOption$vpiEditor$0$domain$$type_library$ 
04:0011AC10 $bookmarkType$vpiEditor$0$domain$ 
04:0011AC28 $bookmarkType$vpiEditor$0$domain$$type_library$ 
04:0011AC40 $bookmarkItem$vpiEditor$0$domain$ 
04:0011AC58 $bookmarkItem$vpiEditor$0$domain$$type_library$  (Idle)
04:0011AC5C $editorFunction$vpiEditor$0$domain$ 
04:0011AC94 $editorFunction$vpiEditor$0$domain$$type_library$  (Idle)
04:0011ACD8 $re_pattern_buffer$vpiEditor$0$domain$ 
04:0011ACF0 $re_pattern_buffer$vpiEditor$0$domain$$type_library$  (Idle)
04:0011AD00 $p_regoff_t$vpiEditor$0$domain$ 
04:0011AD18 $p_regoff_t$vpiEditor$0$domain$$type_library$ 
04:0011AD30 $re_registers$vpiEditor$0$domain$ 
04:0011AD48 $re_registers$vpiEditor$0$domain$$type_library$  (Idle)
04:0011AD5C $regmatch_t$vpiEditor$0$domain$ 
04:0011AD74 $regmatch_t$vpiEditor$0$domain$$type_library$  (Idle)
04:0011B3B0 class$runtimeLinkNamesEdit 
--- From 'Obj\vpiDomains.obj'
04:0011B450 class$vpiOwnerDraw 
04:0011B4D0 class$vpiDomains 
--- From 'Obj\controlSupport.obj'
04:0011B4FC $pnt$vpiDomains$0$domain$ 
--- From 'Obj\controls.obj'
04:0011B514 $pnt$vpiDomains$0$domain$$type_library$ 
04:0011B530 $rct$vpiDomains$0$domain$ 
04:0011B548 $rct$vpiDomains$0$domain$$type_library$ 
--- From 'Obj\vpiDomains.obj'
04:0011B55C $brush$vpiDomains$0$domain$ 
04:0011B574 $brush$vpiDomains$0$domain$$type_library$ 
04:0011B58C $pen$vpiDomains$0$domain$ 
04:0011B5A4 $pen$vpiDomains$0$domain$$type_library$ 
04:0011B5CC $drawtools$vpiDomains$0$domain$ 
04:0011B5E4 $drawtools$vpiDomains$0$domain$$type_library$  (Idle)
--- From 'Obj\messageControl.obj'
04:0011B610 $menu$vpiDomains$0$domain$ 
--- From 'Obj\gui.obj'
04:0011B630 $menu$vpiDomains$0$domain$$type_library$ 
--- From 'Obj\vpiDomains.obj'
04:0011B634 $keyModifier$vpiDomains$0$domain$ 
04:0011B64C $keyModifier$vpiDomains$0$domain$$type_library$ 
04:0011B668 $acceleratorKey$vpiDomains$0$domain$ 
04:0011B684 $acceleratorKey$vpiDomains$0$domain$$type_library$ 
--- From 'Obj\messageControl.obj'
04:0011B6E4 $menuItem$vpiDomains$0$domain$ 
--- From 'Obj\vpiDomains.obj'
04:0011B708 $menuItem$vpiDomains$0$domain$$type_library$ 
--- From 'Obj\controlSupport.obj'
04:0011B930 $event$vpiDomains$0$domain$ 
--- From 'Obj\gui.obj'
04:0011B9D0 $event$vpiDomains$0$domain$$type_library$ 
--- From 'Obj\vpiDomains.obj'
04:0011B9E8 $handledFlag$vpiDomains$0$domain$ 
04:0011BA04 $handledFlag$vpiDomains$0$domain$$type_library$  (Idle)
04:0011BA50 $controlInfo$vpiDomains$0$domain$ 
04:0011BA84 $controlInfo$vpiDomains$0$domain$$type_library$ 
04:0011BAC0 $stateInfo$vpiDomains$0$domain$ 
04:0011BAEC $stateInfo$vpiDomains$0$domain$$type_library$ 
--- From 'Obj\controlSupport.obj'
04:0011BBCC $windef$vpiDomains$0$domain$ 
--- From 'Obj\vpiDomains.obj'
04:0011BC00 $windef$vpiDomains$0$domain$$type_library$  (Idle)
--- From 'Obj\controlSupport.obj'
04:0011BC1C $wdef$vpiDomains$0$domain$ 
--- From 'Obj\vpiDomains.obj'
04:0011BC34 $wdef$vpiDomains$0$domain$$type_library$ 
04:0011BC4C $accelerator$vpiDomains$0$domain$ 
04:0011BC64 $accelerator$vpiDomains$0$domain$$type_library$  (Idle)
04:0011BC8C $bitmapId$vpiDomains$0$domain$ 
04:0011BCAC $bitmapId$vpiDomains$0$domain$$type_library$ 
04:0011BCC0 $ddeserviceInfo$vpiDomains$0$domain$ 
04:0011BCD8 $ddeserviceInfo$vpiDomains$0$domain$$type_library$  (Idle)
04:0011BD08 $ddedata$vpiDomains$0$domain$ 
04:0011BD2C $ddedata$vpiDomains$0$domain$$type_library$ 
04:0011BE00 $ddeevent$vpiDomains$0$domain$ 
04:0011BE48 $ddeevent$vpiDomains$0$domain$$type_library$ 
04:0011BE4C $alignment$vpiDomains$0$domain$ 
04:0011BE6C $alignment$vpiDomains$0$domain$$type_library$  (Idle)
--- From 'Obj\vpi.obj'
04:0011C6F0 class$vpiDde 
04:0011C740 class$vpiCommonDialogs 
04:0011C920 class$vpi 
--- From 'Obj\time.obj'
04:0011CA70 class$time_exception 
04:0011CAE0 class$timeInterval 
04:0011CB44 class$timeInterval$vtable$ 
04:0011CC40 class$timeFormatter 
04:0011CDE4 class$timeFormatter$vtable$ 
04:0011D080 class$time 
04:0011D204 class$time$vtable$ 
04:0011D350 class$gmtTime 
04:0011D3B4 class$gmtTime$vtable$ 
04:0011D490 class$calendarInterval 
04:0011D56C class$calendarInterval$vtable$ 
--- From 'Obj\templateExpander.obj'
04:0011D6B0 class$templateExpander 
--- From 'Obj\string8.obj'
04:0011D740 class$string8 
--- From 'Obj\string.obj'
04:0011D830 class$string_exception 
04:0011D8B0 class$outputStream_string 
04:0011DB64 class$outputStream_string$vtable$  (Idle)
04:0011DE10 class$inputStream_string 
04:0011E06C class$inputStream_string$vtable$  (Idle)
04:0011E290 class$string_local 
04:0011E300 class$string 
04:0011E31C $caseSensitivity$string$0$domain$ 
04:0011E33C $caseSensitivity$string$0$domain$$type_library$  (Idle)
04:0011E340 $adjustBehaviour$string$0$domain$ 
04:0011E360 $adjustBehaviour$string$0$domain$$type_library$  (Idle)
04:0011E364 $adjustSide$string$0$domain$ 
04:0011E380 $adjustSide$string$0$domain$$type_library$  (Idle)
--- From 'Obj\stream.obj'
04:0011E5D0 class$stream_exception 
04:0011E650 class$stdio 
04:0011E710 class$stdIOState 
04:0011E7A4 class$stdIOState$vtable$ 
--- From 'Obj\binary.obj'
04:0011E8B0 class$outputSupport 
04:0011E95C class$outputSupport$vtable$ 
04:0011EB00 class$inputSupport 
04:0011EB94 class$inputSupport$vtable$ 
--- From 'Obj\std.obj'
04:0011ECD0 class$std 
--- From 'Obj\registry.obj'
04:0011ED20 class$registry_exception 
04:0011EDB0 class$registry 
04:0011EDCC $rootKey$registry$0$domain$ 
04:0011EDFC $rootKey$registry$0$domain$$type_library$  (Idle)
--- From 'Obj\regExp.obj'
04:0011EF00 class$regExp 
04:0011EF64 class$regExp$vtable$ 
04:0011F020 class$regExp_exception 
--- From 'Obj\programControl.obj'
04:0011F0A0 class$programControl 
04:0011F0CC $packedCursor$programControl$0$domain$ 
04:0011F0E4 $packedCursor$programControl$0$domain$$type_library$  (Idle)
04:0011F0FC $cursor$programControl$0$domain$ 
04:0011F114 $cursor$programControl$0$domain$$type_library$  (Idle)
--- From 'Obj\profile.obj'
04:0011F220 class$profileMemory 
04:0011F254 $contextMap$profileMemory$0$domain$ 
04:0011F26C $contextMap$profileMemory$0$domain$$type_library$  (Idle)
04:0011F2F0 class$profileTime 
04:0011F630 class$profileCount 
--- From 'Obj\namedValue.obj'
04:0011F780 class$namedValue 
--- From 'Obj\memory.obj'
04:0011F7F0 class$bit 
04:0011F80C $unsigned4$bit$0$domain$ 
04:0011F824 $unsigned4$bit$0$domain$$type_library$  (Idle)
04:0011F870 class$memory 
04:0011F8A4 $contextMap$memory$0$domain$ 
04:0011F8BC $contextMap$memory$0$domain$$type_library$  (Idle)
--- From 'Obj\math.obj'
04:0011FC50 class$math_exception 
04:0011FCC0 class$math 
04:0011FCDC $inCircle$math$0$domain$ 
04:0011FD00 $inCircle$math$0$domain$$type_library$  (Idle)
04:0011FD04 $aPeriod$math$0$domain$ 
04:0011FD28 $aPeriod$math$0$domain$$type_library$  (Idle)
04:0011FD2C $uReal$math$0$domain$ 
04:0011FD50 $uReal$math$0$domain$$type_library$  (Idle)
--- From 'Obj\list.obj'
04:0011FDB0 class$list 
--- From 'Obj\controls.obj'
04:0011FE00 class$containerWindowSupport 
04:0011FF08 class$containerWindowSupport$vtable$ 
--- From 'Obj\guisupport.obj'
04:00120170 class$guiSupport_exception 
--- From 'Obj\gui.obj'
04:00120210 class$frameDecoration 
04:0012028C class$frameDecoration$vtable$ 
--- From 'Obj\controls.obj'
04:001203B0 class$window 
04:001207C0 class$window$vtable$ 
--- From 'Obj\gui.obj'
04:00120FE0 class$dialog 
04:00123AE8 class$dialog$vtable$ 
04:00124AB0 class$documentWindow 
04:001263B0 class$documentWindow$vtable$ 
04:00126C80 class$childWindow 
04:00127BB4 class$childWindow$vtable$ 
04:00127EE0 class$applicationWindow 
04:00129138 class$applicationWindow$vtable$ 
--- From 'Obj\messageControl.obj'
04:00129660 class$formWindow 
04:0012C574 class$formWindow$vtable$ 
--- From 'Obj\controls.obj'
04:0012DC50 class$drawWindow 
04:0012ECF8 class$drawWindow$vtable$ 
--- From 'Obj\gui.obj'
04:0012F710 class$gui_exception 
04:0012F780 class$pictureCanvas 
04:0012F82C class$pictureCanvas$vtable$  (Idle)
--- From 'Obj\messageControl.obj'
04:0012FE00 class$messageControl 
04:001313A0 class$messageControl$vtable$  (Idle)
04:00131AA0 class$messageForm 
04:001341D4 class$messageForm$vtable$  (Idle)
--- From 'Obj\controlSupport.obj'
04:00134CD0 class$drawControlSupport 
04:001379E0 class$drawControlSupport$vtable$ 
04:001389D0 class$userControlSupport 
04:0013B6EC class$userControlSupport$vtable$  (Idle)
--- From 'Obj\controls.obj'
04:0013C660 class$standardControlSupport 
04:0013DB64 class$standardControlSupport$vtable$ 
04:0013E1B0 class$controlSupport 
04:0013E3E8 class$controlSupport$vtable$ 
--- From 'Obj\controlSupport.obj'
04:0013E9B0 class$nullControlSupport 
04:00140424 class$nullControlSupport$vtable$  (Idle)
--- From 'Obj\controls.obj'
04:00140BE0 class$versionControl 
04:00141A78 class$versionControl$vtable$ 
04:00141E00 class$control_exception 
04:00141E90 class$containerControl 
04:00144B1C class$containerControl$vtable$ 
04:00145870 class$textControl 
04:0014659C class$textControl$vtable$ 
04:00146920 class$radioButton 
04:00147650 class$radioButton$vtable$ 
04:00147A20 class$checkButton 
04:00148750 class$checkButton$vtable$ 
04:00148B30 class$editControl 
04:00149848 class$editControl$vtable$ 
04:00149C50 class$listBox 
04:0014AD6C class$listBox$vtable$ 
04:0014B1F0 class$listControl 
04:0014BFAC class$listControl$vtable$ 
04:0014C4E0 class$listButton 
04:0014D648 class$listButton$vtable$ 
04:0014DA30 class$listEdit 
04:0014F204 class$listEdit$vtable$  (Idle)
04:0014F990 class$scrollControl 
04:001506DC class$scrollControl$vtable$ 
04:00150A60 class$groupBox 
04:00151DCC class$groupBox$vtable$  (Idle)
04:00152300 class$iconControl 
04:00154284 class$iconControl$vtable$  (Idle)
04:00154B50 class$radioButtonGroup 
04:00154BFC class$radioButtonGroup$vtable$ 
04:00154DE0 class$integerControl 
04:00155FD8 class$integerControl$vtable$ 
04:00156590 class$realControl 
04:00157788 class$realControl$vtable$ 
04:00157D30 class$button 
04:00158A88 class$button$vtable$ 
04:00158E50 class$timerControl 
04:0015A354 class$timerControl$vtable$  (Idle)
--- From 'Obj\fileSystem.obj'
04:0015AA00 class$fileVersion 
04:0015AA34 $versionInformation$fileVersion$0$domain$ 
04:0015AA4C $versionInformation$fileVersion$0$domain$$type_library$  (Idle)
04:0015AA68 $fileVersionInformation$fileVersion$0$domain$ 
04:0015AA80 $fileVersionInformation$fileVersion$0$domain$$type_library$  (Idle)
04:0015AD80 class$fileSystem_exception 
04:0015AE20 class$outputStream_file 
04:0015B094 class$outputStream_file$vtable$  (Idle)
04:0015B340 class$inputStream_file 
04:0015B6A4 class$inputStream_file$vtable$  (Idle)
04:0015B9D0 class$directory 
04:0015B9EC $volumeType$directory$0$domain$ 
04:0015BA18 $volumeType$directory$0$domain$$type_library$  (Idle)
04:0015BB70 class$file 
04:0015BB8C $overwrite$file$0$domain$ 
04:0015BBB0 $overwrite$file$0$domain$$type_library$  (Idle)
04:0015BCE0 class$fileName 
04:0015BD50 class$messageFile 
04:0015BDCC class$messageFile$vtable$ 
--- From 'Obj\exceptionDump.obj'
04:0015BEF0 class$exceptionDump 
--- From 'Obj\exception.obj'
04:0015BF90 class$errorDescriptorInformation 
04:0015C0A4 class$errorDescriptorInformation$vtable$ 
04:0015C2C0 class$exception_exception 
04:0015C350 class$runtime_exception 
04:0015C3E0 class$common_exception 
04:0015C470 class$exception 
04:0015C48C $kind$exception$0$domain$ 
04:0015C4A8 $kind$exception$0$domain$$type_library$ 
04:0015C4BC $classInfoDescriptor$exception$0$domain$ 
04:0015C4D4 $classInfoDescriptor$exception$0$domain$$type_library$ 
04:0015C4EC $exceptionDescriptor$exception$0$domain$ 
04:0015C504 $exceptionDescriptor$exception$0$domain$$type_library$ 
04:0015C534 $descriptor$exception$0$domain$ 
04:0015C54C $descriptor$exception$0$domain$$type_library$ 
04:0015C574 $traceInfo$exception$0$domain$ 
04:0015C58C $traceInfo$exception$0$domain$$type_library$  (Idle)
04:0015C5B0 $lineInfo$exception$0$domain$ 
04:0015C5CC $lineInfo$exception$0$domain$$type_library$ 
--- From 'Obj\environment.obj'
04:0015C760 class$environment 
--- From 'Obj\core.obj'
04:0015C7E0 class$core 
04:0015C7FC $unsigned8$core$0$domain$ 
04:0015C814 $unsigned8$core$0$domain$$type_library$ 
--- From 'Obj\console.obj'
04:0015C818 $unsigned16$core$0$domain$ 
04:0015C830 $unsigned16$core$0$domain$$type_library$ 
--- From 'Obj\binary.obj'
04:0015C834 $unsigned32$core$0$domain$ 
--- From 'Obj\console.obj'
04:0015C84C $unsigned32$core$0$domain$$type_library$ 
--- From 'Obj\binary.obj'
04:0015C860 $unsigned64$core$0$domain$ 
--- From 'Obj\core.obj'
04:0015C878 $unsigned64$core$0$domain$$type_library$ 
04:0015C87C $integer8$core$0$domain$ 
04:0015C894 $integer8$core$0$domain$$type_library$ 
04:0015C898 $integer16$core$0$domain$ 
04:0015C8B0 $integer16$core$0$domain$$type_library$ 
04:0015C8B4 $integer32$core$0$domain$ 
04:0015C8CC $integer32$core$0$domain$$type_library$ 
04:0015C8E0 $integer64$core$0$domain$ 
04:0015C8F8 $integer64$core$0$domain$$type_library$ 
--- From 'Obj\exe.obj'
04:0015C90C $namedValue$core$0$domain$ 
--- From 'Obj\core.obj'
04:0015C924 $namedValue$core$0$domain$$type_library$ 
04:0015C944 $codePage$core$0$domain$ 
--- From 'Obj\exe.obj'
04:0015C964 $codePage$core$0$domain$$type_library$ 
--- From 'Obj\core.obj'
04:0015C9B8 $nativeGuid$core$0$domain$ 
04:0015C9D0 $nativeGuid$core$0$domain$$type_library$  (Idle)
04:0015C9D4 $byteCountOptional$core$0$domain$ 
04:0015C9EC $byteCountOptional$core$0$domain$$type_library$  (Idle)
--- From 'Obj\binary.obj'
04:0015C9F0 $byteCount$core$0$domain$ 
04:0015CA08 $byteCount$core$0$domain$$type_library$ 
--- From 'Obj\console.obj'
04:0015CA0C $charCountOptional$core$0$domain$ 
--- From 'Obj\core.obj'
04:0015CA24 $charCountOptional$core$0$domain$$type_library$  (Idle)
--- From 'Obj\exe.obj'
04:0015CA28 $charCount$core$0$domain$ 
--- From 'Obj\core.obj'
04:0015CA40 $charCount$core$0$domain$$type_library$  (Idle)
04:0015CA44 $positiveOptional$core$0$domain$ 
04:0015CA5C $positiveOptional$core$0$domain$$type_library$  (Idle)
--- From 'Obj\binary.obj'
04:0015CA60 $positive$core$0$domain$ 
--- From 'Obj\core.obj'
04:0015CA78 $positive$core$0$domain$$type_library$ 
04:0015CA8C $tuple$core$2$domain$ 
04:0015CAB8 $tuple$core$3$domain$ 
04:0015CAE8 $tuple$core$4$domain$ 
04:0015CB1C $tuple$core$5$domain$ 
04:0015CB54 $tuple$core$6$domain$ 
04:0015CB90 $tuple$core$7$domain$ 
04:0015CBD0 $tuple$core$8$domain$ 
04:0015CC14 $tuple$core$9$domain$ 
04:0015CC5C $tuple$core$10$domain$ 
04:0015CCA8 $tuple$core$11$domain$ 
04:0015CCF8 $tuple$core$12$domain$ 
04:0015CD24 $optional$core$1$domain$ 
04:0015CD40 $sortOrder$core$0$domain$ 
04:0015CD5C $sortOrder$core$0$domain$$type_library$  (Idle)
--- From 'Obj\exe.obj'
04:0015CE10 $value$core$0$domain$ 
--- From 'Obj\core.obj'
04:0015CE60 $value$core$0$domain$$type_library$ 
--- From 'Obj\console.obj'
04:0015D1A0 class$outputStream_console 
04:0015D36C class$outputStream_console$vtable$  (Idle)
04:0015D5A0 class$inputStream_console 
04:0015D89C class$inputStream_console$vtable$  (Idle)
04:0015DB60 class$console 
04:0015DB98 $location$console$0$domain$ 
04:0015DBB0 $location$console$0$domain$$type_library$  (Idle)
--- From 'Obj\boolean.obj'
04:0015DCD0 class$boolean 
--- From 'Obj\binary.obj'
04:0015DD30 class$outputStream_binary 
04:0015DFD8 class$outputStream_binary$vtable$  (Idle)
04:0015E280 class$inputStream_binary 
04:0015E4D0 class$inputStream_binary$vtable$  (Idle)
04:0015E6F0 class$binary_exception 
04:0015E770 class$binary 
--- From 'Obj\exe.obj'
04:0015E7D0 class$mainExe 
04:0015E7EC $coinit$mainExe$0$domain$ 
04:0015E810 $coinit$mainExe$0$domain$$type_library$  (Idle)
Frame 15F000   Size 0015A0.  Name=<  VIPini>, 	Chars=40000040h. [IR]
15F000:000000 000004   VIPini$A::VIPini$A::VIPini F=4
--- From 'Obj\main.obj'
05:0015F000 _VIPStartOfClassDescriptors 
15F000:000004 0003E0   VIPini$C::VIPini$C::VIPini F=4
15F000:0003E4 000008   VIPini$E::VIPini$E::VIPini F=4
Frame 161000   Size 0001B0.  Name=<  VIPsym>, 	Chars=40000040h. [IR]
161000:000000 000004   VIPsym$A::VIPsym$A::VIPsym F=4
--- From 'Obj\main.obj'
06:00161000 _VIPStartOfSymbols 
161000:000004 00019C   VIPsym$C::VIPsym$C::VIPsym F=4
161000:0001A0 000008   VIPsym$E::VIPsym$E::VIPsym F=4
Frame 162000   Size 001EF0.  Name=<  VIPtpl>, 	Chars=40000040h. [IR]
162000:000000 000004   VIPtpl$A::VIPtpl$A::VIPtpl F=4
--- From 'Obj\main.obj'
07:00162000 _VIPStartOfTypeLibraries 
162000:000004 001EDC   VIPtpl$C::VIPtpl$C::VIPtpl F=4
162000:001EE0 000008   VIPtpl$E::VIPtpl$E::VIPtpl F=4
Frame 164000   Size 0002D0.  Name=<   .data>, 	Chars=C0000040h. [IRW]
164000:000000 0002B0   .data::DATA::DGROUP F=4
164000:0002B0 00001C   .bss::BSS::DGROUP F=4
--- From '.\vp_rand___Win32_Release\rand.obj'
08:001642C4 ?s1@@3JA 
08:001642C8 ?s2@@3JA 
--- Total Cnt   =  5361 --------
[import] 'Obj\fileSystem.obj' KERNEL32.dll. _GetSystemDirectoryW@8 
[import] 'Obj\vpi.obj' vip7vpi.dll. ?cb_PutString@VIP_VPI@@YAXPBG@Z 
[import] 'Obj\console.obj' USER32.dll. _MessageBoxW@16 
[import] 'Obj\gui.obj' vip7vpi.dll. ?win_GetText@VIP_VPI@@YAPAGJ@Z 
[import] 'Obj\interface.obj' VIP7Run.dll. ?random_1@RunTime@VIP@@YAII@Z 
[import] 'Obj\gui.obj' vip7vpi.dll. ?win_SetText@VIP_VPI@@YAXJPBG@Z 
[import] 'Obj\memory.obj' VIP7Run.dll. ?bitXor@RunTime@VIP@@YAIII@Z 
[import] 'Obj\controls.obj' USER32.dll. _ReleaseDC@8 
[import] 'Obj\exception.obj' KERNEL32.dll. _GetCurrentThreadId@0 
[import] 'Obj\vpi.obj' GDI32.dll. _GetDeviceCaps@8 
[import] 'Obj\exe.obj' VIP7Kernel.dll. ?MEM_alloc_listElementWithContext@Kernel@VIP@@YGPBU?$__list_struct@E@@XZ 
[import] 'Obj\vpi.obj' USER32.dll. _GetDC@4 
[import] 'Obj\binary.obj' VIP7Run.dll. ?AssertZNonDetermFact_WithContext@RunTime@VIP@@YGXTRTerm@12@PAVrFactList@12@II@Z 
[import] 'Obj\vpi.obj' vip7vpi.dll. ?vpi_ProcessEvents@VIP_VPI@@YAHHH@Z 
[import] 'Obj\binary.obj' VIP7Kernel.dll. ?Run_Fail@Kernel@VIP@@YAXXZ 
[import] 'Obj\gui.obj' vip7vpi.dll. ?win_GetTextExtent@VIP_VPI@@YAXJPBGHPAH1@Z 
[import] 'Obj\log.obj' VIP7Kernel.dll. ?GetTrapTop@Kernel@VIP@@YGQAVTBackTrackBlock@12@XZ 
[import] 'Obj\vpi.obj' vip7vpi.dll. ?mf_Load@VIP_VPI@@YAIPBGPAPAUrect_struct@1@PAI@Z 
[import] 'Obj\binary.obj' VIP7Run.dll. ?ConvertUI@RunTime@VIP@@YGHPBV?$rNumericTypeDescriptor@I@12@PBV?$rNumericTypeDescriptor@H@12@I@Z 
[import] 'Obj\gui.obj' vip7vpi.dll. ?draw_TextInRect@VIP_VPI@@YAXJPAUrect_struct@1@PBGHPAUilist_struct@1@@Z 
[import] 'Obj\exe.obj' VIP7Kernel.dll. ?StkTrap@Kernel@VIP@@YAXXZ 
[import] 'Obj\gui.obj' vip7vpi.dll. ?draw_Text@VIP_VPI@@YAXJHHPBGH@Z 
[import] 'Obj\time.obj' VIP7Run.dll. ?Power@RunTime@VIP@@YGNNN@Z 
[import] 'Obj\gui.obj' vip7vpi.dll. ?caret_Set@VIP_VPI@@YAXJHHHH@Z 
[import] 'Obj\exe.obj' VIP7Run.dll. ?ErrorRangeSigned@RunTime@VIP@@YGXQBV?$rNumericTypeDescriptor@H@12@H@Z 
[import] 'Obj\gui.obj' vip7vpi.dll. ?cursor_Set@VIP_VPI@@YAXJHH@Z 
[import] 'Obj\fileSystem.obj' VIP7Run.dll. ?RetractFactDataBase@RunTime@VIP@@YGXQBVfactDbValue@12@@Z 
[import] 'Obj\vpi.obj' vip7vpi.dll. ?pict_DrawEx_1@VIP_VPI@@YAXJJPAUrect_struct@1@0HH@Z 
[import] 'Obj\fileSystem.obj' KERNEL32.dll. _CopyFileW@12 
[import] 'Obj\vpi.obj' vip7vpi.dll. ?pict_Load@VIP_VPI@@YAJPBGHHI@Z 
[import] 'Obj\gui.obj' VIP7Run.dll. ?TryConvertObject@RunTime@VIP@@YGQBVRObject@12@QBVRInterfaceDescriptor@12@QBV312@@Z 
[import] 'Obj\vpi.obj' vip7vpi.dll. ?pict_GetFromRes@VIP_VPI@@YAJPAUHINSTANCE__@WindowsAPI@@IHHI@Z 
[import] 'Obj\fileSystem.obj' KERNEL32.dll. _MoveFileExW@12 
[import] 'Obj\vpi.obj' vip7vpi.dll. ?pict_GetFromRes@VIP_VPI@@YAJPAUHINSTANCE__@WindowsAPI@@I@Z 
[import] 'Obj\binary.obj' VIP7Run.dll. ?FinishRetract@RunTime@VIP@@YGXPAVrFactItem@12@PAPAV312@@Z 
[import] 'Obj\vpi.obj' vip7vpi.dll. ?menu_GetRes@VIP_VPI@@YAPAUmenu_struct@1@PAUHINSTANCE__@WindowsAPI@@I@Z 
[import] 'Obj\fileSystem.obj' KERNEL32.dll. _GetFileAttributesW@4 
[import] 'Obj\vpi.obj' vip7vpi.dll. ?vpi_CheckExistString@VIP_VPI@@YAHPAUHINSTANCE__@WindowsAPI@@I@Z 
[import] 'Obj\fileSystem.obj' KERNEL32.dll. _FindClose@4 
[import] 'Obj\vpi.obj' vip7vpi.dll. ?vpi_CheckExistDialog@VIP_VPI@@YAHPAUHINSTANCE__@WindowsAPI@@I@Z 
[import] 'Obj\fileSystem.obj' KERNEL32.dll. _GetTempFileNameW@16 
[import] 'Obj\vpi.obj' vip7vpi.dll. ?win_GetResDialog@VIP_VPI@@YAPAUwindef_list_struct@1@PAUHINSTANCE__@WindowsAPI@@I@Z 
[import] 'Obj\math.obj' VIP7Run.dll. ?sqrt@RunTime@VIP@@YANN@Z 
[import] 'Obj\vpi.obj' vip7vpi.dll. ?vpi_GetResStr@VIP_VPI@@YAPAGPAUHINSTANCE__@WindowsAPI@@I@Z 
[import] 'Obj\fileSystem.obj' KERNEL32.dll. _SetFileAttributesW@8 
[import] 'Obj\console.obj' KERNEL32.dll. _ReadConsoleW@20 
[import] 'Obj\fileSystem.obj' KERNEL32.dll. _SetFileTime@16 
[import] 'Obj\vpi.obj' vip7vpi.dll. ?win_CreateResDialog@VIP_VPI@@YAJPAUHINSTANCE__@WindowsAPI@@JHIPAUPROLOG_EHANDLER_STRUCT@1@J@Z 
[import] 'Obj\fileSystem.obj' SHELL32.dll. _SHFileOperationW@4 
[import] 'Obj\vpi.obj' vip7vpi.dll. ?vpi_Init@VIP_VPI@@YAXPAUwsflags_struct@1@PAUPROLOG_EHANDLER_STRUCT@1@PAUmenu_struct@1@PBG3@Z 
[import] 'Obj\fileSystem.obj' ADVAPI32.dll. _IsTextUnicode@12 
[import] 'Obj\vpi.obj' vip7vpi.dll. ?vpi_InitNoTaskWindow@VIP_VPI@@YAXXZ 
[import] 'Obj\fileSystem.obj' KERNEL32.dll. _CloseHandle@4 
[import] 'Obj\vpi.obj' vip7vpi.dll. ?registerExceptionHandler@VIP_VPI@@YAXP6AXHPAG@Z@Z 
[import] 'Obj\fileSystem.obj' KERNEL32.dll. _RemoveDirectoryW@4 
[import] 'Obj\time.obj' VIP7Run.dll. ?int64div32@RunTime@VIP@@YAXPB_JHAAPA_JPAH@Z 
[import] 'Obj\exception.obj' VIP7Run.dll. ?tryString2Term@RunTime@VIP@@YGPBXQBVrTypeLibrary@12@PBG@Z 
[import] 'Obj\time.obj' VIP7Run.dll. ?addInteger64@RunTime@VIP@@YAPA_JPB_J0@Z 
[import] 'Obj\exceptionDump.obj' VIP7Run.dll. ?string2Term@RunTime@VIP@@YGPBXQBVrTypeLibrary@12@PBG@Z 
[import] 'Obj\controls.obj' vip7vpi.dll. ?lbox_Add_2@VIP_VPI@@YAXJPBG@Z 
[import] 'Obj\interface.obj' VIP7Run.dll. ?sin@RunTime@VIP@@YANN@Z 
[import] 'Obj\controls.obj' vip7vpi.dll. ?lbox_Add_0@VIP_VPI@@YAXJHPBG@Z 
[import] 'Obj\time.obj' VIP7Run.dll. ?abs_iu@RunTime@VIP@@YAIH@Z 
[import] 'Obj\time.obj' KERNEL32.dll. _GetTimeZoneInformation@4 
[import] 'Obj\fileSystem.obj' KERNEL32.dll. _GetDriveTypeW@4 
[import] 'Obj\exceptionDump.obj' VIP7Run.dll. ?create@RunTime@VIP@@YAPBGI@Z 
[import] 'Obj\list.obj' VIP7Run.dll. ?compareTerms@RunTime@VIP@@YG?AW4compareResult@_builtIn_class@@QBVrTypeLibrary@12@PBX1@Z 
[import] 'Obj\controls.obj' vip7vpi.dll. ?lbox_Clear@VIP_VPI@@YAXJ@Z 
[import] 'Obj\time_api.obj' KERNEL32.dll. _GetTimeFormatW@24 
[import] 'Obj\time.obj' VIP7Run.dll. ?subInteger64@RunTime@VIP@@YAPA_JPB_J0@Z 
[import] 'Obj\time_api.obj' KERNEL32.dll. _GetDateFormatW@24 
[import] 'Obj\time.obj' VIP7Run.dll. ?int64xReal@RunTime@VIP@@YAPA_JPB_JN@Z 
[import] 'Obj\time_api.obj' KERNEL32.dll. _FileTimeToLocalFileTime@8 
[import] 'Obj\console.obj' KERNEL32.dll. _GetConsoleScreenBufferInfo@8 
[import] 'Obj\time_api.obj' KERNEL32.dll. _SystemTimeToFileTime@8 
[import] 'Obj\console.obj' KERNEL32.dll. _GetConsoleMode@8 
[import] 'Obj\exe.obj' VIP7Kernel.dll. ?Stkb2@Kernel@VIP@@YAXXZ 
[import] 'Obj\controls.obj' vip7vpi.dll. ?lbox_Delete@VIP_VPI@@YAXJH@Z 
[import] 'Obj\exe.obj' VIP7Kernel.dll. ?Cut_Prolog@Kernel@VIP@@YAXXZ 
[import] 'Obj\console.obj' KERNEL32.dll. _SetConsoleTitleW@4 
[import] 'Obj\exceptionDump.obj' KERNEL32.dll. _GetTempPathW@8 
[import] 'Obj\string.obj' KERNEL32.dll. _GetUserDefaultLCID@0 
[import] 'Obj\exe.obj' VIP7Kernel.dll. ?AllocHeapWithContext@Kernel@VIP@@YGQAEIII@Z 
[import] 'Obj\console.obj' KERNEL32.dll. _GetConsoleTitleW@8 
[import] 'Obj\controls.obj' VIP7Run.dll. ?ConvertObject@RunTime@VIP@@YGQBVRObject@12@QBVRInterfaceDescriptor@12@QBV312@@Z 
[import] 'Obj\time.obj' KERNEL32.dll. _SetLocalTime@4 
[import] 'Obj\time_api.obj' KERNEL32.dll. _FileTimeToSystemTime@8 
[import] 'Obj\time.obj' KERNEL32.dll. _GetSystemTime@4 
[import] 'Obj\fileSystem.obj' SHELL32.dll. _SHBrowseForFolderW@4 
[import] 'Obj\console.obj' KERNEL32.dll. _FreeConsole@0 
[import] 'Obj\fileSystem.obj' OLE32.dll. _CoTaskMemFree@4 
[import] 'Obj\time.obj' KERNEL32.dll. _CompareFileTime@8 
[import] 'Obj\runTime_api.obj' KERNEL32.dll. _GetVersionExW@4 
[import] 'Obj\controls.obj' vip7vpi.dll. ?lbox_GetAll@VIP_VPI@@YAPAUslist_struct@1@J@Z 
[import] 'Obj\string8_api.obj' KERNEL32.dll. _MultiByteToWideChar@24 
[import] 'Obj\controls.obj' vip7vpi.dll. ?lbox_CountAll@VIP_VPI@@YAHJ@Z 
[import] 'Obj\runTime_api.obj' KERNEL32.dll. _GetCurrentProcess@0 
[import] 'Obj\console.obj' KERNEL32.dll. _SetConsoleCursorPosition@8 
[import] 'Obj\exe.obj' KERNEL32.dll. _GetModuleHandleW@4 
[import] 'Obj\string8.obj' KERNEL32.dll. _IsBadStringPtrA@8 
[import] 'Obj\controls.obj' USER32.dll. _GetSystemMetrics@4 
[import] 'Obj\controls.obj' vip7vpi.dll. ?lbox_GetItem@VIP_VPI@@YAPAGJH@Z 
[import] 'Obj\exe.obj' KERNEL32.dll. _lstrlenW@4 
[import] 'Obj\string8.obj' KERNEL32.dll. _IsValidCodePage@4 
[import] 'Obj\registry_api.obj' ADVAPI32.dll. _RegDeleteValueW@8 
[import] 'Obj\controls.obj' vip7vpi.dll. ?lbox_IsSel@VIP_VPI@@YAXJH@Z 
[import] 'Obj\registry_api.obj' ADVAPI32.dll. _RegSetValueExW@24 
[import] 'Obj\console.obj' KERNEL32.dll. _FillConsoleOutputCharacterW@20 
[import] 'Obj\exe.obj' VIP7Kernel.dll. ?VIP_ErrorExit7@Kernel@VIP@@YGXPBVtrapInfo_interface@12@@Z 
[import] 'Obj\binary.obj' VIP7Run.dll. ?InitWrite@RunTime@VIP@@YGPAVROutputStreamImpl@12@QAVRBufferProvider@12@@Z 
[import] 'Obj\registry_api.obj' ADVAPI32.dll. _RegDeleteKeyW@8 
[import] 'Obj\binary.obj' VIP7Run.dll. ?InitInputParser@RunTime@VIP@@YGPAVRInputStreamImpl@12@QAVRROBufferProvider@12@QAEI@Z 
[import] 'Obj\registry_api.obj' ADVAPI32.dll. _RegCloseKey@4 
[import] 'Obj\console.obj' KERNEL32.dll. _FlushConsoleInputBuffer@4 
[import] 'Obj\fileSystem_api.obj' VIP7Run.dll. ?LoadProcAddress@RunTime@VIP@@YGP6GHXZQBGQBDPAP6GHXZ@Z 
[import] 'Obj\string.obj' VIP7Run.dll. ?trimLast@RunTime@VIP@@YAPBGPBG@Z 
[import] 'Obj\gui_api.obj' USER32.dll. _GetScrollRange@16 
[import] 'Obj\console.obj' KERNEL32.dll. _SetConsoleMode@8 
[import] 'Obj\binary.obj' VIP7Kernel.dll. ?OSCopyMemory@Kernel@VIP@@YAXPAXPBXI@Z 
[import] 'Obj\exe.obj' VIP7Run.dll. ?trimFront@RunTime@VIP@@YAPBGPBG@Z 
[import] 'Obj\binary.obj' VIP7Run.dll. ?searchForChar@RunTime@VIP@@YGIPBGGI@Z 
[import] 'Obj\string.obj' VIP7Run.dll. ?isAlpha@RunTime@VIP@@YG_NPBG@Z 
[import] 'Obj\fileSystem_api.obj' KERNEL32.dll. _SetFilePointer@16 
[import] 'Obj\string.obj' USER32.dll. _CharLowerW@4 
[import] 'Obj\fileSystem.obj' KERNEL32.dll. _CreateFileW@28 
[import] 'Obj\string.obj' USER32.dll. _CharUpperW@4 
[import] 'Obj\exe.obj' KERNEL32.dll. _GetModuleFileNameW@12 
[import] 'Obj\string.obj' VIP7Run.dll. ?searchBack@RunTime@VIP@@YG_NPBG0QAI@Z 
[import] 'Obj\controls.obj' vip7vpi.dll. ?win_Invalidate_0@VIP_VPI@@YAXJ@Z 
[import] 'Obj\string.obj' VIP7Run.dll. ?replace@RunTime@VIP@@YGPBGPBG00H_NAAI@Z 
[import] 'Obj\controls.obj' vip7vpi.dll. ?lbox_GetSelIndex@VIP_VPI@@YAHJ@Z 
[import] 'Obj\string.obj' VIP7Run.dll. ?replace@RunTime@VIP@@YGPBGPBG00H_N@Z 
[import] 'Obj\gui.obj' vip7vpi.dll. ?draw_Line@VIP_VPI@@YAXJPAUpnt_struct@1@0@Z 
[import] 'Obj\string.obj' KERNEL32.dll. _IsBadStringPtrW@8 
[import] 'Obj\gui.obj' vip7vpi.dll. ?win_SetDrawTools@VIP_VPI@@YAXJPAUdrawtools_struct@1@@Z 
[import] 'Obj\string.obj' VIP7Run.dll. ?frontToken@RunTime@VIP@@YG_NPBGAAPAG1@Z 
[import] 'Obj\gui.obj' vip7vpi.dll. ?win_Clear_0@VIP_VPI@@YAXJJ@Z 
[import] 'Obj\exception.obj' VIP7Run.dll. ?write2String@RunTime@VIP@@YGQBGIIQBVrEllipsisArguments@12@@Z 
[import] 'Obj\vpitoolbar.obj' GDI32.dll. _ExtFloodFill@20 
[import] 'Obj\exception.obj' VIP7Run.dll. ?format2String@RunTime@VIP@@YGQBGQBGQBVrEllipsisArguments@12@@Z 
[import] 'Obj\gui.obj' vip7vpi.dll. ?pict_Open@VIP_VPI@@YAJPAUrect_struct@1@@Z 
[import] 'Obj\string.obj' KERNEL32.dll. _CompareStringW@24 
[import] 'Obj\vpi.obj' vip7vpi.dll. ?pict_DrawEx_0@VIP_VPI@@YAXJJPAUpnt_struct@1@HH@Z 
[import] 'Obj\binary.obj' VIP7Kernel.dll. ?OSZeroMemory@Kernel@VIP@@YAXPAXI@Z 
[import] 'Obj\vpitoolbar.obj' VIP7Run.dll. ?ConvertII@RunTime@VIP@@YGHPBV?$rNumericTypeDescriptor@H@12@0H@Z 
[import] 'Obj\string.obj' VIP7Run.dll. ?create@RunTime@VIP@@YGPBGIPBG@Z 
[import] 'Obj\gui.obj' vip7vpi.dll. ?win_Invalidate_1@VIP_VPI@@YAXJPAUrect_struct@1@@Z 
[import] 'Obj\outputStreamSupport.obj' VIP7Run.dll. ?writeBytes2Stream@RunTime@VIP@@YGXQAVROutputStreamImpl@12@QBEI@Z 
[import] 'Obj\exception.obj' VIP7Kernel.dll. ?GetLineFromAddrProlog@Kernel@VIP@@YGXPBXPAIPAPBG@Z 
[import] 'Obj\outputStreamSupport.obj' VIP7Run.dll. ?saveDatabase@RunTime@VIP@@YGXQBVfactDbValue@12@QAVROutputStreamImpl@12@@Z 
[import] 'Obj\controls.obj' vip7vpi.dll. ?lbox_SetSel@VIP_VPI@@YAXJHH@Z 
[import] 'Obj\outputStreamSupport.obj' VIP7Run.dll. ?format2Stream@RunTime@VIP@@YGXQAVROutputStreamImpl@12@QBGQBVrEllipsisArguments@12@@Z 
[import] 'Obj\controls.obj' vip7vpi.dll. ?lbox_Add_1@VIP_VPI@@YAXJHPAUslist_struct@1@@Z 
[import] 'Obj\outputStreamSupport.obj' VIP7Run.dll. ?write2Stream@RunTime@VIP@@YGXQAVROutputStreamImpl@12@IIQBVrEllipsisArguments@12@@Z 
[import] 'Obj\vpitoolbar.obj' vip7vpi.dll. ?win_CreateControl@VIP_VPI@@YAJHPAUrect_struct@1@PBGJPAUwsflags_struct@1@H@Z 
[import] 'Obj\inputStreamSupport.obj' VIP7Run.dll. ?ParseString@RunTime@VIP@@YGPBGQAVRInputStreamImpl@12@I@Z 
[import] 'Obj\gui.obj' vip7vpi.dll. ?win_PostEvent@VIP_VPI@@YAXJPAUevent_struct@1@@Z 
[import] 'Obj\inputStreamSupport.obj' VIP7Run.dll. ?ParseBytes@RunTime@VIP@@YGPBVTBinary@@QAVRInputStreamImpl@12@I@Z 
[import] 'Obj\vpiEditor.obj' VIP7Kernel.dll. ?VIP_ErrorExit@Kernel@VIP@@YGXI@Z 
[import] 'Obj\controls.obj' vip7vpi.dll. ?lbox_SetTopIndex@VIP_VPI@@YAXJH@Z 
[import] 'Obj\gui.obj' vip7vpi.dll. ?win_Destroy@VIP_VPI@@YAXJ@Z 
[import] 'Obj\inputStreamSupport.obj' VIP7Run.dll. ?consultDatabase@RunTime@VIP@@YGXQBVfactDbValue@12@QAVRInputStreamImpl@12@@Z 
[import] 'Obj\gui.obj' vip7vpi.dll. ?draw_Rect@VIP_VPI@@YAXJPAUrect_struct@1@@Z 
[import] 'Obj\inputStreamSupport.obj' VIP7Run.dll. ?ParseFromStream@RunTime@VIP@@YGPBXQBVrTypeLibrary@12@QAVRInputStreamImpl@12@I@Z 
[import] 'Obj\gui.obj' vip7vpi.dll. ?win_SetBackColor@VIP_VPI@@YAXJJ@Z 
[import] 'Obj\inputStreamSupport.obj' VIP7Run.dll. ?ParseLine@RunTime@VIP@@YGPBGQAVRInputStreamImpl@12@@Z 
[import] 'Obj\gui.obj' vip7vpi.dll. ?win_SetBrush@VIP_VPI@@YAXJPAUbrush_struct@1@@Z 
[import] 'Obj\inputStreamSupport.obj' VIP7Run.dll. ?ungetChar@RunTime@VIP@@YGXQAVRInputStreamImpl@12@@Z 
[import] 'Obj\environment.obj' KERNEL32.dll. _FreeEnvironmentStringsW@4 
[import] 'Obj\inputStreamSupport.obj' VIP7Run.dll. ?ParseChar@RunTime@VIP@@YGGQAVRInputStreamImpl@12@@Z 
[import] 'Obj\environment.obj' KERNEL32.dll. _GetEnvironmentStringsW@0 
[import] 'Obj\exception.obj' KERNEL32.dll. _FormatMessageW@28 
[import] 'Obj\gui.obj' vip7vpi.dll. ?timer_Set@VIP_VPI@@YAJJI@Z 
[import] 'Obj\regExp.obj' VIP7regExp2.dll. ?VIP_re_search_range_compile@regExp@@YAHPBG0PAH1HHH@Z 
[import] 'Obj\environment.obj' KERNEL32.dll. _SetEnvironmentVariableW@8 
[import] 'Obj\regExp.obj' VIP7regExp2.dll. ?VIP_re_replace_compile@regExp@@YAHPBG0PAUVIP_buffer_info@1@PAPAG@Z 
[import] 'Obj\vpitoolbar.obj' vip7vpi.dll. ?rect_PntInside@VIP_VPI@@YAXPAUrect_struct@1@PAUpnt_struct@1@@Z 
[import] 'Obj\regExp.obj' VIP7regExp2.dll. ?VIP_re_match_nocompilePos@regExp@@YAHPAUVIP_buffer_info@1@PBGHHPAPAUVIP_string_list@1@@Z 
[import] 'Obj\gui.obj' vip7vpi.dll. ?win_CreateDynDialog@VIP_VPI@@YAJJPAUwindef_list_struct@1@PAUPROLOG_EHANDLER_STRUCT@1@J@Z 
[import] 'Obj\regExp.obj' VIP7regExp2.dll. ?VIP_re_search_range_noCompile@regExp@@YAHPAUVIP_buffer_info@1@PBGPAH2HH@Z 
[import] 'Obj\environment.obj' KERNEL32.dll. _ExpandEnvironmentStringsW@12 
[import] 'Obj\regExp.obj' VIP7regExp2.dll. ?VIP_re_compile_pattern_case@regExp@@YAHPBGPAPAUVIP_buffer_info@1@H@Z 
[import] 'Obj\messageControl.obj' vip7vpi.dll. ?win_GetClientRect@VIP_VPI@@YAPAUrect_struct@1@J@Z 
[import] 'Obj\regExp.obj' VIP7regExp2.dll. ?VIP_re_getLastError@regExp@@YAPAGH@Z 
[import] 'Obj\controls.obj' vip7vpi.dll. ?vpi_GetAttrVal@VIP_VPI@@YAJJ@Z 
[import] 'Obj\exceptionDump.obj' VIP7Kernel.dll. ?Run_Succeed@Kernel@VIP@@YGXXZ 
[import] 'Obj\gui.obj' vip7vpi.dll. ?cursor_GetPos@VIP_VPI@@YAPAUpnt_struct@1@J@Z 
[import] 'Obj\programControl.obj' VIP7Kernel.dll. ?SetPrologExceptionPredicate@Kernel@VIP@@YGXQBVRPrologExceptionPredicateStruct@12@PAPAV312@@Z 
[import] 'Obj\gui.obj' vip7vpi.dll. ?win_ReleaseMouse@VIP_VPI@@YAXXZ 
[import] 'Obj\controls.obj' vip7vpi.dll. ?lbox_SetColumnWidth@VIP_VPI@@YAXJH@Z 
[import] 'Obj\console.obj' VIP7Run.dll. ?Error_DetermFactIsAlreadyAsserted@RunTime@VIP@@YAXQBVrTypeLibrary@12@I@Z 
[import] 'Obj\profile.obj' VIP7Kernel.dll. ?memProf_WriteContextDefine@Kernel@VIP@@YGXIQBGQBUslist_struct@12@QBUcontextMapList_struct@12@@Z 
[import] 'Obj\vpitoolbar.obj' vip7vpi.dll. ?pict_GetSize@VIP_VPI@@YAXJPAH0PAJ@Z 
[import] 'Obj\controls.obj' vip7vpi.dll. ?lbox_SetTabStops@VIP_VPI@@YAXJPAUilist_struct@1@@Z 
[import] 'Obj\controls.obj' USER32.dll. _GetClientRect@8 
[import] 'Obj\profile.obj' VIP7Kernel.dll. ?memProf_Open@Kernel@VIP@@YGXQBG@Z 
[import] 'Obj\controls.obj' USER32.dll. _GetWindowDC@4 
[import] 'Obj\profile.obj' VIP7Kernel.dll. ?memProf_WriteBookMark@Kernel@VIP@@YGXPBG@Z 
[import] 'Obj\controls.obj' GDI32.dll. _CreatePen@12 
[import] 'Obj\profile.obj' VIP7Kernel.dll. ?memProf_Close@Kernel@VIP@@YGXXZ 
[import] 'Obj\controls.obj' GDI32.dll. _SetBkMode@8 
[import] 'Obj\fileSystem.obj' VIP7Run.dll. ?addUnsigned64@RunTime@VIP@@YAPA_KPB_K0@Z 
[import] 'Obj\controls.obj' GDI32.dll. _Rectangle@20 
[import] 'Obj\fileSystem.obj' VIP7Run.dll. ?subUnsigned64@RunTime@VIP@@YAPA_KPB_K0@Z 
[import] 'Obj\controls.obj' GDI32.dll. _MoveToEx@16 
[import] 'Obj\gui.obj' VIP7Run.dll. ?AssertANonDetermFact_WithContext@RunTime@VIP@@YGXTRTerm@12@PAVrFactList@12@II@Z 
[import] 'Obj\controls.obj' GDI32.dll. _CreateFontIndirectW@4 
[import] 'Obj\profile.obj' KERNEL32.dll. _QueryPerformanceFrequency@4 
[import] 'Obj\controls.obj' vip7vpi.dll. ?lbox_Add_3@VIP_VPI@@YAXJPAUslist_struct@1@@Z 
[import] 'Obj\profile.obj' KERNEL32.dll. _QueryPerformanceCounter@4 
[import] 'Obj\vpi.obj' vip7vpi.dll. ?dlg_ChooseColor@VIP_VPI@@YAJJJ@Z 
[import] 'Obj\profile.obj' VIP7Kernel.dll. ?Reset@Kernel@VIP@@YGXXZ 
[import] 'Obj\vpiEditor.obj' vip7edit.dll. ?edit_SetSearchOptions@VIP_EDIT@@YAXHHH@Z 
[import] 'Obj\profile.obj' VIP7Kernel.dll. ?Transfer7@Kernel@VIP@@YGXP6GXPBGIPA_J@Z@Z 
[import] 'Obj\vpiEditor.obj' vip7edit.dll. ?edit_SetTabSize_0@VIP_EDIT@@YAXH@Z 
[import] 'Obj\memory.obj' VIP7Kernel.dll. ?AllocUncollectableHeap@Kernel@VIP@@YGPAEI@Z 
[import] 'Obj\vpiEditor.obj' vip7edit.dll. ?edit_IndentSize_1@VIP_EDIT@@YAXPAH@Z 
[import] 'Obj\memory.obj' VIP7Kernel.dll. ?memProf_ContextClose@Kernel@VIP@@YGXI@Z 
[import] 'Obj\vpiEditor.obj' vip7edit.dll. ?edit_GetColorSettings@VIP_EDIT@@YAPAUcolor_settings_struct@1@KH@Z 
[import] 'Obj\memory.obj' VIP7Kernel.dll. ?AllocHeap@Kernel@VIP@@YGPAEI@Z 
[import] 'Obj\controls.obj' vip7vpi.dll. ?win_GetTextSelection@VIP_VPI@@YAXJPAH0@Z 
[import] 'Obj\memory.obj' VIP7Kernel.dll. ?memProf_ContextOpen@Kernel@VIP@@YGIII@Z 
[import] 'Obj\vpi.obj' USER32.dll. _GetFocus@0 
[import] 'Obj\memory.obj' KERNEL32.dll. _IsBadWritePtr@8 
[import] 'Obj\vpi.obj' vip7vpi.dll. ?dlg_ChooseFont@VIP_VPI@@YAPADPADPAPAGPAH@Z 
[import] 'Obj\memory.obj' KERNEL32.dll. _IsBadReadPtr@8 
[import] 'Obj\vpi.obj' vip7vpi.dll. ?dlg_GetFileName@VIP_VPI@@YAPAGPBGPAUslist_struct@1@0PAUilist_struct@1@0PAPAU21@PAH@Z 
[import] 'Obj\math.obj' VIP7Run.dll. ?trunc@RunTime@VIP@@YANN@Z 
[import] 'Obj\vpi.obj' vip7vpi.dll. ?dlg_Note@VIP_VPI@@YAXPBG0@Z 
[import] 'Obj\math.obj' VIP7Run.dll. ?roundToInteger@RunTime@VIP@@YGHN@Z 
[import] 'Obj\vpi.obj' vip7vpi.dll. ?menuPopUp@VIP_VPI@@YAHJPAUmenu_struct@1@PAUpnt_struct@1@H@Z 
[import] 'Obj\math.obj' VIP7Run.dll. ?round@RunTime@VIP@@YANN@Z 
[import] 'Obj\vpi.obj' USER32.dll. _SetWindowPlacement@8 
[import] 'Obj\math.obj' VIP7Run.dll. ?ln@RunTime@VIP@@YANN@Z 
[import] 'Obj\vpi.obj' USER32.dll. _GetWindowPlacement@8 
[import] 'Obj\math.obj' VIP7Run.dll. ?arctan@RunTime@VIP@@YANN@Z 
[import] 'Obj\controls.obj' vip7vpi.dll. ?win_SelectText@VIP_VPI@@YAXJHH@Z 
[import] 'Obj\controls.obj' vip7vpi.dll. ?win_SetEditCtlReadOnly@VIP_VPI@@YAXJH@Z 
[import] 'Obj\gui.obj' vip7vpi.dll. ?win_SetHandler@VIP_VPI@@YAXJPAUPROLOG_EHANDLER_STRUCT@1@@Z 
[import] 'Obj\gui.obj' vip7vpi.dll. ?win_GetActiveWindow@VIP_VPI@@YAJXZ 
[import] 'Obj\vpi.obj' USER32.dll. _GetNextDlgTabItem@12 
[import] 'Obj\gui.obj' vip7vpi.dll. ?vpi_GetProcessWindow@VIP_VPI@@YAJJ@Z 
[import] 'Obj\vpi.obj' KERNEL32.dll. _ExitProcess@4 
[import] 'Obj\gui.obj' vip7vpi.dll. ?cursor_Get@VIP_VPI@@YAHJ@Z 
[import] 'Obj\exe.obj' VIP7Kernel.dll. ?AllocAtomicHeapWithContext@Kernel@VIP@@YGQAEIII@Z 
[import] 'Obj\gui.obj' vip7vpi.dll. ?cursorSet@VIP_VPI@@YAXJPAUHINSTANCE__@WindowsAPI@@HH@Z 
[import] 'Obj\memory.obj' VIP7Run.dll. ?bitRight@RunTime@VIP@@YAIII@Z 
[import] 'Obj\messageControl.obj' vip7vpi.dll. ?menu_PopUp@VIP_VPI@@YAXJPAUmenu_struct@1@PAUpnt_struct@1@H@Z 
[import] 'Obj\binary.obj' VIP7Kernel.dll. ?Stkb3@Kernel@VIP@@YAXXZ 
[import] 'Obj\gui.obj' vip7vpi.dll. ?win_GetChildWindows@VIP_VPI@@YAPAUwinlist_struct@1@J@Z 
[import] 'Obj\binary.obj' VIP7Run.dll. ?ConvertIU@RunTime@VIP@@YGIPBV?$rNumericTypeDescriptor@H@12@PBV?$rNumericTypeDescriptor@I@12@H@Z 
[import] 'Obj\gui.obj' vip7vpi.dll. ?win_GetListDialogs@VIP_VPI@@YAPAUwinlist_struct@1@J@Z 
[import] 'Obj\exe.obj' VIP7Kernel.dll. ?LocalCut2@Kernel@VIP@@YAXPAE@Z 
[import] 'Obj\gui.obj' vip7vpi.dll. ?win_GetClassName@VIP_VPI@@YAPAGJ@Z 
[import] 'Obj\binary.obj' VIP7Run.dll. ?ConvertIR@RunTime@VIP@@YGNPBV?$rNumericTypeDescriptor@H@12@PBV?$rNumericTypeDescriptor@N@12@H@Z 
[import] 'Obj\gui.obj' vip7vpi.dll. ?win_SendEvent@VIP_VPI@@YAJJPAUevent_struct@1@H@Z 
[import] 'Obj\math.obj' VIP7Run.dll. ?exp@RunTime@VIP@@YANN@Z 
[import] 'Obj\gui.obj' vip7vpi.dll. ?win_GetHandler@VIP_VPI@@YAPAUPROLOG_EHANDLER_STRUCT@1@J@Z 
[import] 'Obj\fileSystem.obj' KERNEL32.dll. _MoveFileW@8 
[import] 'Obj\gui.obj' vip7vpi.dll. ?win_SetSubClassHandler@VIP_VPI@@YAXJPAUPROLOG_EHANDLER_STRUCT@1@H@Z 
[import] 'Obj\fileSystem.obj' KERNEL32.dll. _FindFirstFileW@8 
[import] 'Obj\gui.obj' vip7vpi.dll. ?win_GetFont@VIP_VPI@@YAPADJ@Z 
[import] 'Obj\fileSystem.obj' KERNEL32.dll. _GetShortPathNameW@12 
[import] 'Obj\gui.obj' vip7vpi.dll. ?win_SetActiveWindow@VIP_VPI@@YAXJ@Z 
[import] 'Obj\fileSystem.obj' KERNEL32.dll. _GetFileAttributesExW@12 
[import] 'Obj\gui.obj' vip7vpi.dll. ?win_BringToTop@VIP_VPI@@YAXJ@Z 
[import] 'Obj\console.obj' KERNEL32.dll. _ReadFile@20 
[import] 'Obj\gui.obj' vip7vpi.dll. ?win_SetIcon@VIP_VPI@@YAXJI@Z 
[import] 'Obj\fileSystem.obj' KERNEL32.dll. _SearchPathW@24 
[import] 'Obj\gui.obj' USER32.dll. _GetMenu@4 
[import] 'Obj\fileSystem.obj' KERNEL32.dll. _SetCurrentDirectoryW@4 
[import] 'Obj\gui.obj' USER32.dll. _AdjustWindowRectEx@16 
[import] 'Obj\interface.obj' VIP7Run.dll. ?cos@RunTime@VIP@@YANN@Z 
[import] 'Obj\gui.obj' USER32.dll. _ScreenToClient@8 
[import] 'Obj\fileSystem.obj' KERNEL32.dll. _GetDiskFreeSpaceExW@16 
[import] 'Obj\gui.obj' USER32.dll. _ClientToScreen@8 
[import] 'Obj\exception.obj' KERNEL32.dll. _GetLastError@0 
[import] 'Obj\controls.obj' USER32.dll. _GetParent@4 
[import] 'Obj\console.obj' VIP7Run.dll. ?ConvertUU@RunTime@VIP@@YGIPBV?$rNumericTypeDescriptor@I@12@0I@Z 
[import] 'Obj\gui.obj' USER32.dll. _MoveWindow@24 
[import] 'Obj\binary.obj' VIP7Run.dll. ?Error_SingleFactHasNoValue@RunTime@VIP@@YAXQBVrTypeLibrary@12@I@Z 
[import] 'Obj\gui.obj' vip7vpi.dll. ?win_GetOuterRect@VIP_VPI@@YAPAUrect_struct@1@J@Z 
[import] 'Obj\fileSystem.obj' KERNEL32.dll. _GetSystemDirectoryA@8 
[import] 'Obj\gui.obj' vip7vpi.dll. ?win_SetData@VIP_VPI@@YAXJJ@Z 
[import] 'Obj\fileSystem.obj' KERNEL32.dll. _GetWindowsDirectoryA@8 
[import] 'Obj\gui.obj' vip7vpi.dll. ?win_GetData@VIP_VPI@@YAJJ@Z 
[import] 'Obj\fileSystem.obj' SHELL32.dll. _SHGetPathFromIDListW@8 
[import] 'Obj\gui.obj' vip7vpi.dll. ?win_EnableHook@VIP_VPI@@YAXJH@Z 
[import] 'Obj\string8_api.obj' KERNEL32.dll. _WideCharToMultiByte@32 
[import] 'Obj\gui.obj' USER32.dll. _GetDlgCtrlID@4 
[import] 'Obj\runTime_api.obj' KERNEL32.dll. _GetProcAddress@8 
[import] 'Obj\fileSystem.obj' USER32.dll. _SendMessageW@16 
[import] 'Obj\binary.obj' KERNEL32.dll. _lstrlenA@4 
[import] 'Obj\gui.obj' vip7vpi.dll. ?win_DialogRatio@VIP_VPI@@YAXJPAPAUpnt_struct@1@@Z 
[import] 'Obj\registry_api.obj' ADVAPI32.dll. _RegQueryValueExW@24 
[import] 'Obj\gui.obj' vip7vpi.dll. ?menu_Check_0@VIP_VPI@@YAXJIH@Z 
[import] 'Obj\fileSystem.obj' VIP7Kernel.dll. ?ReleaseHeap@Kernel@VIP@@YGXPAE@Z 
[import] 'Obj\gui.obj' vip7vpi.dll. ?menu_Enable_0@VIP_VPI@@YAXJIH@Z 
[import] 'Obj\registry_api.obj' ADVAPI32.dll. _RegOpenKeyExW@20 
[import] 'Obj\gui.obj' vip7vpi.dll. ?menu_Get@VIP_VPI@@YAPAUmenu_struct@1@J@Z 
[import] 'Obj\string.obj' VIP7Run.dll. ?search@RunTime@VIP@@YG_NPBG0QAI@Z 
[import] 'Obj\gui.obj' vip7vpi.dll. ?menu_Set@VIP_VPI@@YAXJPAUmenu_struct@1@@Z 
[import] 'Obj\fileSystem_api.obj' KERNEL32.dll. _GetVolumeInformationW@32 
[import] 'Obj\binary.obj' VIP7Run.dll. ?binarySearch@RunTime@VIP@@YAIPBEI0I@Z 
[import] 'Obj\console.obj' VIP7Run.dll. ?bitOr@RunTime@VIP@@YAIII@Z 
[import] 'Obj\gui.obj' vip7vpi.dll. ?menu_SetText_0@VIP_VPI@@YAXJIPBG@Z 
[import] 'Obj\vpitoolbar.obj' vip7vpi.dll. ?win_CreateDyn@VIP_VPI@@YAJPAUwindef_list_struct@1@JPAUPROLOG_EHANDLER_STRUCT@1@J@Z 
[import] 'Obj\gui.obj' vip7vpi.dll. ?menu_Update@VIP_VPI@@YAXJ@Z 
[import] 'Obj\vpiEditor.obj' vip7vpi.dll. ?rect_Inflate@VIP_VPI@@YAPAUrect_struct@1@PAU21@HH@Z 
[import] 'Obj\gui.obj' vip7vpi.dll. ?vpi_ArrangeMDIIcons@VIP_VPI@@YAXXZ 
[import] 'Obj\gui.obj' vip7vpi.dll. ?pict_Close@VIP_VPI@@YAJJ@Z 
[import] 'Obj\gui.obj' vip7vpi.dll. ?vpi_MoveMDIWindowsCascade@VIP_VPI@@YAXPAUilist_struct@1@@Z 
[import] 'Obj\exception.obj' VIP7Kernel.dll. ?VIP_ErrorExitCreate@Kernel@VIP@@YGPAVtrapInfo_interface@12@I@Z 
[import] 'Obj\gui.obj' vip7vpi.dll. ?vpi_MoveMDIWindowsTile@VIP_VPI@@YAXPAUilist_struct@1@@Z 
[import] 'Obj\vpiEditor.obj' vip7vpi.dll. ?font_Create@VIP_VPI@@YAPADHPAUfontstyle_struct@1@H@Z 
[import] 'Obj\gui.obj' vip7vpi.dll. ?vpi_CreateProcess@VIP_VPI@@YAJJPAG0J@Z 
[import] 'Obj\controls.obj' vip7vpi.dll. ?lbox_Resume@VIP_VPI@@YAXJ@Z 
[import] 'Obj\gui.obj' vip7vpi.dll. ?vpi_SetErrorHandler@VIP_VPI@@YAXPAUPROLOG_ERRHANDLER_STRUCT@1@@Z 
[import] 'Obj\controls.obj' vip7vpi.dll. ?lbox_Suspend@VIP_VPI@@YAXJ@Z 
[import] 'Obj\controls.obj' USER32.dll. _SetFocus@4 
[import] 'Obj\gui.obj' vip7vpi.dll. ?vpi_SetAttrVal@VIP_VPI@@YAXJJ@Z 
[import] 'Obj\gui.obj' vip7vpi.dll. ?win_GetFocus@VIP_VPI@@YAJXZ 
[import] 'Obj\vpi.obj' vip7vpi.dll. ?win_GetCtlHandle@VIP_VPI@@YAJJH@Z 
[import] 'Obj\console.obj' VIP7Run.dll. ?bitNot@RunTime@VIP@@YAII@Z 
[import] 'Obj\gui.obj' vip7vpi.dll. ?win_SetPen@VIP_VPI@@YAXJPAUpen_struct@1@@Z 
[import] 'Obj\gui.obj' vip7vpi.dll. ?vpi_GetBaseUnits@VIP_VPI@@YAXPAH0@Z 
[import] 'Obj\gui.obj' vip7vpi.dll. ?win_SetBackMode@VIP_VPI@@YAXJH@Z 
[import] 'Obj\gui.obj' vip7vpi.dll. ?font_GetAttrs@VIP_VPI@@YAPAGPADPAPAUfontstyle_struct@1@PAH@Z 
[import] 'Obj\vpitoolbar.obj' VIP7Run.dll. ?abs_ii@RunTime@VIP@@YAHH@Z 
[import] 'Obj\gui.obj' USER32.dll. _SetWindowLongW@12 
[import] 'Obj\gui.obj' vip7vpi.dll. ?win_Create@VIP_VPI@@YAJHPAUrect_struct@1@PBGPAUmenu_struct@1@JPAUwsflags_struct@1@PAUPROLOG_EHANDLER_STRUCT@1@J@Z 
[import] 'Obj\gui.obj' USER32.dll. _GetWindowLongW@8 
[import] 'Obj\gui.obj' vip7vpi.dll. ?win_Move@VIP_VPI@@YAXJPAUrect_struct@1@@Z 
[import] 'Obj\gui.obj' vip7vpi.dll. ?draw_Arc@VIP_VPI@@YAXJPAUrect_struct@1@HHHH@Z 
[import] 'Obj\controls.obj' vip7vpi.dll. ?win_GetFontMetrics@VIP_VPI@@YAXJPAH00@Z 
[import] 'Obj\gui.obj' vip7vpi.dll. ?draw_Ellipse@VIP_VPI@@YAXJPAUrect_struct@1@@Z 
[import] 'Obj\gui.obj' vip7vpi.dll. ?win_CaptureMouse@VIP_VPI@@YAXJ@Z 
[import] 'Obj\gui.obj' vip7vpi.dll. ?draw_FloodFill@VIP_VPI@@YAXJPAUpnt_struct@1@J@Z 
[import] 'Obj\controls.obj' USER32.dll. _CreateWindowExW@48 
[import] 'Obj\binary.obj' VIP7Run.dll. ?AllocateObject@RunTime@VIP@@YGPAEQBVRObjectClassDescriptorInfo@12@PAP6GXPAX@Z@Z 
[import] 'Obj\controls.obj' GDI32.dll. _CreateBrushIndirect@4 
[import] 'Obj\gui.obj' vip7vpi.dll. ?draw_Icon@VIP_VPI@@YAXJHHI@Z 
[import] 'Obj\controls.obj' GDI32.dll. _SelectObject@8 
[import] 'Obj\gui.obj' vip7vpi.dll. ?draw_Pie@VIP_VPI@@YAXJPAUrect_struct@1@HHHH@Z 
[import] 'Obj\controls.obj' GDI32.dll. _LineTo@12 
[import] 'Obj\gui.obj' vip7vpi.dll. ?draw_Pixel@VIP_VPI@@YAXJPAUpnt_struct@1@J@Z 
[import] 'Obj\controls.obj' vip7vpi.dll. ?win_Check@VIP_VPI@@YAXJH@Z 
[import] 'Obj\gui.obj' vip7vpi.dll. ?draw_Polygon@VIP_VPI@@YAXJPAUpntlist_struct@1@@Z 
[import] 'Obj\vpiEditor.obj' vip7edit.dll. ?edit_IndentSize_0@VIP_EDIT@@YAXH@Z 
[import] 'Obj\gui.obj' USER32.dll. _DrawFocusRect@8 
[import] 'Obj\vpiEditor.obj' vip7edit.dll. ?edit_GetTabSize@VIP_EDIT@@YAHXZ 
[import] 'Obj\gui.obj' vip7vpi.dll. ?draw_RoundRect@VIP_VPI@@YAXJPAUrect_struct@1@HH@Z 
[import] 'Obj\vpi.obj' vip7vpi.dll. ?dlg_MessageBox@VIP_VPI@@YAHPBG0HHHH@Z 
[import] 'Obj\gui.obj' vip7vpi.dll. ?win_GetPixel@VIP_VPI@@YAJJPAUpnt_struct@1@@Z 
[import] 'Obj\vpi.obj' vip7vpi.dll. ?dlg_GetOpenFileNameList@VIP_VPI@@YAPAUslist_struct@1@PBGPAU21@0I@Z 
[import] 'Obj\gui.obj' vip7vpi.dll. ?win_ReleaseNativeGraphicContext@VIP_VPI@@YAXJJH@Z 
[import] 'Obj\controls.obj' vip7vpi.dll. ?lbox_GetSel@VIP_VPI@@YAXJPAPAUslist_struct@1@PAPAUilist_struct@1@@Z 
[import] 'Obj\gui.obj' vip7vpi.dll. ?win_SetDrawMode@VIP_VPI@@YAXJH@Z 
[import] 'Obj\vpi.obj' vip7vpi.dll. ?rect_GetClient@VIP_VPI@@YAPAUrect_struct@1@PAUwsflags_struct@1@HPAU21@@Z 
[import] 'Obj\gui.obj' vip7vpi.dll. ?win_GetDrawMode@VIP_VPI@@YAHJ@Z 
[import] 'Obj\vpi.obj' vip7vpi.dll. ?class_Create@VIP_VPI@@YAXPBGPAUPROLOG_EHANDLER_STRUCT@1@@Z 
[import] 'Obj\gui.obj' vip7vpi.dll. ?win_GetBrush@VIP_VPI@@YAPAUbrush_struct@1@J@Z 
[import] 'Obj\console.obj' KERNEL32.dll. _WriteConsoleW@20 
[import] 'Obj\gui.obj' vip7vpi.dll. ?win_GetPen@VIP_VPI@@YAPAUpen_struct@1@J@Z 
[import] 'Obj\console.obj' VIP7Run.dll. ?bitLeft@RunTime@VIP@@YAIII@Z 
[import] 'Obj\gui.obj' vip7vpi.dll. ?win_GetDrawTools@VIP_VPI@@YAPAUdrawtools_struct@1@J@Z 
[import] 'Obj\log.obj' VIP7Kernel.dll. ?SetTrapTop@Kernel@VIP@@YGXPAVTBackTrackBlock@12@@Z 
[import] 'Obj\gui.obj' vip7vpi.dll. ?win_SetMapScale@VIP_VPI@@YAXJPAUpnt_struct@1@000@Z 
[import] 'Obj\exception.obj' VIP7Kernel.dll. ?MEM_alloc_nil@Kernel@VIP@@YGPBEXZ 
[import] 'Obj\gui.obj' vip7vpi.dll. ?win_GetMapScale@VIP_VPI@@YAXJPAPAUpnt_struct@1@000@Z 
[import] 'Obj\boolean.obj' VIP7Run.dll. ?Unify@RunTime@VIP@@YGXQBVrTypeLibrary@12@PAX1@Z 
[import] 'Obj\gui.obj' vip7vpi.dll. ?win_SetMapMode@VIP_VPI@@YAXJH@Z 
[import] 'Obj\fileSystem.obj' KERNEL32.dll. _FindNextFileW@8 
[import] 'Obj\gui.obj' vip7vpi.dll. ?win_GetMapMode@VIP_VPI@@YAHJ@Z 
[import] 'Obj\fileSystem.obj' KERNEL32.dll. _GetFullPathNameW@16 
[import] 'Obj\gui.obj' vip7vpi.dll. ?caret_Off@VIP_VPI@@YAXJ@Z 
[import] 'Obj\fileSystem.obj' KERNEL32.dll. _CreateDirectoryW@8 
[import] 'Obj\gui.obj' vip7vpi.dll. ?caret_Size@VIP_VPI@@YAXJHH@Z 
[import] 'Obj\fileSystem.obj' KERNEL32.dll. _SetVolumeLabelW@8 
[import] 'Obj\gui.obj' USER32.dll. _GetScrollInfo@12 
[import] 'Obj\time_api.obj' KERNEL32.dll. _LocalFileTimeToFileTime@8 
[import] 'Obj\gui.obj' USER32.dll. _GetScrollBarInfo@12 
[import] 'Obj\environment.obj' VIP7Run.dll. ?FirstBranchConvertObject@RunTime@VIP@@YGQBVRObject@12@QBVRInterfaceDescriptor@12@QBV312@@Z 
[import] 'Obj\gui.obj' USER32.dll. _ScrollWindowEx@32 
[import] 'Obj\time.obj' KERNEL32.dll. _GetSystemTimeAsFileTime@4 
[import] 'Obj\gui.obj' vip7vpi.dll. ?win_Scroll@VIP_VPI@@YAXJPAUrect_struct@1@HH@Z 
[import] 'Obj\runTime_api.obj' KERNEL32.dll. _GetSystemInfo@4 
[import] 'Obj\controls.obj' vip7vpi.dll. ?win_SetScrollProportion@VIP_VPI@@YAXJHI@Z 
[import] 'Obj\registry_api.obj' ADVAPI32.dll. _RegEnumValueW@32 
[import] 'Obj\controls.obj' vip7vpi.dll. ?win_GetScrollProportion@VIP_VPI@@YAIJH@Z 
[import] 'Obj\registry_api.obj' ADVAPI32.dll. _RegCreateKeyExW@36 
[import] 'Obj\controls.obj' vip7vpi.dll. ?win_SetScrollPos@VIP_VPI@@YAXJHH@Z 
[import] 'Obj\gui.obj' VIP7Kernel.dll. ?OSMoveMemory@Kernel@VIP@@YAXPAXPBXI@Z 
[import] 'Obj\controls.obj' vip7vpi.dll. ?win_GetScrollPos@VIP_VPI@@YAHJH@Z 
[import] 'Obj\console.obj' KERNEL32.dll. _GetStdHandle@4 
[import] 'Obj\binary.obj' VIP7Kernel.dll. ?MEM_alloc_nullfunctor@Kernel@VIP@@YGPBEI@Z 
[import] 'Obj\gui.obj' vip7vpi.dll. ?win_Clear_1@VIP_VPI@@YAXJPAUrect_struct@1@J@Z 
[import] 'Obj\controls.obj' vip7vpi.dll. ?win_SetScrollRange@VIP_VPI@@YAXJHHH@Z 
[import] 'Obj\gui.obj' vip7vpi.dll. ?draw_Polyline@VIP_VPI@@YAXJPAUpntlist_struct@1@@Z 
[import] 'Obj\controls.obj' vip7vpi.dll. ?win_GetScrollRange@VIP_VPI@@YAXJHPAH0@Z 
[import] 'Obj\exception.obj' KERNEL32.dll. _VirtualQuery@12 
[import] 'Obj\gui.obj' vip7vpi.dll. ?win_DPtoLP@VIP_VPI@@YAPAUpntlist_struct@1@JPAU21@@Z 
[import] 'Obj\controls.obj' vip7vpi.dll. ?win_GetType@VIP_VPI@@YAHJ@Z 
[import] 'Obj\gui.obj' vip7vpi.dll. ?win_LPtoDP@VIP_VPI@@YAPAUpntlist_struct@1@JPAU21@@Z 
[import] 'Obj\gui.obj' vip7vpi.dll. ?win_SetFont@VIP_VPI@@YAXJPAD@Z 
[import] 'Obj\gui.obj' vip7vpi.dll. ?win_SetClip@VIP_VPI@@YAXJPAUrect_struct@1@@Z 
[import] 'Obj\environment.obj' KERNEL32.dll. _GetEnvironmentVariableW@12 
[import] 'Obj\gui.obj' vip7vpi.dll. ?win_GetClip@VIP_VPI@@YAPAUrect_struct@1@J@Z 
[import] 'Obj\gui.obj' vip7vpi.dll. ?win_MapPoints@VIP_VPI@@YAPAUpntlist_struct@1@JJPAU21@@Z 
[import] 'Obj\gui.obj' vip7vpi.dll. ?win_GetInvalidRect@VIP_VPI@@YAPAUrect_struct@1@J@Z 
[import] 'Obj\vpitoolbar.obj' vip7vpi.dll. ?pict_Destroy@VIP_VPI@@YAXJ@Z 
[import] 'Obj\gui.obj' vip7vpi.dll. ?win_NeedsUpdate@VIP_VPI@@YAXJPAUrect_struct@1@@Z 
[import] 'Obj\controls.obj' GDI32.dll. _SetBkColor@8 
[import] 'Obj\gui.obj' vip7vpi.dll. ?win_ValidateRect@VIP_VPI@@YAXJPAUrect_struct@1@@Z 
[import] 'Obj\controls.obj' USER32.dll. _DrawTextW@20 
[import] 'Obj\exe.obj' KERNEL32.dll. _GetCommandLineW@0 
[import] 'Obj\vpiEditor.obj' vip7edit.dll. ?edit_GetSearchOptions@VIP_EDIT@@YAXPAH00@Z 
[import] 'Obj\gui.obj' vip7vpi.dll. ?win_Update@VIP_VPI@@YAXJ@Z 
[import] 'Obj\vpi.obj' vip7vpi.dll. ?setGetCustomColors@VIP_VPI@@YAXPADH@Z 
[import] 'Obj\gui.obj' vip7vpi.dll. ?tryGetWindowObject@VIP_VPI@@YAPAXJ@Z 
[import] 'Obj\gui.obj' vip7vpi.dll. ?vpi_GetTaskWin@VIP_VPI@@YAJXZ 
[import] 'Obj\exe.obj' OLE32.dll. _OleUninitialize@0 
[import] 'Obj\controlSupport.obj' vip7vpi.dll. ?winCreateDynControl@VIP_VPI@@YAJPAUwindef_list_struct@1@JH@Z 
[import] 'Obj\exe.obj' OLE32.dll. _OleInitialize@4 
[import] 'Obj\exception.obj' VIP7Run.dll. ?toString@RunTime@VIP@@YGPBGQBVrTypeLibrary@12@PBX@Z 
[import] 'Obj\messageControl.obj' vip7edit.dll. ?edit_SetFontDlg@VIP_EDIT@@YAXJ@Z 
[import] 'Obj\interface.obj' VIP7Run.dll. ?InsertSymbol@RunTime@VIP@@YGPBGQBG@Z 
[import] 'Obj\messageControl.obj' vip7edit.dll. ?edit_SearchAgain@VIP_EDIT@@YAXJ@Z 
[import] 'Obj\math.obj' VIP7Run.dll. ?ConvertRR@RunTime@VIP@@YGNPBV?$rNumericTypeDescriptor@N@12@0N@Z 
[import] 'Obj\exe.obj' OLE32.dll. _CoUninitialize@0 
[import] 'Obj\fileSystem.obj' KERNEL32.dll. _GetCurrentDirectoryW@8 
[import] 'Obj\messageControl.obj' vip7edit.dll. ?edit_SearchDlg@VIP_EDIT@@YAXJ@Z 
[import] 'Obj\fileSystem.obj' shfolder.dll. _SHGetFolderPathW@20 
[import] 'Obj\exe.obj' OLE32.dll. _CoInitializeEx@8 
[import] 'Obj\console.obj' VIP7Run.dll. ?InitInputParser@RunTime@VIP@@YGPAVRInputStreamImpl@12@QAVRROBufferProvider@12@@Z 
[import] 'Obj\messageControl.obj' vip7edit.dll. ?edit_Copy@VIP_EDIT@@YAXJ@Z 
[import] 'Obj\registry_api.obj' ADVAPI32.dll. _RegEnumKeyExW@32 
[import] 'Obj\exe.obj' VIP7Kernel.dll. ?GarbageCollector@Kernel@VIP@@YAXXZ 
[import] 'Obj\fileSystem_api.obj' KERNEL32.dll. _GetFileSize@8 
[import] 'Obj\messageControl.obj' vip7edit.dll. ?edit_GetSelection@VIP_EDIT@@YAXJPAK0@Z 
[import] 'Obj\gui.obj' vip7vpi.dll. ?win_GetNativeGraphicContext@VIP_VPI@@YAJJPAH@Z 
[import] '.\Release\VIPMain.obj' KERNEL32.dll. __imp__ExitProcess@4 
[import] 'Obj\controls.obj' vip7vpi.dll. ?win_SendEvent@VIP_VPI@@YAJJPAUevent_struct@1@@Z 
[import] '.\Release\VIPMain.obj' VIP7Kernel.dll. __imp_?ExeTermination@Kernel@VIP@@YAXH@Z 
[import] 'Obj\gui.obj' vip7vpi.dll. ?timer_Kill@VIP_VPI@@YAXJ@Z 
[import] '.\Release\VIPDll.obj' VIP7Kernel.dll. __imp_?KernelUnitTermination@Kernel@VIP@@YAXPAX@Z 
[import] 'Obj\controls.obj' vip7vpi.dll. ?win_GetParent@VIP_VPI@@YAJJ@Z 
[import] '.\Release\VIPDll.obj' VIP7Run.dll. __imp_?RunUnitTermination@RunTime@VIP@@YGXPAX@Z 
[import] 'Obj\controls.obj' GDI32.dll. _DeleteObject@4 
[import] '.\Release\VIPDll.obj' VIP7Kernel.dll. __imp_?RunGoal@Kernel@VIP@@YGIQ6AIXZ@Z 
[import] 'Obj\vpiEditor.obj' vip7edit.dll. ?edit_SetColorSettings@VIP_EDIT@@YAXKHPAUcolor_settings_struct@1@@Z 
[import] '.\Release\VIPMain.obj' VIP7Kernel.dll. __imp_?ExeInitialization@Kernel@VIP@@YAHXZ 
[import] 'Obj\gui.obj' vip7vpi.dll. ?win_GetState@VIP_VPI@@YAPAUwsflags_struct@1@J@Z 
[import] '.\Release\VIPDll.obj' VIP7Run.dll. __imp_?InitializationDictionaries@RunTime@VIP@@YGHPBVdicofdic@12@@Z 
[import] 'Obj\math.obj' VIP7Run.dll. ?abs_rr@RunTime@VIP@@YANN@Z 
[import] '.\Release\VIPDll.obj' VIP7Run.dll. __imp_?RunUnitInitialization@RunTime@VIP@@YGHPAX@Z 
[import] 'Obj\console.obj' KERNEL32.dll. _WriteFile@20 
[import] '.\Release\VIPDll.obj' VIP7Kernel.dll. __imp_?KernelUnitInitialization@Kernel@VIP@@YGHPAX@Z 
[import] 'Obj\fileSystem.obj' KERNEL32.dll. _GetWindowsDirectoryW@8 
[import] 'Obj\messageControl.obj' vip7edit.dll. ?edit_AppendStr_1@VIP_EDIT@@YAXJPBGH@Z 
[import] 'Obj\fileSystem.obj' KERNEL32.dll. _FlushFileBuffers@4 
[import] 'Obj\controls.obj' USER32.dll. _GetSysColorBrush@4 
[import] 'Obj\gui.obj' vip7vpi.dll. ?win_SetState@VIP_VPI@@YAXJPAUwsflags_struct@1@@Z 
[import] 'Obj\controls.obj' GDI32.dll. _SetTextColor@8 
[import] 'Obj\controls.obj' USER32.dll. _SetWindowPos@28 
[import] 'Obj\messageControl.obj' vip7edit.dll. ?edit_SetReadOnly_0@VIP_EDIT@@YAXJH@Z 
[import] 'Obj\controls.obj' vip7vpi.dll. ?win_IsChecked@VIP_VPI@@YAHJ@Z 
[import] 'Obj\messageControl.obj' vip7edit.dll. ?edit_GotoPos@VIP_EDIT@@YAHJK@Z 
[import] 'Obj\binary.obj' VIP7Run.dll. ?ConvertUR@RunTime@VIP@@YGNPBV?$rNumericTypeDescriptor@I@12@PBV?$rNumericTypeDescriptor@N@12@I@Z 
[import] 'Obj\messageControl.obj' vip7edit.dll. ?edit_PasteStr_1@VIP_EDIT@@YAXJPBG@Z 
[import] 'Obj\time_api.obj' KERNEL32.dll. _GetLocaleInfoW@16 
[import] 'Obj\messageControl.obj' vip7edit.dll. ?edit_StatusLineShow@VIP_EDIT@@YAXJH@Z 
[import] 'Obj\gui.obj' vip7vpi.dll. ?win_SetFocus@VIP_VPI@@YAXJ@Z 
[import] 'Obj\messageControl.obj' vip7edit.dll. ?edit_CreateSubClass@VIP_EDIT@@YAXJPBGPADHHH0KPAUPROLOG_EHANDLER_STRUCT@VIP_VPI@@@Z 
[import] 'Obj\fileSystem.obj' KERNEL32.dll. _DeleteFileW@4 
[import] 'Obj\console.obj' VIP7Run.dll. ?bitAnd@RunTime@VIP@@YAIII@Z 
[import] 'Obj\gui.obj' vip7vpi.dll. ?win_SetForeColor@VIP_VPI@@YAXJJ@Z 
[import] 'Obj\vpi.obj' vip7vpi.dll. ?dlg_Error@VIP_VPI@@YAXPBG0@Z 
[import] 'Obj\fileSystem.obj' VERSION.dll. _VerQueryValueW@16 
[import] 'Obj\fileSystem.obj' VERSION.dll. _GetFileVersionInfoSizeW@8 
[import] 'Obj\fileSystem.obj' VERSION.dll. _GetFileVersionInfoW@16 
[import] 'Obj\controls.obj' USER32.dll. _GetDCEx@12 
--- Total Names =  5844 --------
--- Total Cnt   =  5843 --------
--------------------------------

